
test:     file format elf32-xtensa-le


Disassembly of section .ResetVector.text:

00100000 <_ResetVector>:
  100000:	001406                                    	j	100054 <_ResetHandler>

00100003 <_ResetVector+0x3>:
	...

00100004 <_ResetVector+0x4>:
  100004:	00103024 80007b30 b1c5afed ff7fffff     $0..0{..........
  100014:	ffffff01 00100400 80005f28 00001044     ........(_..D...
	...
  10002c:	00103020 00000000 80006548 8000677c      0......He..|g..
  10003c:	8000681c 800068bc 8000695c 80007634     .h...h..\i..4v..
  10004c:	80000914                                ....

00100050 <_ResetVector+0x50>:
  100050:	00000000                                ....

00100054 <_ResetHandler>:
  100054:	ffec21                                    	l32r	a2, 100004 (103024 <_DoubleExceptionVector_text_end+0x2a7c>)
  100057:	ffec31                                    	l32r	a3, 100008 (80007b30 <_xtos_pso_savearea>)
  10005a:	ffec51                                    	l32r	a5, 10000c (b1c5afed <__stack+0x21c5afed>)
  10005d:	406270                                    	rer	a7, a2
  100060:	144170                                    	extui	a4, a7, 1, 2
  100063:	151466                                    	bnei	a4, 1, 10007c <_ResetHandler+0x28>
  100066:	0348                                    	l32i.n	a4, a3, 0
  100068:	c04450                                    	sub	a4, a4, a5
  10006b:	d4cc                                    	bnez.n	a4, 10007c <_ResetHandler+0x28>
  10006d:	302342                                    	l32i	a4, a3, 192
  100070:	ffe801                                    	l32r	a0, 100010 (ff7fffff <xthals_hw_configid0+0x3ecc2405>)
  100073:	100400                                    	and	a0, a4, a0
  100076:	136100                                    	wsr.memctl	a0
  100079:	000146                                    	j	100082 <_ResetHandler+0x2e>

0010007c <_ResetHandler+0x28>:
  10007c:	ffe601                                    	l32r	a0, 100014 (ffffff01 <__memctl_default>)
  10007f:	136100                                    	wsr.memctl	a0

00100082 <_ResetHandler+0x2e>:
  100082:	000c                                    	movi.n	a0, 0
  100084:	13e400                                    	wsr.intenable	a0
  100087:	0348                                    	l32i.n	a4, a3, 0
  100089:	c04450                                    	sub	a4, a4, a5
  10008c:	0a6717                                    	bbci	a7, 1, 10009a <_ResetHandler+0x46>
  10008f:	fec752                                    	addi	a5, a7, -2
  100092:	937540                                    	movnez	a7, a5, a4
  100095:	14cc                                    	bnez.n	a4, 10009a <_ResetHandler+0x46>
  100097:	0b6727                                    	bbci	a7, 2, 1000a6 <_ResetHandler+0x52>

0010009a <_ResetHandler+0x46>:
  10009a:	ffdf21                                    	l32r	a2, 100018 (100400 <_memmap_vecbase_reset>)
  10009d:	13e720                                    	wsr.vecbase	a2
  1000a0:	006120                                    	rsil	a2, 1
  1000a3:	0a6717                                    	bbci	a7, 1, 1000b1 <_ResetHandler+0x5d>

001000a6 <_ResetHandler+0x52>:
  1000a6:	020c                                    	movi.n	a2, 0
  1000a8:	ffd831                                    	l32r	a3, 100008 (80007b30 <_xtos_pso_savearea>)
  1000ab:	ffdc01                                    	l32r	a0, 10001c (80005f28 <_xtos_core_restore_nw>)
  1000ae:	0000c0                                    	callx0	a0

001000b1 <_ResetHandler+0x5d>:
  1000b1:	ffdb21                                    	l32r	a2, 100020 (1044 <XtosCoreStateSize+0x724>)
  1000b4:	132820                                    	wsr.prefctl	a2
  1000b7:	ffdb21                                    	l32r	a2, 100024 (0 <_Level2HandlerLabel>)
  1000ba:	ffdb31                                    	l32r	a3, 100028 (0 <_Level2HandlerLabel>)
  1000bd:	064216                                    	beqz	a2, 100125 <_ResetHandler+0xd1>
  1000c0:	061316                                    	beqz	a3, 100125 <_ResetHandler+0xd1>
  1000c3:	0338                                    	l32i.n	a3, a3, 0
  1000c5:	05c316                                    	beqz	a3, 100125 <_ResetHandler+0xd1>
  1000c8:	0c0c                                    	movi.n	a12, 0
  1000ca:	1362c0                                    	wsr.cacheadrdis	a12
  1000cd:	135ac0                                    	wsr.mpuenb	a12
  1000d0:	0d0c                                    	movi.n	a13, 0
  1000d2:	fe1c                                    	movi.n	a14, 31
  1000d4:	000206                                    	j	1000e0 <_ResetHandler+0x8c>

001000d7 <_ResetHandler+0x83>:
	...

001000e0 <_ResetHandler+0x8c>:
  1000e0:	0020c0                                    	memw
  1000e3:	50ecd0                                    	wptlb	a13, a12
  1000e6:	dd1b                                    	addi.n	a13, a13, 1
  1000e8:	f43de7                                    	bltu	a13, a14, 1000e0 <_ResetHandler+0x8c>
  1000eb:	13bc                                    	beqz.n	a3, 100120 <_ResetHandler+0xcc>
  1000ed:	b02320                                    	addx8	a2, a3, a2
  1000f0:	000586                                    	j	10010a <_ResetHandler+0xb6>

001000f3 <_ResetHandler+0x9f>:
	...

00100100 <_ResetHandler+0xac>:
  100100:	0020c0                                    	memw
  100103:	50efd0                                    	wptlb	a13, a15
  100106:	ee0b                                    	addi.n	a14, a14, -1
  100108:	439c                                    	beqz.n	a3, 100120 <_ResetHandler+0xcc>

0010010a <_ResetHandler+0xb6>:
  10010a:	f8c222                                    	addi	a2, a2, -8
  10010d:	12d8                                    	l32i.n	a13, a2, 4
  10010f:	02f8                                    	l32i.n	a15, a2, 0
  100111:	330b                                    	addi.n	a3, a3, -1
  100113:	44c0d0                                    	extui	a12, a13, 0, 5
  100116:	30ddc0                                    	xor	a13, a13, a12
  100119:	20dde0                                    	or	a13, a13, a14
  10011c:	fff806                                    	j	100100 <_ResetHandler+0xac>

0010011f <_ResetHandler+0xcb>:
	...

00100120 <_ResetHandler+0xcc>:
  100120:	000186                                    	j	10012a <_ResetHandler+0xd6>

00100123 <_ResetHandler+0xcf>:
	...

00100125 <_ResetHandler+0xd1>:
  100125:	290c                                    	movi.n	a9, 2

00100127 <_ResetHandler+0xd3>:
  100127:	136290                                    	wsr.cacheadrdis	a9
  10012a:	036120                                    	rsr.memctl	a2
  10012d:	130c                                    	movi.n	a3, 1
  10012f:	202230                                    	or	a2, a2, a3
  100132:	136120                                    	wsr.memctl	a2
  100135:	ffbd21                                    	l32r	a2, 10002c (103020 <_DoubleExceptionVector_text_end+0x2a78>)
  100138:	e47c                                    	movi.n	a4, -2
  10013a:	406230                                    	rer	a3, a2
  10013d:	103340                                    	and	a3, a3, a4
  100140:	407230                                    	wer	a3, a2
  100143:	ffbb21                                    	l32r	a2, 100030 (0 <_Level2HandlerLabel>)
  100146:	628c                                    	beqz.n	a2, 100150 <unpackdone>
  100148:	0002c0                                    	callx0	a2
  10014b:	000c                                    	movi.n	a0, 0
  10014d:	fff256                                    	bnez	a2, 100150 <unpackdone>

00100150 <unpackdone>:
  100150:	ffb941                                    	l32r	a4, 100034 (80006548 <_MemErrorHandler>)
  100153:	136c40                                    	wsr.mesave	a4
  100156:	ffb841                                    	l32r	a4, 100038 (8000677c <_Level2FromVector>)
  100159:	13d240                                    	wsr.excsave2	a4
  10015c:	ffb841                                    	l32r	a4, 10003c (8000681c <_Level3FromVector>)
  10015f:	13d340                                    	wsr.excsave3	a4
  100162:	ffb741                                    	l32r	a4, 100040 (800068bc <_Level4FromVector>)
  100165:	13d440                                    	wsr.excsave4	a4
  100168:	ffb741                                    	l32r	a4, 100044 (8000695c <_Level5FromVector>)
  10016b:	13d540                                    	wsr.excsave5	a4
  10016e:	ffb651                                    	l32r	a5, 100048 (80007634 <_Pri_5_HandlerAddress>)
  100171:	0549                                    	s32i.n	a4, a5, 0
  100173:	ffb601                                    	l32r	a0, 10004c (80000914 <_start>)
  100176:	0000c0                                    	callx0	a0

00100179 <unpackdone+0x29>:
  100179:	000000                                        ...

Disassembly of section .MemoryExceptionVector.text:

00100310 <_MemErrorVector>:
  100310:	000106                                    	j	100318 <_MemErrorVector+0x8>

00100313 <_MemErrorVector+0x3>:
	...

00100314 <_MemErrorVector+0x4>:
  100314:	80006548                                He..

00100318 <_MemErrorVector+0x8>:
  100318:	136c00                                    	wsr.mesave	a0
  10031b:	fffe01                                    	l32r	a0, 100314 (80006548 <_MemErrorHandler>)
  10031e:	0000a0                                    	jx	a0

00100321 <_MemErrorVector+0x11>:
  100321:	000000                                        ...

Disassembly of section .Level2InterruptVector.text:

001004a0 <_Level2Vector>:
  1004a0:	61d220                                    	xsr.excsave2	a2
  1004a3:	0002a0                                    	jx	a2

001004a6 <_Level2Vector+0x6>:
	...

Disassembly of section .Level3InterruptVector.text:

001004c0 <_Level3Vector>:
  1004c0:	61d320                                    	xsr.excsave3	a2
  1004c3:	0002a0                                    	jx	a2

001004c6 <_Level3Vector+0x6>:
	...

Disassembly of section .Level4InterruptVector.text:

001004e0 <_Level4Vector>:
  1004e0:	61d420                                    	xsr.excsave4	a2
  1004e3:	0002a0                                    	jx	a2

001004e6 <_Level4Vector+0x6>:
	...

Disassembly of section .Level5InterruptVector.text:

00100500 <_Level5Vector>:
  100500:	61d520                                    	xsr.excsave5	a2
  100503:	0002a0                                    	jx	a2

00100506 <_Level5Vector+0x6>:
	...

Disassembly of section .DebugExceptionVector.text:

00100520 <_DebugExceptionVector>:
  100520:	13d620                                    	wsr.excsave6	a2
  100523:	827c                                    	movi.n	a2, -8
  100525:	005100                                    	simcall

Disassembly of section .NMIExceptionVector.text:

00100540 <_NMIExceptionVector>:
  100540:	003710                                    	rfi	7

00100543 <_NMIExceptionVector+0x3>:
	...

Disassembly of section .KernelExceptionVector.text:

00100560 <_KernelExceptionVector>:
  100560:	004100                                    	break	1, 0
  100563:	fffe46                                    	j	100560 <_KernelExceptionVector>

00100566 <_KernelExceptionVector+0x6>:
	...

Disassembly of section .UserExceptionVector.literal:

00100568 <_memmap_seg_srom8_end-0x8>:
  100568:	80007534                                4u..

Disassembly of section .UserExceptionVector.text:

00100580 <_UserExceptionVector>:
  100580:	ffd112                                    	addmi	a1, a1, 0xffffff00
  100583:	5129                                    	s32i.n	a2, a1, 20
  100585:	6139                                    	s32i.n	a3, a1, 24
  100587:	fff831                                    	l32r	a3, 100568 <_KernelExceptionVector_text_end>
  10058a:	03e820                                    	rsr.exccause	a2
  10058d:	a03230                                    	addx4	a3, a2, a3
  100590:	0338                                    	l32i.n	a3, a3, 0
  100592:	7149                                    	s32i.n	a4, a1, 28
  100594:	0003a0                                    	jx	a3

00100597 <_UserExceptionVector+0x17>:
	...

Disassembly of section .DoubleExceptionVector.text:

001005a0 <_DoubleExceptionVector>:
  1005a0:	004140                                    	break	1, 4
  1005a3:	fffe46                                    	j	1005a0 <_DoubleExceptionVector>

001005a6 <_DoubleExceptionVector+0x6>:
	...

Disassembly of section .text:

800006d0 <_stext>:
800006d0:	800009f8 80006a40 90000000 00000000     ....@j..........
800006e0:	00000000 800006ac 800006c4 80007350     ............Ps..
800006f0:	800008f4 8000733c 80007700 80007358     ....<s...w..Xs..
80000700:	00000000 80000698 00000000 80007704     .............w..
80000710:	80000000 8000735c 80007720 80007730     ....\s.. w..0w..
80000720:	80000bb0 800073b8 80000010 7fffffff     .....s..........
80000730:	80000040 7ffffffe 800005b8 80000050     @...........P...
80000740:	800005c0 800005f0 8000067c 8000060c     ........|.......
80000750:	800005d8 800001a4 800001e0 800001b0     ................
80000760:	80007880 800074b0 80007888 80007adc     .x...t...x...z..
80000770:	80007930 800078d0 80002100 800078e0     0y...x...!...x..
80000780:	80007940 00000fef 800074b4 00000f00     @y.......t......
80000790:	80007884 80007ae0 80007ae4 80007368     .x...z...z..hs..
800007a0:	80007364 80007948 80007400 80000628     ds..Hy...t..(...
800007b0:	8000794c 800074d8 8000067c 80007950     Ly...t..|...Py..
800007c0:	80007a44 80007a48 800074b8 80007a50     Dz..Hz...t..Pz..
800007d0:	0000ff00 00ff0000 ff000000 80007ad0     .............z..
800007e0:	800074bc 00009002 00004200 00006000     .t.......B...`..
800007f0:	80000654 80000650 00007597 000186a0     T...P....u......
80000800:	8000064c 80000418 80000648 8000066c     L.......H...l...
80000810:	80000420 800074c0 80000658 40240000      ....t..X.....$@
80000820:	80000450 0000ffef 80000430 80000468     P.......0...h...
80000830:	80007ad4 80007460 80004070 0000dfff     .z..`t..p@......
80000840:	00007ff0 ffff7fff ffff800f 00003fe0     .............?..
80000850:	0000ff7f 80000680 00008000 800004b0     ................
80000860:	00000800 7f7fffff 7f800000 80007b28     ............({..
80000870:	800074dc 80000510 80000560 80007b2c     .t......`...,{..
80000880:	8000752c 800089a8 90000000 800058c8     ,u...........X..
80000890:	80005860 800057e1 00103024 80007b30     `X...W..$0..0{..
800008a0:	80005804 00103020 00000000 00000000     .X.. 0..........
800008b0:	ffffefff b1c5afed 00000524 00110000     ........$.......
800008c0:	80007638 80000000 800075a0 80006de4     8v.......u...m..
800008d0:	80007660 80007658 80007650 80008850     `v..Xv..Pv..P...
800008e0:	80007634 80007640 800004a0 8000069c     4v..@v..........
800008f0:	800009a0                                ....

800008f4 <_init>:
800008f4:	e0c112                                    	addi	a1, a1, -32
800008f7:	0109                                    	s32i.n	a0, a1, 0
800008f9:	ff7501                                    	l32r	a0, 800006d0 (800009f8 <frame_dummy>)
800008fc:	f03d                                    	nop.n
800008fe:	0000c0                                    	callx0	a0
80000901:	037ac5                                    	call0	800040b0 <_closeallreg>
80000904:	ff7401                                    	l32r	a0, 800006d4 (80006a40 <__do_global_ctors_aux>)
80000907:	f03d                                    	nop.n
80000909:	0000c0                                    	callx0	a0
8000090c:	0108                                    	l32i.n	a0, a1, 0
8000090e:	20c112                                    	addi	a1, a1, 32
80000911:	f00d                                    	ret.n

80000913 <_init+0x1f>:
	...

80000914 <_start>:
80000914:	000c                                    	movi.n	a0, 0
80000916:	ff7011                                    	l32r	a1, 800006d8 (90000000 <__stack>)
80000919:	e9a322                                    	movi	a2, 0x3e9
8000091c:	005100                                    	simcall
8000091f:	7fc222                                    	addi	a2, a2, 127
80000922:	412720                                    	srli	a2, a2, 7
80000925:	112290                                    	slli	a2, a2, 7
80000928:	c01120                                    	sub	a1, a1, a2
8000092b:	032c                                    	movi.n	a3, 32
8000092d:	13e630                                    	wsr.ps	a3
80000930:	002010                                    	rsync
80000933:	ff6a41                                    	l32r	a4, 800006dc (0 <_Level2HandlerLabel>)
80000936:	002416                                    	beqz	a4, 8000093c <_start+0x28>
80000939:	0004c0                                    	callx0	a4

8000093c <_start+0x28>:
8000093c:	ff6941                                    	l32r	a4, 800006e0 (0 <_Level2HandlerLabel>)
8000093f:	f03d                                    	nop.n
80000941:	b48c                                    	beqz.n	a4, 80000950 <_start+0x3c>
80000943:	ff6821                                    	l32r	a2, 800006e4 (800006ac <__XT_EXCEPTION_DESCS_END__>)
80000946:	ff6831                                    	l32r	a3, 800006e8 (800006c4 <_bss_table_end>)
80000949:	0004c0                                    	callx0	a4
8000094c:	000746                                    	j	8000096d <_start+0x59>

8000094f <_start+0x3b>:
	...

80000950 <_start+0x3c>:
80000950:	ff6561                                    	l32r	a6, 800006e4 (800006ac <__XT_EXCEPTION_DESCS_END__>)
80000953:	ff6571                                    	l32r	a7, 800006e8 (800006c4 <_bss_table_end>)
80000956:	13b677                                    	bgeu	a6, a7, 8000096d <_start+0x59>

80000959 <_start+0x45>:
80000959:	eca322                                    	movi	a2, 0x3ec
8000095c:	0638                                    	l32i.n	a3, a6, 0
8000095e:	040c                                    	movi.n	a4, 0
80000960:	1658                                    	l32i.n	a5, a6, 4
80000962:	668b                                    	addi.n	a6, a6, 8
80000964:	c05530                                    	sub	a5, a5, a3
80000967:	005100                                    	simcall
8000096a:	eb3677                                    	bltu	a6, a7, 80000959 <_start+0x45>

8000096d <_start+0x59>:
8000096d:	203110                                    	or	a3, a1, a1
80000970:	eaa322                                    	movi	a2, 0x3ea
80000973:	005100                                    	simcall
80000976:	e8a322                                    	movi	a2, 0x3e8
80000979:	005100                                    	simcall
8000097c:	20c220                                    	or	a12, a2, a2
8000097f:	203110                                    	or	a3, a1, a1
80000982:	ff5a41                                    	l32r	a4, 800006ec (80007350 <_etext>)
80000985:	ff5a51                                    	l32r	a5, 800006f0 (800008f4 <_init>)
80000988:	ff5b61                                    	l32r	a6, 800006f4 (8000733c <_fini>)
8000098b:	01cf45                                    	call0	80002680 <__clibrary_init>
8000098e:	0c2d                                    	mov.n	a2, a12
80000990:	013d                                    	mov.n	a3, a1
80000992:	ff5641                                    	l32r	a4, 800006ec (80007350 <_etext>)
80000995:	000885                                    	call0	80000a20 <main>
80000998:	001a05                                    	call0	80000b3c <exit>

8000099b <_start+0x87>:
8000099b:	00000000 f0c11200                                .....

800009a0 <__do_global_dtors_aux>:
800009a0:	f0c112                                    	addi	a1, a1, -16
800009a3:	0109                                    	s32i.n	a0, a1, 0
800009a5:	ff5401                                    	l32r	a0, 800006f8 (80007700 <_bss_start>)
800009a8:	000022                                    	l8ui	a2, a0, 0
800009ab:	11c9                                    	s32i.n	a12, a1, 4
800009ad:	7000502cf22e                           	{ bnez	a2, 800009f0 <__do_global_dtors_aux+0x50>; l32i	a0, a1, 0 }
800009b3:	ff52c1                                    	l32r	a12, 800006fc (80007358 <p$9125_6_1>)
800009b6:	002c42                                    	l32i	a4, a12, 0
800009b9:	002432                                    	l32i	a3, a4, 0
800009bc:	c38c                                    	beqz.n	a3, 800009cc <__do_global_dtors_aux+0x2c>

800009be <__do_global_dtors_aux+0x1e>:
800009be:	444b                                    	addi.n	a4, a4, 4
800009c0:	0c49                                    	s32i.n	a4, a12, 0
800009c2:	0003c0                                    	callx0	a3
800009c5:	0c48                                    	l32i.n	a4, a12, 0
800009c7:	0438                                    	l32i.n	a3, a4, 0
800009c9:	ff1356                                    	bnez	a3, 800009be <__do_global_dtors_aux+0x1e>

800009cc <__do_global_dtors_aux+0x2c>:
800009cc:	ff4d51                                    	l32r	a5, 80000700 (0 <_Level2HandlerLabel>)
800009cf:	060c                                    	movi.n	a6, 0
800009d1:	700ab0b7650e                           	{ beq	a5, a6, 800009e0 <__do_global_dtors_aux+0x40>; l32i	a12, a1, 4 }
800009d7:	ff4b21                                    	l32r	a2, 80000704 (80000698 <__XT_EXCEPTION_TABLE__>)
800009da:	ff4901                                    	l32r	a0, 80000700 (0 <_Level2HandlerLabel>)
800009dd:	0000c0                                    	callx0	a0

800009e0 <__do_global_dtors_aux+0x40>:
800009e0:	ff4681                                    	l32r	a8, 800006f8 (80007700 <_bss_start>)
800009e3:	0108                                    	l32i.n	a0, a1, 0
800009e5:	170c                                    	movi.n	a7, 1
800009e7:	004872                                    	s8i	a7, a8, 0
800009ea:	56027044505e                           	{ ret; addi	a1, a1, 16 }

800009f0 <__do_global_dtors_aux+0x50>:
800009f0:	56027044505e                           	{ ret; addi	a1, a1, 16 }

800009f6 <__do_global_dtors_aux+0x56>:
	...

800009f8 <frame_dummy>:
800009f8:	f0c112                                    	addi	a1, a1, -16
800009fb:	0109                                    	s32i.n	a0, a1, 0
800009fd:	ff4201                                    	l32r	a0, 80000708 (0 <_Level2HandlerLabel>)
80000a00:	020c                                    	movi.n	a2, 0
80000a02:	0b1027                                    	beq	a0, a2, 80000a11 <frame_dummy+0x19>
80000a05:	ff3f21                                    	l32r	a2, 80000704 (80000698 <__XT_EXCEPTION_TABLE__>)
80000a08:	ff4131                                    	l32r	a3, 8000070c (80007704 <object$9144_8_1>)
80000a0b:	ff3f01                                    	l32r	a0, 80000708 (0 <_Level2HandlerLabel>)
80000a0e:	0000c0                                    	callx0	a0

80000a11 <frame_dummy+0x19>:
80000a11:	0108                                    	l32i.n	a0, a1, 0
80000a13:	56027044505e                           	{ ret; addi	a1, a1, 16 }

80000a19 <frame_dummy+0x21>:
80000a19:	00000000 12000000                                .......

80000a20 <main>:
80000a20:	f0c112                                    	addi	a1, a1, -16
80000a23:	0109                                    	s32i.n	a0, a1, 0
80000a25:	ff3a21                                    	l32r	a2, 80000710 (80000000 <_memmap_mem_sram_start>)
80000a28:	001bc5                                    	call0	80000be8 <printf>
80000a2b:	020c                                    	movi.n	a2, 0
80000a2d:	0108                                    	l32i.n	a0, a1, 0
80000a2f:	10c112                                    	addi	a1, a1, 16
80000a32:	f00d                                    	ret.n

80000a34 <main+0x14>:
	...

80000a40 <_Atrealloc>:
80000a40:	f0c112                                    	addi	a1, a1, -16
80000a43:	0361e2                                    	s32i	a14, a1, 12
80000a46:	ff33e1                                    	l32r	a14, 80000714 (8000735c <_Nats_143>)
80000a49:	006102                                    	s32i	a0, a1, 0
80000a4c:	700047504e0e                           	{ l32i	a4, a14, 4; l32i	a0, a14, 0 }
80000a52:	0261d2                                    	s32i	a13, a1, 8
80000a55:	0161c2                                    	s32i	a12, a1, 4
80000a58:	bdb0506c040e                           	{ beqz	a4, 80000acc <_Atrealloc+0x8c>; srli	a12, a0, 1 }
80000a5e:	802c00                                    	add	a2, a12, a0
80000a61:	aec37143249e                           	{ callx0	a4; slli	a2, a2, 2 }
80000a67:	be30d160128e                           	{ beqz	a2, 80000acc <_Atrealloc+0x8c>; or	a13, a2, a2 }
80000a6d:	ff2a41                                    	l32r	a4, 80000718 (80007720 <_Atcount0>)
80000a70:	002442                                    	l32i	a4, a4, 0
80000a73:	2e38                                    	l32i.n	a3, a14, 8
80000a75:	aad0129312ae                           	{ call0	80006ac0 <memcpy>; slli	a4, a4, 2 }
80000a7b:	7003c7413e4e                           	{ l32i	a3, a14, 8; l32i	a5, a14, 12 }
80000a81:	0e48                                    	l32i.n	a4, a14, 0
80000a83:	b0c9da245cfe                           	{ add	a2, a12, a5; addx4	a3, a5, a3 }
80000a89:	b4cf5953547e                           	{ sub	a4, a4, a5; addx4	a2, a2, a13 }
80000a8f:	aad012930cae                           	{ call0	80006ac0 <memcpy>; slli	a4, a4, 2 }
80000a95:	ff2141                                    	l32r	a4, 8000071c (80007730 <_Atdata_149>)
80000a98:	2e28                                    	l32i.n	a2, a14, 8
80000a9a:	061247                                    	beq	a2, a4, 80000aa4 <_Atrealloc+0x64>
80000a9d:	4e48                                    	l32i.n	a4, a14, 16
80000a9f:	148c                                    	beqz.n	a4, 80000aa4 <_Atrealloc+0x64>
80000aa1:	0004c0                                    	callx0	a4
80000aa4:	3e68                                    	l32i.n	a6, a14, 12
80000aa6:	0e58                                    	l32i.n	a5, a14, 0
80000aa8:	90004044018e                           	{ l32i	a0, a1, 0; movi	a2, 1 }
80000aae:	b093436bde0e                           	{ s32i	a13, a14, 8; add	a6, a6, a12 }
80000ab4:	b092c27f6e0e                           	{ s32i	a6, a14, 12; add	a5, a5, a12 }
80000aba:	7001406f5e4e                           	{ s32i	a5, a14, 0; l32i	a13, a1, 8 }
80000ac0:	7001c057c18e                           	{ l32i	a12, a1, 4; l32i	a14, a1, 12 }
80000ac6:	56027044505e                           	{ ret; addi	a1, a1, 16 }

80000acc <_Atrealloc+0x8c>:
80000acc:	0108                                    	l32i.n	a0, a1, 0
80000ace:	90004050c18e                           	{ l32i	a12, a1, 4; movi	a2, 0 }
80000ad4:	7003c047d18e                           	{ l32i	a13, a1, 8; l32i	a14, a1, 12 }
80000ada:	56027044505e                           	{ ret; addi	a1, a1, 16 }

80000ae0 <atexit>:
80000ae0:	f0c112                                    	addi	a1, a1, -16
80000ae3:	016102                                    	s32i	a0, a1, 4
80000ae6:	006122                                    	s32i	a2, a1, 0
80000ae9:	9000104cd3ae                           	{ call0	80002238 <_Locksyslock>; movi	a2, 1 }
80000aef:	ff0a21                                    	l32r	a2, 80000718 (80007720 <_Atcount0>)
80000af2:	ff0801                                    	l32r	a0, 80000714 (8000735c <_Nats_143>)
80000af5:	70024150508e                           	{ l32i	a5, a0, 12; l32i	a2, a2, 0 }
80000afb:	0e3257                                    	bltu	a2, a5, 80000b0d <atexit+0x2d>
80000afe:	fff405                                    	call0	80000a40 <_Atrealloc>
80000b01:	97f1d72d120e                           	{ beqz	a2, 80000b36 <atexit+0x56>; movi	a4, -1 }
80000b07:	ff0301                                    	l32r	a0, 80000714 (8000735c <_Nats_143>)
80000b0a:	032052                                    	l32i	a5, a0, 12

80000b0d <atexit+0x2d>:
80000b0d:	2068                                    	l32i.n	a6, a0, 8
80000b0f:	740e385445fe                           	{ addi	a4, a5, -1; l32i	a3, a1, 0 }
80000b15:	b0d24279408e                           	{ s32i	a4, a0, 12; addx4	a4, a4, a6 }
80000b1b:	90004069340e                           	{ s32i	a3, a4, 0; movi	a4, 0 }

80000b21 <atexit+0x41>:
80000b21:	026142                                    	s32i	a4, a1, 8
80000b24:	9000104cd6ae                           	{ call0	80002280 <_Unlocksyslock>; movi	a2, 1 }
80000b2a:	012102                                    	l32i	a0, a1, 4
80000b2d:	022122                                    	l32i	a2, a1, 8
80000b30:	56027044505e                           	{ ret; addi	a1, a1, 16 }

80000b36 <atexit+0x56>:
80000b36:	fff9c6                                    	j	80000b21 <atexit+0x41>

80000b39 <atexit+0x59>:
80000b39:	000000                                        ...

80000b3c <exit>:
80000b3c:	fef6c1                                    	l32r	a12, 80000714 (8000735c <_Nats_143>)
80000b3f:	f0c112                                    	addi	a1, a1, -16
80000b42:	ba30c168018e                           	{ s32i	a0, a1, 0; or	a13, a2, a2 }
80000b48:	7001c6402c0e                           	{ l32i	a2, a12, 0; l32i	a0, a12, 12 }
80000b4e:	1bb027                                    	bgeu	a0, a2, 80000b6d <exit+0x31>

80000b51 <exit+0x15>:
80000b51:	2c38                                    	l32i.n	a3, a12, 8
80000b53:	201b                                    	addi.n	a2, a0, 1
80000b55:	a00230                                    	addx4	a0, a2, a3
80000b58:	5bf3c0782c0e                           	{ s32i	a2, a12, 12; addmi	a0, a0, 0xffffff00 }
80000b5e:	3f2002                                    	l32i	a0, a0, 252
80000b61:	0000c0                                    	callx0	a0
80000b64:	7001c6404c0e                           	{ l32i	a4, a12, 0; l32i	a0, a12, 12 }
80000b6a:	e33047                                    	bltu	a0, a4, 80000b51 <exit+0x15>

80000b6d <exit+0x31>:
80000b6d:	feeae1                                    	l32r	a14, 80000718 (80007720 <_Atcount0>)
80000b70:	0e08                                    	l32i.n	a0, a14, 0
80000b72:	209c                                    	beqz.n	a0, 80000b88 <exit+0x4c>

80000b74 <exit+0x38>:
80000b74:	2c28                                    	l32i.n	a2, a12, 8
80000b76:	000b                                    	addi.n	a0, a0, -1
80000b78:	b0c040680e8e                           	{ s32i	a0, a14, 0; addx4	a0, a0, a2 }
80000b7e:	0008                                    	l32i.n	a0, a0, 0
80000b80:	0000c0                                    	callx0	a0
80000b83:	0e08                                    	l32i.n	a0, a14, 0
80000b85:	feb056                                    	bnez	a0, 80000b74 <exit+0x38>

80000b88 <exit+0x4c>:
80000b88:	fee5e1                                    	l32r	a14, 8000071c (80007730 <_Atdata_149>)
80000b8b:	022c22                                    	l32i	a2, a12, 8
80000b8e:	701836a1e20e                           	{ beq	a2, a14, 80000b9a <exit+0x5e>; l32i	a4, a12, 16 }
80000b94:	002416                                    	beqz	a4, 80000b9a <exit+0x5e>
80000b97:	0004c0                                    	callx0	a4
80000b9a:	90124068ecce                           	{ s32i	a14, a12, 8; movi	a3, 64 }
80000ba0:	006c32                                    	s32i	a3, a12, 0
80000ba3:	ba011607276e                           	{ call0	80000c40 <_Exit>; or	a2, a13, a13 }

80000ba9 <exit+0x6d>:
80000ba9:	00000000 12000000                                .......

80000bb0 <prout>:
80000bb0:	f0c112                                    	addi	a1, a1, -16
80000bb3:	21d9                                    	s32i.n	a13, a1, 8
80000bb5:	ba30c178c18e                           	{ s32i	a12, a1, 4; or	a13, a2, a2 }
80000bbb:	be0b59c444fe                           	{ or	a12, a4, a4; or	a2, a3, a3 }
80000bc1:	9000406c01ce                           	{ s32i	a0, a1, 0; movi	a3, 1 }
80000bc7:	0020f0                                    	nop
80000bca:	ba10966f816e                           	{ call0	800029d0 <fwrite>; or	a5, a13, a13 }
80000bd0:	be805103202e                           	{ movi	a2, 0; sub	a0, a2, a12 }
80000bd6:	b3814644010e                           	{ l32i	a0, a1, 0; moveqz	a2, a13, a0 }
80000bdc:	70014057c14e                           	{ l32i	a12, a1, 4; l32i	a13, a1, 8 }
80000be2:	56027044505e                           	{ ret; addi	a1, a1, 16 }

80000be8 <printf>:
80000be8:	558a58a4447e                           	{ or	a10, a4, a4; addi	a1, a1, -64 }
80000bee:	0a61a2                                    	s32i	a10, a1, 40
80000bf1:	076102                                    	s32i	a0, a1, 28
80000bf4:	900a427a510e                           	{ s32i	a5, a1, 44; movi	a8, 4 }
80000bfa:	066182                                    	s32i	a8, a1, 24
80000bfd:	d179                                    	s32i.n	a7, a1, 52
80000bff:	8129                                    	s32i.n	a2, a1, 32
80000c01:	9139                                    	s32i.n	a3, a1, 36
80000c03:	544e08c638fe                           	{ l32r	a3, 80000724 (800073b8 <_Stdout>); addi	a11, a1, 32 }
80000c09:	ba144178b18e                           	{ s32i	a11, a1, 20; or	a4, a2, a2 }
80000c0f:	5204406cb18e                           	{ s32i	a11, a1, 16; addi	a2, a1, 16 }
80000c15:	700d416961ce                           	{ s32i	a6, a1, 48; l32i	a7, a2, 8 }
80000c1b:	70004151624e                           	{ l32i	a6, a2, 4; l32i	a5, a2, 0 }
80000c21:	940e08a82f3e                           	{ l32r	a2, 80000720 (80000bb0 <prout>); movi	a0, 0 }
80000c27:	0109                                    	s32i.n	a0, a1, 0
80000c29:	000245                                    	call0	80000c50 <_Printf>
80000c2c:	7108                                    	l32i.n	a0, a1, 28
80000c2e:	54827044505e                           	{ ret; addi	a1, a1, 64 }

80000c34 <printf+0x4c>:
	...

80000c40 <_Exit>:
80000c40:	f0c112                                    	addi	a1, a1, -16
80000c43:	0109                                    	s32i.n	a0, a1, 0
80000c45:	04b285                                    	call0	80005770 <_exit>

80000c48 <_Exit+0x8>:
	...

80000c50 <_Printf>:
80000c50:	5fff88ac967e                           	{ l32r	a9, 80000728 (80000010 <_memmap_mem_sram_start+0x10>); addmi	a1, a1, 0xffffff00 }
80000c56:	3261d2                                    	s32i	a13, a1, 200
80000c59:	3361e2                                    	s32i	a14, a1, 204
80000c5c:	3c6162                                    	s32i	a6, a1, 240
80000c5f:	3d6172                                    	s32i	a7, a1, 244
80000c62:	306102                                    	s32i	a0, a1, 192
80000c65:	4129                                    	s32i.n	a2, a1, 16
80000c67:	5680407cc19e                           	{ s32i	a12, a1, 196; addi	a2, a1, 80 }
80000c6d:	ba344279310e                           	{ s32i	a3, a1, 20; or	a12, a4, a4 }
80000c73:	be1a4379519e                           	{ s32i	a5, a1, 236; or	a4, a6, a6 }
80000c79:	9404406bf1de                           	{ s32i	a15, a1, 208; movi	a15, 0 }
80000c7f:	6801446ef18e                           	{ s32i	a15, a1, 0; l16ui	a10, a9, 4 }
80000c85:	6803c466a14e                           	{ s16i	a10, a1, 4; l16ui	a9, a9, 6 }
80000c8b:	ba12c37591ce                           	{ s16i	a9, a1, 6; or	a5, a7, a7 }
80000c91:	7261904c87ee                           	{ call0	800022b0 <_Vacopy>; l32i	a3, a1, 236 }
80000c97:	708e407ef1ce                           	{ s32i	a15, a1, 60; l32i	a11, a1, 0x100 }
80000c9d:	4741b2                                    	s8i	a11, a1, 71
80000ca0:	000846                                    	j	80000cc5 <_Printf+0x75>

80000ca3 <_Printf+0x53>:
80000ca3:	000000                                        ...

80000ca6 <_Printf+0x56>:
	...

80000cae <_Printf+0x5e>:
80000cae:	00ea                                    	add.n	a0, a0, a14
80000cb0:	687f407c010e                           	{ s32i	a0, a1, 60; l16ui	a0, a1, 92 }

80000cb6 <_Printf+0x66>:
80000cb6:	90095accdcbe                           	{ add	a13, a12, a13; movi	a2, 37 }
80000cbc:	ba3c36a7207e                           	{ beq	a0, a2, 80000d2c <_Printf+0xdc>; or	a12, a13, a13 }
80000cc2:	11f016                                    	beqz	a0, 80000de5 <_Printf+0x195>

80000cc5 <_Printf+0x75>:
80000cc5:	52be4064f19e                           	{ s16i	a15, a1, 92; addi	a2, a1, 92 }
80000ccb:	be0f8e8b483e                           	{ l32r	a4, 8000072c (7fffffff <_memmap_cacheattr_bp_allvalid+0x3bbbbbbb>); or	a3, a12, a12 }
80000cd1:	ba1090c4c96e                           	{ call0	80003ff8 <_Mbtowc>; or	a5, a1, a1 }
80000cd7:	2e1102                                    	l16ui	a0, a1, 92
80000cda:	ba32e11832ae                           	{ blti	a2, 1, 80000d21 <_Printf+0xd1>; or	a13, a2, a2 }

80000ce0 <_Printf+0x90>:
80000ce0:	dbc042                                    	addi	a4, a0, -37
80000ce3:	57fbdee4ddfe                           	{ or	a14, a13, a13; addi	a3, a13, -1 }
80000ce9:	83e340                                    	moveqz	a14, a3, a4
80000cec:	c61ea6                                    	blti	a14, 1, 80000cb6 <_Printf+0x66>
80000cef:	4108                                    	l32i.n	a0, a1, 16
80000cf1:	741ad82cccbe                           	{ or	a3, a12, a12; l32i	a2, a1, 20 }
80000cf7:	be127743209e                           	{ callx0	a0; or	a4, a14, a14 }
80000cfd:	7035c07c210e                           	{ s32i	a2, a1, 20; l32i	a0, a1, 60 }
80000d03:	fa7256                                    	bnez	a2, 80000cae <_Printf+0x5e>

80000d06 <_Printf+0xb6>:
80000d06:	97f1c744019e                           	{ l32i	a0, a1, 192; movi	a2, -1 }
80000d0c:	76414057c15e                           	{ l32i	a12, a1, 196; l32i	a13, a1, 200 }
80000d12:	76524057e1de                           	{ l32i	a14, a1, 204; l32i	a15, a1, 208 }
80000d18:	5c02f044505e                           	{ ret; addmi	a1, a1, 0x100 }

80000d1e <_Printf+0xce>:
80000d1e:	000000                                        ...

80000d21 <_Printf+0xd1>:
80000d21:	000cd2                                    	l8ui	a13, a12, 0
80000d24:	120c                                    	movi.n	a2, 1
80000d26:	bc3e91fbb65e                           	{ j	80000ce0 <_Printf+0x90>; movnez	a13, a2, a13 }

80000d2c <_Printf+0xdc>:
80000d2c:	030c                                    	movi.n	a3, 0
80000d2e:	d139                                    	s32i.n	a3, a1, 52
80000d30:	92711307138e                           	{ j	80000d47 <_Printf+0xf7>; movi	a14, 0x3e7 }

80000d36 <_Printf+0xe6>:
80000d36:	00000000 42000000                                .......

80000d3d <_Printf+0xed>:
80000d3d:	0d6142                                    	s32i	a4, a1, 52
80000d40:	61c802cec34e0f                               	{ blt.w15	a14, a4, 80000f36 <_Printf+0x2e6>; addi	a12, a12, 1 }

80000d47 <_Printf+0xf7>:
80000d47:	020785                                    	call0	80002dc0 <_Getpctype>
80000d4a:	000c32                                    	l8ui	a3, a12, 0
80000d4d:	0d2142                                    	l32i	a4, a1, 52
80000d50:	905320                                    	addx2	a5, a3, a2
80000d53:	009552                                    	l16si	a5, a5, 0
80000d56:	a04440                                    	addx4	a4, a4, a4
80000d59:	904430                                    	addx2	a4, a4, a3
80000d5c:	578c3a31552e                           	{ bbsi	a5, 5, 80000d3d <_Printf+0xed>; addi	a4, a4, -48 }

80000d62 <_Printf+0x112>:
80000d62:	5400d623642e                           	{ movi	a6, 36; addi	a12, a12, 1 }
80000d68:	81c830d084630f                               	{ beq.w15	a3, a6, 80000f40 <_Printf+0x2f0>; l32i	a0, a1, 52 }

80000d6f <_Printf+0x11f>:
80000d6f:	ba3c467ff14e                           	{ s32i	a15, a1, 52; or	a12, a13, a13 }

80000d75 <_Printf+0x125>:
80000d75:	fe6e21                                    	l32r	a2, 80000730 (80000040 <fchar$8689_1_16>)
80000d78:	2251f2                                    	s16i	a15, a1, 68
80000d7b:	0761f2                                    	s32i	a15, a1, 28
80000d7e:	0861f2                                    	s32i	a15, a1, 32
80000d81:	0961f2                                    	s32i	a15, a1, 36
80000d84:	0a61f2                                    	s32i	a15, a1, 40
80000d87:	b1f9                                    	s32i.n	a15, a1, 44
80000d89:	900c426df10e                           	{ s32i	a15, a1, 48; movi	a4, 5 }
80000d8f:	7800167890ee                           	{ call0	80006bd0 <memchr>; l8ui	a3, a12, 0 }
80000d95:	72ac                                    	beqz.n	a2, 80000dc0 <_Printf+0x170>
80000d97:	fe66d1                                    	l32r	a13, 80000730 (80000040 <fchar$8689_1_16>)
80000d9a:	e0cde2                                    	addi	a14, a13, -32

80000d9d <_Printf+0x14d>:
80000d9d:	c082d0                                    	sub	a8, a2, a13
80000da0:	684b5885e8fe                           	{ addx4	a8, a8, a14; l16ui	a7, a1, 68 }
80000da6:	0888                                    	l32i.n	a8, a8, 0
80000da8:	05a042                                    	movi	a4, 5
80000dab:	540ade6b873e                           	{ or	a7, a7, a8; addi	a12, a12, 1 }
80000db1:	ba034667715e                           	{ s16i	a7, a1, 68; or	a2, a13, a13 }
80000db7:	7800167886ee                           	{ call0	80006bd0 <memchr>; l8ui	a3, a12, 0 }
80000dbd:	fdc256                                    	bnez	a2, 80000d9d <_Printf+0x14d>

80000dc0 <_Printf+0x170>:
80000dc0:	7211404c9c0e                           	{ l8ui	a9, a12, 0; l32i	a0, a1, 88 }
80000dc6:	9401550ab8ae                           	{ movi	a11, 24; movi	a10, 42 }
80000dcc:	501c4010a91e                           	{ bne	a9, a10, 80000dfd <_Printf+0x1ad>; addi	a0, a0, 4 }
80000dd2:	7616c06c01ce                           	{ s32i	a0, a1, 88; l32i	a3, a1, 84 }
80000dd8:	a0c002eec10bcf                               	{ blt.w15	a11, a0, 80000ed6 <_Printf+0x286>; movi	a7, 28 }
80000ddf:	003f86                                    	j	80000ee1 <_Printf+0x291>

80000de2 <_Printf+0x192>:
80000de2:	000000                                        ...

80000de5 <_Printf+0x195>:
80000de5:	7431c044019e                           	{ l32i	a0, a1, 192; l32i	a2, a1, 60 }
80000deb:	76414057c15e                           	{ l32i	a12, a1, 196; l32i	a13, a1, 200 }
80000df1:	76524057e1de                           	{ l32i	a14, a1, 204; l32i	a15, a1, 208 }
80000df7:	5c02f044505e                           	{ ret; addmi	a1, a1, 0x100 }

80000dfd <_Printf+0x1ad>:
80000dfd:	1061f2                                    	s32i	a15, a1, 64
80000e00:	0020f0                                    	nop
80000e03:	01fbc5                                    	call0	80002dc0 <_Getpctype>
80000e06:	000c32                                    	l8ui	a3, a12, 0
80000e09:	902320                                    	addx2	a2, a3, a2
80000e0c:	009222                                    	l16si	a2, a2, 0
80000e0f:	fe49d1                                    	l32r	a13, 80000734 (7ffffffe <_memmap_cacheattr_bp_allvalid+0x3bbbbbba>)
80000e12:	236257                                    	bbci	a2, 5, 80000e39 <_Printf+0x1e9>

80000e15 <_Printf+0x1c5>:
80000e15:	102102                                    	l32i	a0, a1, 64
80000e18:	b0da30d80d0e                           	{ blt	a13, a0, 80000e27 <_Printf+0x1d7>; addx4	a4, a0, a0 }
80000e1e:	904430                                    	addx2	a4, a4, a3
80000e21:	d0c442                                    	addi	a4, a4, -48
80000e24:	106142                                    	s32i	a4, a1, 64

80000e27 <_Printf+0x1d7>:
80000e27:	5000966be62e                           	{ call0	80002dc0 <_Getpctype>; addi	a12, a12, 1 }
80000e2d:	000c32                                    	l8ui	a3, a12, 0
80000e30:	905320                                    	addx2	a5, a3, a2
80000e33:	009552                                    	l16si	a5, a5, 0
80000e36:	dbe557                                    	bbsi	a5, 5, 80000e15 <_Printf+0x1c5>
80000e39:	e62c                                    	movi.n	a6, 46
80000e3b:	e084027490638f                               	{ beq.w15	a3, a6, 80000efc <_Printf+0x2ac>; nop }

80000e42 <_Printf+0x1f2>:
80000e42:	f77c                                    	movi.n	a7, -1
80000e44:	e179                                    	s32i.n	a7, a1, 56
80000e46:	000c32                                    	l8ui	a3, a12, 0

80000e49 <_Printf+0x1f9>:
80000e49:	fe3b21                                    	l32r	a2, 80000738 (800005b8 <_Zero+0x8>)
80000e4c:	0020f0                                    	nop
80000e4f:	05e205                                    	call0	80006c70 <strchr>
80000e52:	941154caa20e                           	{ beqz	a2, 80000f30 <_Printf+0x2e0>; movi	a8, 104 }
80000e58:	000c02                                    	l8ui	a0, a12, 0
80000e5b:	6ca092                                    	movi	a9, 108
80000e5e:	90174483016e                           	{ s8i	a0, a1, 70; movi	a13, 104 }
80000e64:	614800a683800f                               	{ beq.w15	a0, a8, 80000fb0 <_Printf+0x360>; addi	a12, a12, 1 }

80000e6b <_Printf+0x21b>:
80000e6b:	a140115e9090cf                               	{ beq.w15	a0, a9, 80000fc6 <_Printf+0x376>; movi	a3, 108 }

80000e72 <_Printf+0x222>:
80000e72:	d108                                    	l32i.n	a0, a1, 52
80000e74:	e8c4006418308f                               	{ blti.w15	a0, 1, 80000f51 <_Printf+0x301>; nop }
80000e7b:	52803045217e                           	{ addi	a2, a1, 96; addi	a5, a1, 80 }
80000e81:	53f1c041358e                           	{ l32i	a3, a5, 0; addi	a6, a0, -1 }
80000e87:	700cc27d610e                           	{ s32i	a6, a1, 52; l32i	a4, a5, 4 }
80000e8d:	7001124d086e                           	{ call0	800022b0 <_Vacopy>; l32i	a5, a5, 8 }
80000e93:	5020304431be                           	{ addi	a3, a1, 96; addi	a2, a1, 8 }
80000e99:	52c0404d4c4e                           	{ l8ui	a4, a12, 0; addi	a5, a1, 112 }
80000e9f:	0020f0                                    	nop
80000ea2:	50009603672e                           	{ call0	80001040 <_Putfld>; addi	a12, a12, 1 }
80000ea8:	52dc                                    	bnez.n	a2, 80000ec1 <_Printf+0x271>

80000eaa <_Printf+0x25a>:
80000eaa:	218b                                    	addi.n	a2, a1, 8
80000eac:	52c0104408ee                           	{ call0	80001ed0 <_Puttxt>; addi	a3, a1, 112 }
80000eb2:	e0f2d6                                    	bgez	a2, 80000cc5 <_Printf+0x75>
80000eb5:	ff9346                                    	j	80000d06 <_Printf+0xb6>

80000eb8 <_Printf+0x268>:
	...

80000ec1 <_Printf+0x271>:
80000ec1:	302102                                    	l32i	a0, a1, 192
80000ec4:	76414057c15e                           	{ l32i	a12, a1, 196; l32i	a13, a1, 200 }
80000eca:	76524057e1de                           	{ l32i	a14, a1, 204; l32i	a15, a1, 208 }
80000ed0:	5c02f044505e                           	{ ret; addmi	a1, a1, 0x100 }

80000ed6 <_Printf+0x286>:
80000ed6:	721630dc07ce                           	{ blt	a7, a0, 80000ee1 <_Printf+0x291>; l32i	a3, a1, 80 }
80000edc:	402c                                    	movi.n	a0, 36
80000ede:	166102                                    	s32i	a0, a1, 88

80000ee1 <_Printf+0x291>:
80000ee1:	003a                                    	add.n	a0, a0, a3
80000ee3:	ffd002                                    	addmi	a0, a0, 0xffffff00
80000ee6:	3f2002                                    	l32i	a0, a0, 252
80000ee9:	106102                                    	s32i	a0, a1, 64
80000eec:	940157e020de                           	{ bltz	a0, 80000fd2 <_Printf+0x382>; movi	a3, 46 }

80000ef2 <_Printf+0x2a2>:
80000ef2:	010c22                                    	l8ui	a2, a12, 1
80000ef5:	67780ca6f3320f                               	{ bne.w15	a2, a3, 80000e42 <_Printf+0x1f2>; addi	a12, a12, 1 }

80000efc <_Printf+0x2ac>:
80000efc:	010c32                                    	l8ui	a3, a12, 1
80000eff:	940155215d2e                           	{ movi	a5, 45; movi	a4, 42 }
80000f05:	60c8029e93430f                               	{ beq.w15	a3, a4, 80000ff0 <_Printf+0x3a0>; addi	a12, a12, 1 }
80000f0c:	a0c0005893534f                               	{ beq.w15	a3, a5, 80000fe7 <_Printf+0x397>; movi	a13, 0 }

80000f13 <_Printf+0x2c3>:
80000f13:	e1f9                                    	s32i.n	a15, a1, 56
80000f15:	01ea85                                    	call0	80002dc0 <_Getpctype>
80000f18:	000c32                                    	l8ui	a3, a12, 0
80000f1b:	906320                                    	addx2	a6, a3, a2
80000f1e:	009662                                    	l16si	a6, a6, 0
80000f21:	4734fe9003564f                               	{ bbci.w15	a6, 5, 80000e49 <_Printf+0x1f9>; extui	a13, a13, 0, 8 }
80000f28:	001506                                    	j	80000f80 <_Printf+0x330>

80000f2b <_Printf+0x2db>:
80000f2b:	000000                                        ...

80000f2e <_Printf+0x2de>:
	...

80000f30 <_Printf+0x2e0>:
80000f30:	4641f2                                    	s8i	a15, a1, 70
80000f33:	ffcec6                                    	j	80000e72 <_Printf+0x222>

80000f36 <_Printf+0x2e6>:
80000f36:	7c0e16f028de                           	{ j	80000d62 <_Printf+0x112>; l8ui	a3, a12, 0 }

80000f3c <_Printf+0x2ec>:
80000f3c:	00000000                                ....

80000f40 <_Printf+0x2f0>:
80000f40:	ae327f2b1d30cf                               	{ blti.w15	a0, 1, 80000d6f <_Printf+0x11f>; movi	a7, 0x3e7 }
80000f47:	e6340e2ca0078f                               	{ bge.w15	a7, a0, 80000d75 <_Printf+0x125>; nop }
80000f4e:	ff8746                                    	j	80000d6f <_Printf+0x11f>

80000f51 <_Printf+0x301>:
80000f51:	5420304431ae                           	{ addi	a3, a1, 80; addi	a2, a1, 8 }
80000f57:	52c0404d4c4e                           	{ l8ui	a4, a12, 0; addi	a5, a1, 112 }
80000f5d:	50009603382e                           	{ call0	80001040 <_Putfld>; addi	a12, a12, 1 }
80000f63:	f43216                                    	beqz	a2, 80000eaa <_Printf+0x25a>
80000f66:	302102                                    	l32i	a0, a1, 192
80000f69:	76414057c15e                           	{ l32i	a12, a1, 196; l32i	a13, a1, 200 }
80000f6f:	76524057e1de                           	{ l32i	a14, a1, 204; l32i	a15, a1, 208 }
80000f75:	5c02f044505e                           	{ ret; addmi	a1, a1, 0x100 }

80000f7b <_Printf+0x32b>:
80000f7b:	000000                                        ...

80000f7e <_Printf+0x32e>:
	...

80000f80 <_Printf+0x330>:
80000f80:	7031500c3d2e                           	{ bnez	a13, 80000f97 <_Printf+0x347>; l32i	a0, a1, 56 }
80000f86:	fdeb81                                    	l32r	a8, 80000734 (7ffffffe <_memmap_cacheattr_bp_allvalid+0x3bbbbbba>)
80000f89:	0a2807                                    	blt	a8, a0, 80000f97 <_Printf+0x347>
80000f8c:	a09000                                    	addx4	a9, a0, a0
80000f8f:	909930                                    	addx2	a9, a9, a3
80000f92:	d0c992                                    	addi	a9, a9, -48
80000f95:	e199                                    	s32i.n	a9, a1, 56
80000f97:	5000966b8a2e                           	{ call0	80002dc0 <_Getpctype>; addi	a12, a12, 1 }
80000f9d:	000c32                                    	l8ui	a3, a12, 0
80000fa0:	90a320                                    	addx2	a10, a3, a2
80000fa3:	009aa2                                    	l16si	a10, a10, 0
80000fa6:	d6ea57                                    	bbsi	a10, 5, 80000f80 <_Printf+0x330>
80000fa9:	ffa706                                    	j	80000e49 <_Printf+0x1f9>

80000fac <_Printf+0x35c>:
80000fac:	000000                                        ...

80000faf <_Printf+0x35f>:
	...

80000fb0 <_Printf+0x360>:
80000fb0:	000cb2                                    	l8ui	a11, a12, 0
80000fb3:	e6b40e54e0db8f                               	{ bne.w15	a11, a13, 80000e6b <_Printf+0x21b>; nop }
80000fba:	62a0e2                                    	movi	a14, 98
80000fbd:	4641e2                                    	s8i	a14, a1, 70
80000fc0:	540e96f3ae1e                           	{ j	80000e72 <_Printf+0x222>; addi	a12, a12, 1 }

80000fc6 <_Printf+0x376>:
80000fc6:	000c22                                    	l8ui	a2, a12, 0
80000fc9:	5a1237                                    	beq	a2, a3, 80001027 <_Printf+0x3d7>
80000fcc:	464102                                    	s8i	a0, a1, 70
80000fcf:	ffa7c6                                    	j	80000e72 <_Printf+0x222>

80000fd2 <_Printf+0x382>:
80000fd2:	221142                                    	l16ui	a4, a1, 68
80000fd5:	94047261035e                           	{ neg	a6, a0; movi	a5, 4 }
80000fdb:	be104269614e                           	{ s32i	a6, a1, 64; or	a4, a4, a5 }
80000fe1:	225142                                    	s16i	a4, a1, 68
80000fe4:	ffc286                                    	j	80000ef2 <_Printf+0x2a2>

80000fe7 <_Printf+0x397>:
80000fe7:	03dd                                    	mov.n	a13, a3
80000fe9:	540e96fb261e                           	{ j	80000f13 <_Printf+0x2c3>; addi	a12, a12, 1 }

80000fef <_Printf+0x39f>:
	...

80000ff0 <_Printf+0x3a0>:
80000ff0:	162102                                    	l32i	a0, a1, 88
80000ff3:	004b                                    	addi.n	a0, a0, 4
80000ff5:	9406c46901ce                           	{ s32i	a0, a1, 88; movi	a7, 24 }
80000ffb:	072707                                    	blt	a7, a0, 80001006 <_Printf+0x3b6>
80000ffe:	7210900411ce                           	{ j	80001013 <_Printf+0x3c3>; l32i	a3, a1, 84 }

80001004 <_Printf+0x3b4>:
	...

80001006 <_Printf+0x3b6>:
80001006:	c21c                                    	movi.n	a2, 28
80001008:	042207                                    	blt	a2, a0, 80001010 <_Printf+0x3c0>
8000100b:	402c                                    	movi.n	a0, 36
8000100d:	166102                                    	s32i	a0, a1, 88

80001010 <_Printf+0x3c0>:
80001010:	142132                                    	l32i	a3, a1, 80

80001013 <_Printf+0x3c3>:
80001013:	303a                                    	add.n	a3, a0, a3
80001015:	ffd332                                    	addmi	a3, a3, 0xffffff00
80001018:	3f2332                                    	l32i	a3, a3, 252
8000101b:	500ec66b310e                           	{ s32i	a3, a1, 56; addi	a12, a12, 1 }
80001021:	7c0e16f024de                           	{ j	80000e49 <_Printf+0x1f9>; l8ui	a3, a12, 0 }

80001027 <_Printf+0x3d7>:
80001027:	71a042                                    	movi	a4, 113
8000102a:	464142                                    	s8i	a4, a1, 70
8000102d:	540e96f3411e                           	{ j	80000e72 <_Printf+0x222>; addi	a12, a12, 1 }

80001033 <_Printf+0x3e3>:
	...

80001040 <_Putfld>:
80001040:	9411d06eb46e                           	{ movi	a11, 116; movi	a9, 113 }
80001046:	941155628cae                           	{ movi	a8, 108; movi	a10, 106 }
8000104c:	9010ba4111be                           	{ addi	a1, a1, -32; movi	a6, 84 }
80001052:	ba32c279d10e                           	{ s32i	a13, a1, 12; or	a13, a4, a4 }
80001058:	9000c479010e                           	{ s32i	a0, a1, 4; movi	a4, 24 }
8000105e:	9004c268e10e                           	{ s32i	a14, a1, 16; movi	a0, 20 }
80001064:	ba33426dc14e                           	{ s32i	a12, a1, 8; or	a14, a5, a5 }
8000106a:	be3a39502dae                           	{ addi	a2, a13, -37; or	a12, a2, a2 }
80001070:	93fdb4d1624e                           	{ bgeu	a2, a6, 80001081 <_Putfld+0x41>; movi	a5, -8 }
80001076:	fdb171                                    	l32r	a7, 8000073c (80000050 <__switchjump_table_xp_temp_0_13_112>)
80001079:	a07270                                    	addx4	a7, a2, a7
8000107c:	0778                                    	l32i.n	a7, a7, 0
8000107e:	0007a0                                    	jx	a7

80001081 <_Putfld+0x41>:
80001081:	5c98                                    	l32i.n	a9, a12, 20
80001083:	90013256a90e                           	{ addi	a10, a9, 1; movi	a8, 37 }
80001089:	b0a4c47fac8e                           	{ s32i	a10, a12, 20; add	a9, a9, a14 }
8000108f:	004982                                    	s8i	a8, a9, 0
80001092:	940450087d8e                           	{ beqz	a13, 800014ad <_Putfld+0x46d>; movi	a2, 0 }
80001098:	5cb8                                    	l32i.n	a11, a12, 20
8000109a:	b0a1b5570b8e                           	{ addi	a0, a11, 1; add	a11, a11, a14 }
800010a0:	7004c07c0c0e                           	{ s32i	a0, a12, 20; l32i	a0, a1, 4 }
800010a6:	70054047e10e                           	{ l32i	a14, a1, 16; l32i	a12, a1, 8 }
800010ac:	7001c087db4e                           	{ s8i	a13, a11, 0; l32i	a13, a1, 12 }
800010b2:	54427044505e                           	{ ret; addi	a1, a1, 32 }

800010b8 <_Putfld+0x78>:
800010b8:	3e0c62                                    	l8ui	a6, a12, 62
800010bb:	452c                                    	movi.n	a5, 36
800010bd:	838827fe90868f                               	{ beq.w15	a6, a8, 80001880 <_Putfld+0x840>; l32i	a2, a12, 44 }
800010c4:	e9840a2c00a28f                               	{ bltz.w15	a2, 80001a72 <_Putfld+0xa32>; nop }

800010cb <_Putfld+0x8b>:
800010cb:	2388                                    	l32i.n	a8, a3, 8
800010cd:	284b                                    	addi.n	a2, a8, 4
800010cf:	2329                                    	s32i.n	a2, a3, 8
800010d1:	7004b1dd80ce                           	{ blt	a0, a8, 800010da <_Putfld+0x9a>; l32i	a7, a3, 4 }
800010d7:	000286                                    	j	800010e5 <_Putfld+0xa5>

800010da <_Putfld+0x9a>:
800010da:	052487                                    	blt	a4, a8, 800010e3 <_Putfld+0xa3>
800010dd:	90034268538e                           	{ s32i	a5, a3, 8; movi	a2, 36 }

800010e3 <_Putfld+0xa3>:
800010e3:	0378                                    	l32i.n	a7, a3, 0

800010e5 <_Putfld+0xa5>:
800010e5:	bc88                                    	l32i.n	a8, a12, 44
800010e7:	227a                                    	add.n	a2, a2, a7
800010e9:	ffd222                                    	addmi	a2, a2, 0xffffff00
800010ec:	57ffc452221e                           	{ l32i	a2, a2, 252; addi	a8, a8, -1 }
800010f2:	bc89                                    	s32i.n	a8, a12, 44
800010f4:	fd38d6                                    	bgez	a8, 800010cb <_Putfld+0x8b>
800010f7:	5c48                                    	l32i.n	a4, a12, 20
800010f9:	1108                                    	l32i.n	a0, a1, 4
800010fb:	7001b057544e                           	{ addi	a5, a4, 1; l32i	a13, a1, 12 }
80001101:	b0944243e18e                           	{ l32i	a14, a1, 16; add	a4, a4, a14 }
80001107:	7005407f5c0e                           	{ s32i	a5, a12, 20; l32i	a12, a1, 8 }
8000110d:	90004080248e                           	{ s8i	a2, a4, 0; movi	a2, 0 }
80001113:	54427044505e                           	{ ret; addi	a1, a1, 32 }

80001119 <_Putfld+0xd9>:
80001119:	bc58                                    	l32i.n	a5, a12, 44
8000111b:	e8c40a6400a58f                               	{ bltz.w15	a5, 80001a17 <_Putfld+0x9d7>; nop }
80001122:	452c                                    	movi.n	a5, 36

80001124 <_Putfld+0xe4>:
80001124:	2388                                    	l32i.n	a8, a3, 8
80001126:	284b                                    	addi.n	a2, a8, 4
80001128:	2329                                    	s32i.n	a2, a3, 8
8000112a:	7004b1dd80ce                           	{ blt	a0, a8, 80001133 <_Putfld+0xf3>; l32i	a7, a3, 4 }
80001130:	000286                                    	j	8000113e <_Putfld+0xfe>

80001133 <_Putfld+0xf3>:
80001133:	052487                                    	blt	a4, a8, 8000113c <_Putfld+0xfc>
80001136:	90034268538e                           	{ s32i	a5, a3, 8; movi	a2, 36 }

8000113c <_Putfld+0xfc>:
8000113c:	0378                                    	l32i.n	a7, a3, 0

8000113e <_Putfld+0xfe>:
8000113e:	bc68                                    	l32i.n	a6, a12, 44
80001140:	227a                                    	add.n	a2, a2, a7
80001142:	ffd222                                    	addmi	a2, a2, 0xffffff00
80001145:	57ffc351229e                           	{ l32i	a2, a2, 252; addi	a6, a6, -1 }
8000114b:	bc69                                    	s32i.n	a6, a12, 44
8000114d:	fd36d6                                    	bgez	a6, 80001124 <_Putfld+0xe4>
80001150:	014c06                                    	j	80001684 <_Putfld+0x644>

80001153 <_Putfld+0x113>:
80001153:	3f0c52                                    	l8ui	a5, a12, 63
80001156:	5e0516                                    	beqz	a5, 8000173a <_Putfld+0x6fa>
80001159:	97fd8f7f293e                           	{ l32r	a2, 80000740 (800005c0 <_Zero+0x10>); movi	a12, -1 }
8000115f:	0020f0                                    	nop
80001162:	ba0192492c2e                           	{ call0	80002614 <_Fail_s>; or	a3, a4, a4 }
80001168:	1108                                    	l32i.n	a0, a1, 4
8000116a:	70124057d18e                           	{ l32i	a13, a1, 12; l32i	a14, a1, 16 }
80001170:	ba834640c18e                           	{ l32i	a12, a1, 8; sub	a2, a12, a2 }
80001176:	54427044505e                           	{ ret; addi	a1, a1, 32 }

8000117c <_Putfld+0x13c>:
8000117c:	bc68                                    	l32i.n	a6, a12, 44
8000117e:	e944083c00a68f                               	{ bltz.w15	a6, 80001ad0 <_Putfld+0xa90>; nop }

80001185 <_Putfld+0x145>:
80001185:	3e0c22                                    	l8ui	a2, a12, 62
80001188:	2358                                    	l32i.n	a5, a3, 8
8000118a:	271287                                    	beq	a2, a8, 800011b5 <_Putfld+0x175>
8000118d:	4f1297                                    	beq	a2, a9, 800011e0 <_Putfld+0x1a0>
80001190:	a080118281a2cf                               	{ beq.w15	a2, a10, 80001214 <_Putfld+0x1d4>; movi	a7, 116 }
80001197:	a08013b59272cf                               	{ beq.w15	a2, a7, 80001248 <_Putfld+0x208>; movi	a11, 122 }
8000119e:	e0c4003c80b28f                               	{ beq.w15	a2, a11, 80001270 <_Putfld+0x230>; nop }
800011a5:	254b                                    	addi.n	a2, a5, 4
800011a7:	2329                                    	s32i.n	a2, a3, 8
800011a9:	e0c40224c0508f                               	{ blt.w15	a0, a5, 80001295 <_Putfld+0x255>; nop }
800011b0:	1358                                    	l32i.n	a5, a3, 4
800011b2:	003b06                                    	j	800012a2 <_Putfld+0x262>

800011b5 <_Putfld+0x175>:
800011b5:	254b                                    	addi.n	a2, a5, 4
800011b7:	2329                                    	s32i.n	a2, a3, 8
800011b9:	042057                                    	blt	a0, a5, 800011c1 <_Putfld+0x181>
800011bc:	1358                                    	l32i.n	a5, a3, 4
800011be:	000306                                    	j	800011ce <_Putfld+0x18e>

800011c1 <_Putfld+0x181>:
800011c1:	072457                                    	blt	a4, a5, 800011cc <_Putfld+0x18c>
800011c4:	422c                                    	movi.n	a2, 36
800011c6:	90034268238e                           	{ s32i	a2, a3, 8; movi	a2, 36 }

800011cc <_Putfld+0x18c>:
800011cc:	0358                                    	l32i.n	a5, a3, 0

800011ce <_Putfld+0x18e>:
800011ce:	225a                                    	add.n	a2, a2, a5
800011d0:	ffd222                                    	addmi	a2, a2, 0xffffff00
800011d3:	3f2222                                    	l32i	a2, a2, 252
800011d6:	b2509704d38e                           	{ j	800012ad <_Putfld+0x26d>; srai	a5, a2, 31 }

800011dc <_Putfld+0x19c>:
800011dc:	00000000                                ....

800011e0 <_Putfld+0x1a0>:
800011e0:	93f7b451558e                           	{ addi	a5, a5, 7; movi	a6, -8 }
800011e6:	105560                                    	and	a5, a5, a6
800011e9:	258b                                    	addi.n	a2, a5, 8
800011eb:	9002c069238e                           	{ s32i	a2, a3, 8; movi	a6, 16 }
800011f1:	042657                                    	blt	a6, a5, 800011f9 <_Putfld+0x1b9>
800011f4:	1358                                    	l32i.n	a5, a3, 4
800011f6:	000306                                    	j	80001206 <_Putfld+0x1c6>

800011f9 <_Putfld+0x1b9>:
800011f9:	072457                                    	blt	a4, a5, 80001204 <_Putfld+0x1c4>
800011fc:	872c                                    	movi.n	a7, 40
800011fe:	90034468738e                           	{ s32i	a7, a3, 8; movi	a2, 40 }

80001204 <_Putfld+0x1c4>:
80001204:	0358                                    	l32i.n	a5, a3, 0

80001206 <_Putfld+0x1c6>:
80001206:	225a                                    	add.n	a2, a2, a5
80001208:	ffd222                                    	addmi	a2, a2, 0xffffff00
8000120b:	3f2252                                    	l32i	a5, a2, 252
8000120e:	727111009b8e                           	{ j	800012ad <_Putfld+0x26d>; l32i	a2, a2, 248 }

80001214 <_Putfld+0x1d4>:
80001214:	93f7b451558e                           	{ addi	a5, a5, 7; movi	a6, -8 }
8000121a:	105560                                    	and	a5, a5, a6
8000121d:	258b                                    	addi.n	a2, a5, 8
8000121f:	9002c069238e                           	{ s32i	a2, a3, 8; movi	a6, 16 }
80001225:	042657                                    	blt	a6, a5, 8000122d <_Putfld+0x1ed>
80001228:	1358                                    	l32i.n	a5, a3, 4
8000122a:	000306                                    	j	8000123a <_Putfld+0x1fa>

8000122d <_Putfld+0x1ed>:
8000122d:	072457                                    	blt	a4, a5, 80001238 <_Putfld+0x1f8>
80001230:	872c                                    	movi.n	a7, 40
80001232:	90034468738e                           	{ s32i	a7, a3, 8; movi	a2, 40 }

80001238 <_Putfld+0x1f8>:
80001238:	0358                                    	l32i.n	a5, a3, 0

8000123a <_Putfld+0x1fa>:
8000123a:	225a                                    	add.n	a2, a2, a5
8000123c:	ffd222                                    	addmi	a2, a2, 0xffffff00
8000123f:	3f2252                                    	l32i	a5, a2, 252
80001242:	72711100678e                           	{ j	800012ad <_Putfld+0x26d>; l32i	a2, a2, 248 }

80001248 <_Putfld+0x208>:
80001248:	254b                                    	addi.n	a2, a5, 4
8000124a:	2329                                    	s32i.n	a2, a3, 8
8000124c:	052057                                    	blt	a0, a5, 80001255 <_Putfld+0x215>
8000124f:	1358                                    	l32i.n	a5, a3, 4
80001251:	000346                                    	j	80001262 <_Putfld+0x222>

80001254 <_Putfld+0x214>:
	...

80001255 <_Putfld+0x215>:
80001255:	072457                                    	blt	a4, a5, 80001260 <_Putfld+0x220>
80001258:	452c                                    	movi.n	a5, 36
8000125a:	90034268538e                           	{ s32i	a5, a3, 8; movi	a2, 36 }

80001260 <_Putfld+0x220>:
80001260:	0358                                    	l32i.n	a5, a3, 0

80001262 <_Putfld+0x222>:
80001262:	225a                                    	add.n	a2, a2, a5
80001264:	ffd222                                    	addmi	a2, a2, 0xffffff00
80001267:	3f2222                                    	l32i	a2, a2, 252
8000126a:	b25097043f8e                           	{ j	800012ad <_Putfld+0x26d>; srai	a5, a2, 31 }

80001270 <_Putfld+0x230>:
80001270:	254b                                    	addi.n	a2, a5, 4
80001272:	2329                                    	s32i.n	a2, a3, 8
80001274:	042057                                    	blt	a0, a5, 8000127c <_Putfld+0x23c>
80001277:	1358                                    	l32i.n	a5, a3, 4
80001279:	000306                                    	j	80001289 <_Putfld+0x249>

8000127c <_Putfld+0x23c>:
8000127c:	072457                                    	blt	a4, a5, 80001287 <_Putfld+0x247>
8000127f:	452c                                    	movi.n	a5, 36
80001281:	90034268538e                           	{ s32i	a5, a3, 8; movi	a2, 36 }

80001287 <_Putfld+0x247>:
80001287:	0358                                    	l32i.n	a5, a3, 0

80001289 <_Putfld+0x249>:
80001289:	225a                                    	add.n	a2, a2, a5
8000128b:	ffd222                                    	addmi	a2, a2, 0xffffff00
8000128e:	3f2222                                    	l32i	a2, a2, 252
80001291:	000546                                    	j	800012aa <_Putfld+0x26a>

80001294 <_Putfld+0x254>:
	...

80001295 <_Putfld+0x255>:
80001295:	072457                                    	blt	a4, a5, 800012a0 <_Putfld+0x260>
80001298:	452c                                    	movi.n	a5, 36
8000129a:	90034268538e                           	{ s32i	a5, a3, 8; movi	a2, 36 }

800012a0 <_Putfld+0x260>:
800012a0:	0358                                    	l32i.n	a5, a3, 0

800012a2 <_Putfld+0x262>:
800012a2:	225a                                    	add.n	a2, a2, a5
800012a4:	ffd222                                    	addmi	a2, a2, 0xffffff00
800012a7:	3f2222                                    	l32i	a2, a2, 252

800012aa <_Putfld+0x26a>:
800012aa:	315f20                                    	srai	a5, a2, 31

800012ad <_Putfld+0x26d>:
800012ad:	bc68                                    	l32i.n	a6, a12, 44
800012af:	1c59                                    	s32i.n	a5, a12, 4
800012b1:	53f1c3692c8e                           	{ s32i	a2, a12, 0; addi	a6, a6, -1 }
800012b7:	bc69                                    	s32i.n	a6, a12, 44
800012b9:	ba2fd1c0869e                           	{ bgez	a6, 80001185 <_Putfld+0x145>; or	a11, a2, a2 }
800012bf:	90111428550e                           	{ j	80001618 <_Putfld+0x5d8>; movi	a0, 104 }

800012c5 <_Putfld+0x285>:
800012c5:	bc78                                    	l32i.n	a7, a12, 44
800012c7:	28f796                                    	bltz	a7, 8000155a <_Putfld+0x51a>

800012ca <_Putfld+0x28a>:
800012ca:	3e0c22                                    	l8ui	a2, a12, 62
800012cd:	2358                                    	l32i.n	a5, a3, 8
800012cf:	231287                                    	beq	a2, a8, 800012f6 <_Putfld+0x2b6>
800012d2:	4a1297                                    	beq	a2, a9, 80001320 <_Putfld+0x2e0>
800012d5:	7b12a7                                    	beq	a2, a10, 80001354 <_Putfld+0x314>
800012d8:	a08013b581b28f                               	{ beq.w15	a2, a11, 80001388 <_Putfld+0x348>; movi	a6, 122 }
800012df:	e0c4003490628f                               	{ beq.w15	a2, a6, 800013b0 <_Putfld+0x370>; nop }
800012e6:	254b                                    	addi.n	a2, a5, 4
800012e8:	2329                                    	s32i.n	a2, a3, 8
800012ea:	e0c4022cc0508f                               	{ blt.w15	a0, a5, 800013d8 <_Putfld+0x398>; nop }
800012f1:	1358                                    	l32i.n	a5, a3, 4
800012f3:	003b86                                    	j	800013e5 <_Putfld+0x3a5>

800012f6 <_Putfld+0x2b6>:
800012f6:	254b                                    	addi.n	a2, a5, 4
800012f8:	2329                                    	s32i.n	a2, a3, 8
800012fa:	052057                                    	blt	a0, a5, 80001303 <_Putfld+0x2c3>
800012fd:	1358                                    	l32i.n	a5, a3, 4
800012ff:	000346                                    	j	80001310 <_Putfld+0x2d0>

80001302 <_Putfld+0x2c2>:
	...

80001303 <_Putfld+0x2c3>:
80001303:	072457                                    	blt	a4, a5, 8000130e <_Putfld+0x2ce>
80001306:	472c                                    	movi.n	a7, 36
80001308:	90034268738e                           	{ s32i	a7, a3, 8; movi	a2, 36 }

8000130e <_Putfld+0x2ce>:
8000130e:	0358                                    	l32i.n	a5, a3, 0

80001310 <_Putfld+0x2d0>:
80001310:	225a                                    	add.n	a2, a2, a5
80001312:	940e3859227e                           	{ addmi	a2, a2, 0xffffff00; movi	a5, 0 }
80001318:	72719100d48e                           	{ j	800013f0 <_Putfld+0x3b0>; l32i	a2, a2, 252 }

8000131e <_Putfld+0x2de>:
	...

80001320 <_Putfld+0x2e0>:
80001320:	93f7b451558e                           	{ addi	a5, a5, 7; movi	a6, -8 }
80001326:	105560                                    	and	a5, a5, a6
80001329:	258b                                    	addi.n	a2, a5, 8
8000132b:	9002c069238e                           	{ s32i	a2, a3, 8; movi	a6, 16 }
80001331:	042657                                    	blt	a6, a5, 80001339 <_Putfld+0x2f9>
80001334:	1358                                    	l32i.n	a5, a3, 4
80001336:	000306                                    	j	80001346 <_Putfld+0x306>

80001339 <_Putfld+0x2f9>:
80001339:	072457                                    	blt	a4, a5, 80001344 <_Putfld+0x304>
8000133c:	872c                                    	movi.n	a7, 40
8000133e:	90034468738e                           	{ s32i	a7, a3, 8; movi	a2, 40 }

80001344 <_Putfld+0x304>:
80001344:	0358                                    	l32i.n	a5, a3, 0

80001346 <_Putfld+0x306>:
80001346:	225a                                    	add.n	a2, a2, a5
80001348:	ffd222                                    	addmi	a2, a2, 0xffffff00
8000134b:	3f2252                                    	l32i	a5, a2, 252
8000134e:	727111009e8e                           	{ j	800013f0 <_Putfld+0x3b0>; l32i	a2, a2, 248 }

80001354 <_Putfld+0x314>:
80001354:	93f7b451558e                           	{ addi	a5, a5, 7; movi	a6, -8 }
8000135a:	105560                                    	and	a5, a5, a6
8000135d:	258b                                    	addi.n	a2, a5, 8
8000135f:	9002c069238e                           	{ s32i	a2, a3, 8; movi	a6, 16 }
80001365:	042657                                    	blt	a6, a5, 8000136d <_Putfld+0x32d>
80001368:	1358                                    	l32i.n	a5, a3, 4
8000136a:	000306                                    	j	8000137a <_Putfld+0x33a>

8000136d <_Putfld+0x32d>:
8000136d:	072457                                    	blt	a4, a5, 80001378 <_Putfld+0x338>
80001370:	872c                                    	movi.n	a7, 40
80001372:	90034468738e                           	{ s32i	a7, a3, 8; movi	a2, 40 }

80001378 <_Putfld+0x338>:
80001378:	0358                                    	l32i.n	a5, a3, 0

8000137a <_Putfld+0x33a>:
8000137a:	225a                                    	add.n	a2, a2, a5
8000137c:	ffd222                                    	addmi	a2, a2, 0xffffff00
8000137f:	3f2252                                    	l32i	a5, a2, 252
80001382:	727111006a8e                           	{ j	800013f0 <_Putfld+0x3b0>; l32i	a2, a2, 248 }

80001388 <_Putfld+0x348>:
80001388:	254b                                    	addi.n	a2, a5, 4
8000138a:	2329                                    	s32i.n	a2, a3, 8
8000138c:	052057                                    	blt	a0, a5, 80001395 <_Putfld+0x355>
8000138f:	1358                                    	l32i.n	a5, a3, 4
80001391:	000346                                    	j	800013a2 <_Putfld+0x362>

80001394 <_Putfld+0x354>:
	...

80001395 <_Putfld+0x355>:
80001395:	072457                                    	blt	a4, a5, 800013a0 <_Putfld+0x360>
80001398:	452c                                    	movi.n	a5, 36
8000139a:	90034268538e                           	{ s32i	a5, a3, 8; movi	a2, 36 }

800013a0 <_Putfld+0x360>:
800013a0:	0358                                    	l32i.n	a5, a3, 0

800013a2 <_Putfld+0x362>:
800013a2:	225a                                    	add.n	a2, a2, a5
800013a4:	940e3859227e                           	{ addmi	a2, a2, 0xffffff00; movi	a5, 0 }
800013aa:	72719100428e                           	{ j	800013f0 <_Putfld+0x3b0>; l32i	a2, a2, 252 }

800013b0 <_Putfld+0x370>:
800013b0:	254b                                    	addi.n	a2, a5, 4
800013b2:	2329                                    	s32i.n	a2, a3, 8
800013b4:	042057                                    	blt	a0, a5, 800013bc <_Putfld+0x37c>
800013b7:	1358                                    	l32i.n	a5, a3, 4
800013b9:	000306                                    	j	800013c9 <_Putfld+0x389>

800013bc <_Putfld+0x37c>:
800013bc:	072457                                    	blt	a4, a5, 800013c7 <_Putfld+0x387>
800013bf:	452c                                    	movi.n	a5, 36
800013c1:	90034268538e                           	{ s32i	a5, a3, 8; movi	a2, 36 }

800013c7 <_Putfld+0x387>:
800013c7:	0358                                    	l32i.n	a5, a3, 0

800013c9 <_Putfld+0x389>:
800013c9:	225a                                    	add.n	a2, a2, a5
800013cb:	940e3859227e                           	{ addmi	a2, a2, 0xffffff00; movi	a5, 0 }
800013d1:	727191001b8e                           	{ j	800013f0 <_Putfld+0x3b0>; l32i	a2, a2, 252 }

800013d7 <_Putfld+0x397>:
	...

800013d8 <_Putfld+0x398>:
800013d8:	072457                                    	blt	a4, a5, 800013e3 <_Putfld+0x3a3>
800013db:	452c                                    	movi.n	a5, 36
800013dd:	90034268538e                           	{ s32i	a5, a3, 8; movi	a2, 36 }

800013e3 <_Putfld+0x3a3>:
800013e3:	0358                                    	l32i.n	a5, a3, 0

800013e5 <_Putfld+0x3a5>:
800013e5:	225a                                    	add.n	a2, a2, a5
800013e7:	ffd222                                    	addmi	a2, a2, 0xffffff00
800013ea:	940e4051225e                           	{ l32i	a2, a2, 252; movi	a5, 0 }

800013f0 <_Putfld+0x3b0>:
800013f0:	bc68                                    	l32i.n	a6, a12, 44
800013f2:	1c59                                    	s32i.n	a5, a12, 4
800013f4:	53f1c3692c8e                           	{ s32i	a2, a12, 0; addi	a6, a6, -1 }
800013fa:	bc69                                    	s32i.n	a6, a12, 44
800013fc:	eca6d6                                    	bgez	a6, 800012ca <_Putfld+0x28a>
800013ff:	0055c6                                    	j	8000155a <_Putfld+0x51a>

80001402 <_Putfld+0x3c2>:
	...

80001403 <_Putfld+0x3c3>:
80001403:	940f42818c5e                           	{ s8i	a8, a12, 62; movi	a5, 36 }
80001409:	ba011402070e                           	{ j	80001414 <_Putfld+0x3d4>; or	a2, a8, a8 }

8000140f <_Putfld+0x3cf>:
8000140f:	3e0c22                                    	l8ui	a2, a12, 62
80001412:	452c                                    	movi.n	a5, 36

80001414 <_Putfld+0x3d4>:
80001414:	bc98                                    	l32i.n	a9, a12, 44
80001416:	e3c4020c90828f                               	{ beq.w15	a2, a8, 800017fd <_Putfld+0x7bd>; nop }
8000141d:	3aa996                                    	bltz	a9, 800017cb <_Putfld+0x78b>

80001420 <_Putfld+0x3e0>:
80001420:	2388                                    	l32i.n	a8, a3, 8
80001422:	284b                                    	addi.n	a2, a8, 4
80001424:	2329                                    	s32i.n	a2, a3, 8
80001426:	700ab1dd80ce                           	{ blt	a0, a8, 80001435 <_Putfld+0x3f5>; l32i	a7, a3, 4 }
8000142c:	000406                                    	j	80001440 <_Putfld+0x400>

8000142f <_Putfld+0x3ef>:
8000142f:	00000000 24870000                                ......

80001435 <_Putfld+0x3f5>:
80001435:	052487                                    	blt	a4, a8, 8000143e <_Putfld+0x3fe>
80001438:	90034268538e                           	{ s32i	a5, a3, 8; movi	a2, 36 }

8000143e <_Putfld+0x3fe>:
8000143e:	0378                                    	l32i.n	a7, a3, 0

80001440 <_Putfld+0x400>:
80001440:	7029de22723e                           	{ add	a2, a2, a7; l32i	a8, a12, 44 }
80001446:	ffd222                                    	addmi	a2, a2, 0xffffff00
80001449:	3f2222                                    	l32i	a2, a2, 252
8000144c:	53f5c46a2c0e                           	{ s32i	a2, a12, 16; addi	a8, a8, -1 }
80001452:	bc89                                    	s32i.n	a8, a12, 44
80001454:	fc88d6                                    	bgez	a8, 80001420 <_Putfld+0x3e0>
80001457:	375216                                    	beqz	a2, 800017d0 <_Putfld+0x790>

8000145a <_Putfld+0x41a>:
8000145a:	cc48                                    	l32i.n	a4, a12, 48
8000145c:	3d3496                                    	bltz	a4, 80001833 <_Putfld+0x7f3>
8000145f:	90001058dcee                           	{ call0	80006bd0 <memchr>; movi	a3, 0 }
80001465:	72cc                                    	bnez.n	a2, 80001470 <_Putfld+0x430>
80001467:	703016000a8e                           	{ j	80001475 <_Putfld+0x435>; l32i	a2, a12, 48 }

8000146d <_Putfld+0x42d>:
8000146d:	000000                                        ...

80001470 <_Putfld+0x430>:
80001470:	4c38                                    	l32i.n	a3, a12, 16
80001472:	c02230                                    	sub	a2, a2, a3

80001475 <_Putfld+0x435>:
80001475:	1e1c02                                    	l16ui	a0, a12, 60
80001478:	7c29                                    	s32i.n	a2, a12, 28
8000147a:	703e3611401e                           	{ bbci	a0, 4, 800014ad <_Putfld+0x46d>; l32i	a4, a12, 48 }
80001480:	e244025cb0428f                               	{ bge.w15	a2, a4, 800016fb <_Putfld+0x6bb>; nop }
80001487:	31d8                                    	l32i.n	a13, a1, 12
80001489:	ba90c250018e                           	{ l32i	a0, a1, 4; sub	a5, a4, a2 }
8000148f:	7410500720ae                           	{ movi	a2, 0; l32i	a14, a1, 16 }
80001495:	7007406f5c0e                           	{ s32i	a5, a12, 24; l32i	a12, a1, 8 }
8000149b:	54427044505e                           	{ ret; addi	a1, a1, 32 }

800014a1 <_Putfld+0x461>:
	...

800014a2 <_Putfld+0x462>:
800014a2:	0c2d                                    	mov.n	a2, a12
800014a4:	ba0193252aee                           	{ call0	80001d50 <_Putstr>; or	a3, a7, a7 }
800014aa:	420296                                    	bltz	a2, 800018ce <_Putfld+0x88e>

800014ad <_Putfld+0x46d>:
800014ad:	1108                                    	l32i.n	a0, a1, 4
800014af:	90024040c18e                           	{ l32i	a12, a1, 8; movi	a2, 0 }
800014b5:	70124057d18e                           	{ l32i	a13, a1, 12; l32i	a14, a1, 16 }
800014bb:	54427044505e                           	{ ret; addi	a1, a1, 32 }

800014c1 <_Putfld+0x481>:
800014c1:	000000                                        ...

800014c4 <_Putfld+0x484>:
800014c4:	bc68                                    	l32i.n	a6, a12, 44
800014c6:	940154eaa65e                           	{ bltz	a6, 800015c4 <_Putfld+0x584>; movi	a9, 40 }
800014cc:	c84c                                    	movi.n	a8, 76

800014ce <_Putfld+0x48e>:
800014ce:	2308                                    	l32i.n	a0, a3, 8
800014d0:	3e0c72                                    	l8ui	a7, a12, 62
800014d3:	9006b051008e                           	{ addi	a0, a0, 7; movi	a6, 16 }
800014d9:	b10e30a1874e                           	{ beq	a7, a8, 800014eb <_Putfld+0x4ab>; and	a0, a0, a5 }
800014df:	208b                                    	addi.n	a2, a0, 8
800014e1:	2329                                    	s32i.n	a2, a3, 8
800014e3:	292607                                    	blt	a6, a0, 80001510 <_Putfld+0x4d0>
800014e6:	1308                                    	l32i.n	a0, a3, 4
800014e8:	000bc6                                    	j	8000151b <_Putfld+0x4db>

800014eb <_Putfld+0x4ab>:
800014eb:	208b                                    	addi.n	a2, a0, 8
800014ed:	9002c06923ce                           	{ s32i	a2, a3, 8; movi	a7, 16 }
800014f3:	042707                                    	blt	a7, a0, 800014fb <_Putfld+0x4bb>
800014f6:	1308                                    	l32i.n	a0, a3, 4
800014f8:	000286                                    	j	80001506 <_Putfld+0x4c6>

800014fb <_Putfld+0x4bb>:
800014fb:	052407                                    	blt	a4, a0, 80001504 <_Putfld+0x4c4>
800014fe:	90034468938e                           	{ s32i	a9, a3, 8; movi	a2, 40 }

80001504 <_Putfld+0x4c4>:
80001504:	0308                                    	l32i.n	a0, a3, 0

80001506 <_Putfld+0x4c6>:
80001506:	a20a                                    	add.n	a10, a2, a0
80001508:	29c0150317ce                           	{ j	80001523 <_Putfld+0x4e3>; pdx_ls_64_i	v0, a10, -8 }

8000150e <_Putfld+0x4ce>:
	...

80001510 <_Putfld+0x4d0>:
80001510:	052407                                    	blt	a4, a0, 80001519 <_Putfld+0x4d9>
80001513:	90034468938e                           	{ s32i	a9, a3, 8; movi	a2, 40 }

80001519 <_Putfld+0x4d9>:
80001519:	0308                                    	l32i.n	a0, a3, 0

8000151b <_Putfld+0x4db>:
8000151b:	b20a                                    	add.n	a11, a2, a0
8000151d:	c4cea000fb5e                           	{ pdx_ls_64_i	v0, a11, -8; nop }

80001523 <_Putfld+0x4e3>:
80001523:	bc08                                    	l32i.n	a0, a12, 44
80001525:	53f1a8000c0e                           	{ pdx_ss_64_i	v0, a12, 0; addi	a0, a0, -1 }
8000152b:	bc09                                    	s32i.n	a0, a12, 44
8000152d:	f9d0d6                                    	bgez	a0, 800014ce <_Putfld+0x48e>
80001530:	002406                                    	j	800015c4 <_Putfld+0x584>

80001533 <_Putfld+0x4f3>:
	...

80001534 <_Putfld+0x4f4>:
80001534:	5c38                                    	l32i.n	a3, a12, 20
80001536:	7001c057014e                           	{ l32i	a0, a1, 4; l32i	a13, a1, 12 }
8000153c:	90013254438e                           	{ addi	a4, a3, 1; movi	a2, 37 }
80001542:	b085c147e18e                           	{ l32i	a14, a1, 16; add	a3, a3, a14 }
80001548:	7005407f4c0e                           	{ s32i	a4, a12, 20; l32i	a12, a1, 8 }
8000154e:	90004080238e                           	{ s8i	a2, a3, 0; movi	a2, 0 }
80001554:	54427044505e                           	{ ret; addi	a1, a1, 32 }

8000155a <_Putfld+0x51a>:
8000155a:	3e0c22                                    	l8ui	a2, a12, 62
8000155d:	68a052                                    	movi	a5, 104
80001560:	e384005490528f                               	{ beq.w15	a2, a5, 800018f9 <_Putfld+0x8b9>; nop }
80001567:	62a062                                    	movi	a6, 98
8000156a:	e384027490628f                               	{ beq.w15	a2, a6, 8000192b <_Putfld+0x8eb>; nop }

80001571 <_Putfld+0x531>:
80001571:	1e1c72                                    	l16ui	a7, a12, 60
80001574:	256737                                    	bbci	a7, 3, 8000159d <_Putfld+0x55d>
80001577:	7000c6428c4e                           	{ l32i	a8, a12, 0; l32i	a9, a12, 4 }
8000157d:	1a0c                                    	movi.n	a10, 1
8000157f:	bc245d8a9a3e                           	{ movnez	a9, a10, a9; movnez	a8, a10, a8 }
80001585:	208890                                    	or	a8, a8, a9
80001588:	189c                                    	beqz.n	a8, 8000159d <_Putfld+0x55d>
8000158a:	78a0b2                                    	movi	a11, 120
8000158d:	e384021c90bd8f                               	{ beq.w15	a13, a11, 80001938 <_Putfld+0x8f8>; nop }
80001594:	805c                                    	movi.n	a0, 88
80001596:	e384007c800d8f                               	{ beq.w15	a13, a0, 80001938 <_Putfld+0x8f8>; nop }

8000159d <_Putfld+0x55d>:
8000159d:	052c22                                    	l32i	a2, a12, 20
800015a0:	8022e0                                    	add	a2, a2, a14
800015a3:	ba05c66f2c4e                           	{ s32i	a2, a12, 16; or	a3, a13, a13 }
800015a9:	ba0116832d2e                           	{ call0	80003660 <_Litob>; or	a2, a12, a12 }
800015af:	012102                                    	l32i	a0, a1, 4
800015b2:	90024040c18e                           	{ l32i	a12, a1, 8; movi	a2, 0 }
800015b8:	70124057d18e                           	{ l32i	a13, a1, 12; l32i	a14, a1, 16 }
800015be:	54427044505e                           	{ ret; addi	a1, a1, 32 }

800015c4 <_Putfld+0x584>:
800015c4:	0020f0                                    	nop
800015c7:	ba011663642e                           	{ call0	80002f58 <_LPmsw>; or	a2, a12, a12 }
800015cd:	009232                                    	l16si	a3, a2, 0
800015d0:	335396                                    	bltz	a3, 80001909 <_Putfld+0x8c9>
800015d3:	1e1c02                                    	l16ui	a0, a12, 60
800015d6:	e1c4005c00108f                               	{ bbci.w15	a0, 1, 800017b0 <_Putfld+0x770>; nop }
800015dd:	5c58                                    	l32i.n	a5, a12, 20
800015df:	90013555650e                           	{ addi	a6, a5, 1; movi	a4, 43 }
800015e5:	b094c27f6c8e                           	{ s32i	a6, a12, 20; add	a5, a5, a14 }
800015eb:	004542                                    	s8i	a4, a5, 0

800015ee <_Putfld+0x5ae>:
800015ee:	052c72                                    	l32i	a7, a12, 20
800015f1:	8077e0                                    	add	a7, a7, a14
800015f4:	ba05466b7c0e                           	{ s32i	a7, a12, 16; or	a2, a12, a12 }
800015fa:	ba019667596e                           	{ call0	80002f60 <_Ldtob>; or	a3, a13, a13 }
80001600:	012102                                    	l32i	a0, a1, 4
80001603:	90024040c18e                           	{ l32i	a12, a1, 8; movi	a2, 0 }
80001609:	70124057d18e                           	{ l32i	a13, a1, 12; l32i	a14, a1, 16 }
8000160f:	54427044505e                           	{ ret; addi	a1, a1, 32 }

80001615 <_Putfld+0x5d5>:
80001615:	000000                                        ...

80001618 <_Putfld+0x5d8>:
80001618:	3e0c22                                    	l8ui	a2, a12, 62
8000161b:	a2c000308002cf                               	{ beq.w15	a2, a0, 800018eb <_Putfld+0x8ab>; movi	a3, 0 }
80001622:	62a082                                    	movi	a8, 98
80001625:	e2c4025480828f                               	{ beq.w15	a2, a8, 8000191d <_Putfld+0x8dd>; nop }
8000162c:	74a092                                    	movi	a9, 116
8000162f:	e204021c90928f                               	{ beq.w15	a2, a9, 8000185a <_Putfld+0x81a>; nop }
80001636:	7aa0a2                                    	movi	a10, 122
80001639:	e204007490a28f                               	{ beq.w15	a2, a10, 8000185a <_Putfld+0x81a>; nop }

80001640 <_Putfld+0x600>:
80001640:	aa80007808350f                               	{ blti.w15	a5, 1, 800018e2 <_Putfld+0x8a2>; movi	a0, 0 }

80001647 <_Putfld+0x607>:
80001647:	1f1016                                    	beqz	a0, 8000183c <_Putfld+0x7fc>
8000164a:	5c08                                    	l32i.n	a0, a12, 20
8000164c:	9001365620ce                           	{ addi	a2, a0, 1; movi	a11, 45 }
80001652:	b084407b2c8e                           	{ s32i	a2, a12, 20; add	a0, a0, a14 }
80001658:	0040b2                                    	s8i	a11, a0, 0

8000165b <_Putfld+0x61b>:
8000165b:	5c38                                    	l32i.n	a3, a12, 20
8000165d:	0c2d                                    	mov.n	a2, a12
8000165f:	b085c147e18e                           	{ l32i	a14, a1, 16; add	a3, a3, a14 }
80001665:	7005406f3c0e                           	{ s32i	a3, a12, 16; l32i	a12, a1, 8 }
8000166b:	ba01966ffd6e                           	{ call0	80003660 <_Litob>; or	a3, a13, a13 }
80001671:	1108                                    	l32i.n	a0, a1, 4
80001673:	90024050d18e                           	{ l32i	a13, a1, 12; movi	a2, 0 }
80001679:	54427044505e                           	{ ret; addi	a1, a1, 32 }

8000167f <_Putfld+0x63f>:
8000167f:	000000                                        ...

80001682 <_Putfld+0x642>:
	...

80001684 <_Putfld+0x644>:
80001684:	9000406d2c4e                           	{ s32i	a2, a12, 0; movi	a5, 1 }
8000168a:	94045821253e                           	{ movnez	a2, a5, a2; movi	a4, 0 }
80001690:	bc105205502e                           	{ movi	a5, 0; movnez	a4, a5, a4 }
80001696:	ba1041795c0e                           	{ s32i	a5, a12, 4; or	a4, a2, a4 }
8000169c:	04ac                                    	beqz.n	a4, 800016c0 <_Putfld+0x680>
8000169e:	5ca8                                    	l32i.n	a10, a12, 20
800016a0:	9001b052ba4e                           	{ addi	a11, a10, 1; movi	a9, 48 }
800016a6:	b0a5457bbc8e                           	{ s32i	a11, a12, 20; add	a10, a10, a14 }
800016ac:	004a92                                    	s8i	a9, a10, 0
800016af:	5c78                                    	l32i.n	a7, a12, 20
800016b1:	9011b451878e                           	{ addi	a8, a7, 1; movi	a6, 120 }
800016b7:	b095c37f8c8e                           	{ s32i	a8, a12, 20; add	a7, a7, a14 }
800016bd:	004762                                    	s8i	a6, a7, 0

800016c0 <_Putfld+0x680>:
800016c0:	6a354650dc0e                           	{ l32i	a13, a12, 20; l16ui	a0, a12, 60 }
800016c6:	9400550820ee                           	{ movi	a2, 16; movi	a3, 10 }
800016cc:	901fc4683cce                           	{ s32i	a3, a12, 56; movi	a3, 120 }
800016d2:	b4bade0720be                           	{ or	a0, a0, a2; add	a13, a13, a14 }
800016d8:	ba05466bdc0e                           	{ s32i	a13, a12, 16; or	a2, a12, a12 }
800016de:	740fc0670c4e                           	{ s16i	a0, a12, 60; l32i	a13, a1, 12 }
800016e4:	7001106fde2e                           	{ call0	80003660 <_Litob>; l32i	a12, a1, 8 }
800016ea:	1108                                    	l32i.n	a0, a1, 4
800016ec:	90044040e18e                           	{ l32i	a14, a1, 16; movi	a2, 0 }
800016f2:	54427044505e                           	{ ret; addi	a1, a1, 32 }

800016f8 <_Putfld+0x6b8>:
800016f8:	000000                                        ...

800016fb <_Putfld+0x6bb>:
800016fb:	dae4d6                                    	bgez	a4, 800014ad <_Putfld+0x46d>
800016fe:	461c                                    	movi.n	a6, 20
80001700:	106060                                    	and	a6, a0, a6
80001703:	edb40e1ca8568f                               	{ bnei.w15	a6, 16, 800014ad <_Putfld+0x46d>; nop }
8000170a:	703546504c0e                           	{ l32i	a4, a12, 20; l32i	a0, a12, 56 }
80001710:	6c38                                    	l32i.n	a3, a12, 24
80001712:	c00040                                    	sub	a0, a0, a4
80001715:	c00030                                    	sub	a0, a0, a3
80001718:	c00020                                    	sub	a0, a0, a2
8000171b:	edb40c3c08308f                               	{ blti.w15	a0, 1, 800014ad <_Putfld+0x46d>; nop }
80001722:	7006c06c0c0e                           	{ s32i	a0, a12, 24; l32i	a0, a1, 4 }
80001728:	90024050d18e                           	{ l32i	a13, a1, 12; movi	a2, 0 }
8000172e:	70054047e10e                           	{ l32i	a14, a1, 16; l32i	a12, a1, 8 }
80001734:	54427044505e                           	{ ret; addi	a1, a1, 32 }

8000173a <_Putfld+0x6fa>:
8000173a:	3e0c52                                    	l8ui	a5, a12, 62
8000173d:	62a062                                    	movi	a6, 98
80001740:	820823c680658f                               	{ beq.w15	a5, a6, 80001974 <_Putfld+0x934>; l32i	a2, a12, 44 }
80001747:	e244025c90958f                               	{ beq.w15	a5, a9, 800019c2 <_Putfld+0x982>; nop }
8000174e:	e2c4002c90a58f                               	{ beq.w15	a5, a10, 80001a1d <_Putfld+0x9dd>; nop }
80001755:	e304027c90b58f                               	{ beq.w15	a5, a11, 80001a98 <_Putfld+0xa58>; nop }
8000175c:	7aa072                                    	movi	a7, 122
8000175f:	e384004c90758f                               	{ beq.w15	a5, a7, 80001af6 <_Putfld+0xab6>; nop }
80001766:	68a092                                    	movi	a9, 104
80001769:	e3c4005c90958f                               	{ beq.w15	a5, a9, 80001b44 <_Putfld+0xb04>; nop }
80001770:	e004061c80858f                               	{ beq.w15	a5, a8, 80001b9a <_Putfld+0xb5a>; nop }
80001777:	4a9296                                    	bltz	a2, 80001c24 <_Putfld+0xbe4>

8000177a <_Putfld+0x73a>:
8000177a:	2358                                    	l32i.n	a5, a3, 8
8000177c:	254b                                    	addi.n	a2, a5, 4
8000177e:	2329                                    	s32i.n	a2, a3, 8
80001780:	052057                                    	blt	a0, a5, 80001789 <_Putfld+0x749>
80001783:	700091050f4e                           	{ j	80001796 <_Putfld+0x756>; l32i	a5, a3, 4 }

80001789 <_Putfld+0x749>:
80001789:	072457                                    	blt	a4, a5, 80001794 <_Putfld+0x754>
8000178c:	4a2c                                    	movi.n	a10, 36
8000178e:	90034268a38e                           	{ s32i	a10, a3, 8; movi	a2, 36 }

80001794 <_Putfld+0x754>:
80001794:	0358                                    	l32i.n	a5, a3, 0

80001796 <_Putfld+0x756>:
80001796:	bcb8                                    	l32i.n	a11, a12, 44
80001798:	225a                                    	add.n	a2, a2, a5
8000179a:	ffd222                                    	addmi	a2, a2, 0xffffff00
8000179d:	57ffc55622de                           	{ l32i	a2, a2, 252; addi	a11, a11, -1 }
800017a3:	bcb9                                    	s32i.n	a11, a12, 44
800017a5:	fd1bd6                                    	bgez	a11, 8000177a <_Putfld+0x73a>
800017a8:	478216                                    	beqz	a2, 80001c24 <_Putfld+0xbe4>
800017ab:	002d86                                    	j	80001865 <_Putfld+0x825>

800017ae <_Putfld+0x76e>:
	...

800017b0 <_Putfld+0x770>:
800017b0:	e6340e6c00008f                               	{ bbci.w15	a0, 0, 800015ee <_Putfld+0x5ae>; nop }
800017b7:	5c48                                    	l32i.n	a4, a12, 20
800017b9:	9001305054ce                           	{ addi	a5, a4, 1; movi	a3, 32 }
800017bf:	b094427b5c8e                           	{ s32i	a5, a12, 20; add	a4, a4, a14 }
800017c5:	004432                                    	s8i	a3, a4, 0
800017c8:	ff8886                                    	j	800015ee <_Putfld+0x5ae>

800017cb <_Putfld+0x78b>:
800017cb:	4c28                                    	l32i.n	a2, a12, 16
800017cd:	c89256                                    	bnez	a2, 8000145a <_Putfld+0x41a>

800017d0 <_Putfld+0x790>:
800017d0:	3f0c62                                    	l8ui	a6, a12, 63
800017d3:	3bb616                                    	beqz	a6, 80001b92 <_Putfld+0xb52>

800017d6 <_Putfld+0x796>:
800017d6:	c80256                                    	bnez	a2, 8000145a <_Putfld+0x41a>
800017d9:	fbda21                                    	l32r	a2, 80000744 (800005f0 <_Zero+0x40>)
800017dc:	900095288dee                           	{ call0	80002614 <_Fail_s>; movi	a3, 26 }
800017e2:	7002c044c10e                           	{ l32i	a12, a1, 8; l32i	a0, a1, 4 }
800017e8:	740fd0ff7f6e                           	{ movi	a7, -1; l32i	a13, a1, 12 }
800017ee:	741e583727be                           	{ sub	a2, a7, a2; l32i	a14, a1, 16 }
800017f4:	54427044505e                           	{ ret; addi	a1, a1, 32 }

800017fa <_Putfld+0x7ba>:
800017fa:	000000                                        ...

800017fd <_Putfld+0x7bd>:
800017fd:	3f3996                                    	bltz	a9, 80001bf4 <_Putfld+0xbb4>

80001800 <_Putfld+0x7c0>:
80001800:	2388                                    	l32i.n	a8, a3, 8
80001802:	284b                                    	addi.n	a2, a8, 4
80001804:	2329                                    	s32i.n	a2, a3, 8
80001806:	7006b1cd80ce                           	{ blt	a0, a8, 80001810 <_Putfld+0x7d0>; l32i	a7, a3, 4 }
8000180c:	0002c6                                    	j	8000181b <_Putfld+0x7db>

8000180f <_Putfld+0x7cf>:
	...

80001810 <_Putfld+0x7d0>:
80001810:	052487                                    	blt	a4, a8, 80001819 <_Putfld+0x7d9>
80001813:	90034268538e                           	{ s32i	a5, a3, 8; movi	a2, 36 }

80001819 <_Putfld+0x7d9>:
80001819:	0378                                    	l32i.n	a7, a3, 0

8000181b <_Putfld+0x7db>:
8000181b:	bc88                                    	l32i.n	a8, a12, 44
8000181d:	727a                                    	add.n	a7, a2, a7
8000181f:	ffd772                                    	addmi	a7, a7, 0xffffff00
80001822:	57ffc452771e                           	{ l32i	a7, a7, 252; addi	a8, a8, -1 }
80001828:	bc89                                    	s32i.n	a8, a12, 44
8000182a:	fd28d6                                    	bgez	a8, 80001800 <_Putfld+0x7c0>
8000182d:	3c3716                                    	beqz	a7, 80001bf4 <_Putfld+0xbb4>
80001830:	ff1b86                                    	j	800014a2 <_Putfld+0x462>

80001833 <_Putfld+0x7f3>:
80001833:	0152c5                                    	call0	80002d60 <strlen>
80001836:	ff0ec6                                    	j	80001475 <_Putfld+0x435>

80001839 <_Putfld+0x7f9>:
80001839:	000000                                        ...

8000183c <_Putfld+0x7fc>:
8000183c:	1e1c02                                    	l16ui	a0, a12, 60
8000183f:	e104005c00108f                               	{ bbci.w15	a0, 1, 80001959 <_Putfld+0x919>; nop }
80001846:	5c98                                    	l32i.n	a9, a12, 20
80001848:	90013556a90e                           	{ addi	a10, a9, 1; movi	a8, 43 }
8000184e:	b0a4c47fac8e                           	{ s32i	a10, a12, 20; add	a9, a9, a14 }
80001854:	004982                                    	s8i	a8, a9, 0
80001857:	ff8006                                    	j	8000165b <_Putfld+0x61b>

8000185a <_Putfld+0x81a>:
8000185a:	b250c76ebcce                           	{ s32i	a11, a12, 0; srai	a5, a11, 31 }
80001860:	1c59                                    	s32i.n	a5, a12, 4
80001862:	ff7686                                    	j	80001640 <_Putfld+0x600>

80001865 <_Putfld+0x825>:
80001865:	31d8                                    	l32i.n	a13, a1, 12
80001867:	700cc054bc0e                           	{ l32i	a11, a12, 52; l32i	a0, a1, 4 }
8000186d:	70054047e10e                           	{ l32i	a14, a1, 16; l32i	a12, a1, 8 }
80001873:	90004068b28e                           	{ s32i	a11, a2, 0; movi	a2, 0 }
80001879:	54427044505e                           	{ ret; addi	a1, a1, 32 }

8000187f <_Putfld+0x83f>:
	...

80001880 <_Putfld+0x840>:
80001880:	394296                                    	bltz	a2, 80001c18 <_Putfld+0xbd8>

80001883 <_Putfld+0x843>:
80001883:	2388                                    	l32i.n	a8, a3, 8
80001885:	284b                                    	addi.n	a2, a8, 4
80001887:	2329                                    	s32i.n	a2, a3, 8
80001889:	7006b1cd80ce                           	{ blt	a0, a8, 80001893 <_Putfld+0x853>; l32i	a7, a3, 4 }
8000188f:	0002c6                                    	j	8000189e <_Putfld+0x85e>

80001892 <_Putfld+0x852>:
	...

80001893 <_Putfld+0x853>:
80001893:	052487                                    	blt	a4, a8, 8000189c <_Putfld+0x85c>
80001896:	90034268538e                           	{ s32i	a5, a3, 8; movi	a2, 36 }

8000189c <_Putfld+0x85c>:
8000189c:	0378                                    	l32i.n	a7, a3, 0

8000189e <_Putfld+0x85e>:
8000189e:	0b2cd2                                    	l32i	a13, a12, 44
800018a1:	802270                                    	add	a2, a2, a7
800018a4:	ffd222                                    	addmi	a2, a2, 0xffffff00
800018a7:	57ffc657225e                           	{ l32i	a2, a2, 252; addi	a13, a13, -1 }
800018ad:	0b6cd2                                    	s32i	a13, a12, 44
800018b0:	fcfdd6                                    	bgez	a13, 80001883 <_Putfld+0x843>

800018b3 <_Putfld+0x873>:
800018b3:	90004061210e                           	{ s16i	a2, a1, 0; movi	a4, 0 }
800018b9:	93f1c77441ce                           	{ s16i	a4, a1, 2; movi	a3, -1 }
800018bf:	ba0d466b3c0e                           	{ s32i	a3, a12, 48; or	a2, a12, a12 }
800018c5:	ba01900c226e                           	{ call0	80001d50 <_Putstr>; or	a3, a1, a1 }
800018cb:	bde2d6                                    	bgez	a2, 800014ad <_Putfld+0x46d>

800018ce <_Putfld+0x88e>:
800018ce:	1108                                    	l32i.n	a0, a1, 4
800018d0:	93f3c744c18e                           	{ l32i	a12, a1, 8; movi	a2, -1 }
800018d6:	70124057d18e                           	{ l32i	a13, a1, 12; l32i	a14, a1, 16 }
800018dc:	54427044505e                           	{ ret; addi	a1, a1, 32 }

800018e2 <_Putfld+0x8a2>:
800018e2:	302516                                    	beqz	a5, 80001be8 <_Putfld+0xba8>

800018e5 <_Putfld+0x8a5>:
800018e5:	940e10dc5e1e                           	{ j	80001647 <_Putfld+0x607>; movi	a0, 1 }

800018eb <_Putfld+0x8ab>:
800018eb:	23bb80                                    	sext	a11, a11, 15
800018ee:	b250c76ebcce                           	{ s32i	a11, a12, 0; srai	a5, a11, 31 }
800018f4:	1c59                                    	s32i.n	a5, a12, 4
800018f6:	ff5186                                    	j	80001640 <_Putfld+0x600>

800018f9 <_Putfld+0x8b9>:
800018f9:	009c52                                    	l16si	a5, a12, 0
800018fc:	060c                                    	movi.n	a6, 0
800018fe:	49d0c0796c4e                           	{ s32i	a6, a12, 4; extui	a5, a5, 0, 16 }
80001904:	0c59                                    	s32i.n	a5, a12, 0
80001906:	ff19c6                                    	j	80001571 <_Putfld+0x531>

80001909 <_Putfld+0x8c9>:
80001909:	5c88                                    	l32i.n	a8, a12, 20
8000190b:	9001365598ce                           	{ addi	a9, a8, 1; movi	a7, 45 }
80001911:	b0a4447b9c8e                           	{ s32i	a9, a12, 20; add	a8, a8, a14 }
80001917:	004872                                    	s8i	a7, a8, 0
8000191a:	ff3406                                    	j	800015ee <_Putfld+0x5ae>

8000191d <_Putfld+0x8dd>:
8000191d:	23bb00                                    	sext	a11, a11, 7
80001920:	b250c76ebcce                           	{ s32i	a11, a12, 0; srai	a5, a11, 31 }
80001926:	1c59                                    	s32i.n	a5, a12, 4
80001928:	ff4506                                    	j	80001640 <_Putfld+0x600>

8000192b <_Putfld+0x8eb>:
8000192b:	0b0c                                    	movi.n	a11, 0
8000192d:	7800467abc8e                           	{ s32i	a11, a12, 4; l8ui	a10, a12, 0 }
80001933:	0ca9                                    	s32i.n	a10, a12, 0
80001935:	ff0e06                                    	j	80001571 <_Putfld+0x531>

80001938 <_Putfld+0x8f8>:
80001938:	5c48                                    	l32i.n	a4, a12, 20
8000193a:	9001b05054ce                           	{ addi	a5, a4, 1; movi	a3, 48 }
80001940:	b094427b5c8e                           	{ s32i	a5, a12, 20; add	a4, a4, a14 }
80001946:	004432                                    	s8i	a3, a4, 0
80001949:	5c08                                    	l32i.n	a0, a12, 20
8000194b:	201b                                    	addi.n	a2, a0, 1
8000194d:	b084407b2c8e                           	{ s32i	a2, a12, 20; add	a0, a0, a14 }
80001953:	0040d2                                    	s8i	a13, a0, 0
80001956:	ff10c6                                    	j	8000159d <_Putfld+0x55d>

80001959 <_Putfld+0x919>:
80001959:	e4f40e7c00008f                               	{ bbci.w15	a0, 0, 8000165b <_Putfld+0x61b>; nop }
80001960:	5c78                                    	l32i.n	a7, a12, 20
80001962:	90013051878e                           	{ addi	a8, a7, 1; movi	a6, 32 }
80001968:	b095c37f8c8e                           	{ s32i	a8, a12, 20; add	a7, a7, a14 }
8000196e:	004762                                    	s8i	a6, a7, 0
80001971:	ff3986                                    	j	8000165b <_Putfld+0x61b>

80001974 <_Putfld+0x934>:
80001974:	2d0296                                    	bltz	a2, 80001c48 <_Putfld+0xc08>

80001977 <_Putfld+0x937>:
80001977:	2358                                    	l32i.n	a5, a3, 8
80001979:	254b                                    	addi.n	a2, a5, 4
8000197b:	2329                                    	s32i.n	a2, a3, 8
8000197d:	052057                                    	blt	a0, a5, 80001986 <_Putfld+0x946>
80001980:	700091050f4e                           	{ j	80001993 <_Putfld+0x953>; l32i	a5, a3, 4 }

80001986 <_Putfld+0x946>:
80001986:	072457                                    	blt	a4, a5, 80001991 <_Putfld+0x951>
80001989:	492c                                    	movi.n	a9, 36
8000198b:	90034268938e                           	{ s32i	a9, a3, 8; movi	a2, 36 }

80001991 <_Putfld+0x951>:
80001991:	0358                                    	l32i.n	a5, a3, 0

80001993 <_Putfld+0x953>:
80001993:	bca8                                    	l32i.n	a10, a12, 44
80001995:	225a                                    	add.n	a2, a2, a5
80001997:	ffd222                                    	addmi	a2, a2, 0xffffff00
8000199a:	57ffc552229e                           	{ l32i	a2, a2, 252; addi	a10, a10, -1 }
800019a0:	bca9                                    	s32i.n	a10, a12, 44
800019a2:	fd1ad6                                    	bgez	a10, 80001977 <_Putfld+0x937>
800019a5:	29f216                                    	beqz	a2, 80001c48 <_Putfld+0xc08>
800019a8:	31d8                                    	l32i.n	a13, a1, 12
800019aa:	700cc0543c0e                           	{ l32i	a3, a12, 52; l32i	a0, a1, 4 }
800019b0:	70054047e10e                           	{ l32i	a14, a1, 16; l32i	a12, a1, 8 }
800019b6:	90004080328e                           	{ s8i	a3, a2, 0; movi	a2, 0 }
800019bc:	54427044505e                           	{ ret; addi	a1, a1, 32 }

800019c2 <_Putfld+0x982>:
800019c2:	2a6296                                    	bltz	a2, 80001c6c <_Putfld+0xc2c>

800019c5 <_Putfld+0x985>:
800019c5:	2358                                    	l32i.n	a5, a3, 8
800019c7:	254b                                    	addi.n	a2, a5, 4
800019c9:	2329                                    	s32i.n	a2, a3, 8
800019cb:	062057                                    	blt	a0, a5, 800019d5 <_Putfld+0x995>
800019ce:	70009105104e                           	{ j	800019e2 <_Putfld+0x9a2>; l32i	a5, a3, 4 }

800019d4 <_Putfld+0x994>:
	...

800019d5 <_Putfld+0x995>:
800019d5:	072457                                    	blt	a4, a5, 800019e0 <_Putfld+0x9a0>
800019d8:	452c                                    	movi.n	a5, 36
800019da:	90034268538e                           	{ s32i	a5, a3, 8; movi	a2, 36 }

800019e0 <_Putfld+0x9a0>:
800019e0:	0358                                    	l32i.n	a5, a3, 0

800019e2 <_Putfld+0x9a2>:
800019e2:	bc68                                    	l32i.n	a6, a12, 44
800019e4:	225a                                    	add.n	a2, a2, a5
800019e6:	ffd222                                    	addmi	a2, a2, 0xffffff00
800019e9:	57ffc351229e                           	{ l32i	a2, a2, 252; addi	a6, a6, -1 }
800019ef:	bc69                                    	s32i.n	a6, a12, 44
800019f1:	fd06d6                                    	bgez	a6, 800019c5 <_Putfld+0x985>
800019f4:	274216                                    	beqz	a2, 80001c6c <_Putfld+0xc2c>
800019f7:	dc38                                    	l32i.n	a3, a12, 52
800019f9:	7001c057014e                           	{ l32i	a0, a1, 4; l32i	a13, a1, 12 }
800019ff:	70054047e10e                           	{ l32i	a14, a1, 16; l32i	a12, a1, 8 }
80001a05:	b241c76c32ce                           	{ s32i	a3, a2, 0; srai	a3, a3, 31 }
80001a0b:	5040407c324e                           	{ s32i	a3, a2, 4; addi	a1, a1, 32 }
80001a11:	94027040509e                           	{ ret; movi	a2, 0 }

80001a17 <_Putfld+0x9d7>:
80001a17:	940e10d0699e                           	{ j	80001684 <_Putfld+0x644>; movi	a2, 0 }

80001a1d <_Putfld+0x9dd>:
80001a1d:	273296                                    	bltz	a2, 80001c94 <_Putfld+0xc54>

80001a20 <_Putfld+0x9e0>:
80001a20:	2358                                    	l32i.n	a5, a3, 8
80001a22:	254b                                    	addi.n	a2, a5, 4
80001a24:	2329                                    	s32i.n	a2, a3, 8
80001a26:	062057                                    	blt	a0, a5, 80001a30 <_Putfld+0x9f0>
80001a29:	70009105104e                           	{ j	80001a3d <_Putfld+0x9fd>; l32i	a5, a3, 4 }

80001a2f <_Putfld+0x9ef>:
	...

80001a30 <_Putfld+0x9f0>:
80001a30:	072457                                    	blt	a4, a5, 80001a3b <_Putfld+0x9fb>
80001a33:	452c                                    	movi.n	a5, 36
80001a35:	90034268538e                           	{ s32i	a5, a3, 8; movi	a2, 36 }

80001a3b <_Putfld+0x9fb>:
80001a3b:	0358                                    	l32i.n	a5, a3, 0

80001a3d <_Putfld+0x9fd>:
80001a3d:	bc68                                    	l32i.n	a6, a12, 44
80001a3f:	225a                                    	add.n	a2, a2, a5
80001a41:	ffd222                                    	addmi	a2, a2, 0xffffff00
80001a44:	57ffc351229e                           	{ l32i	a2, a2, 252; addi	a6, a6, -1 }
80001a4a:	bc69                                    	s32i.n	a6, a12, 44
80001a4c:	fd06d6                                    	bgez	a6, 80001a20 <_Putfld+0x9e0>
80001a4f:	241216                                    	beqz	a2, 80001c94 <_Putfld+0xc54>
80001a52:	dc38                                    	l32i.n	a3, a12, 52
80001a54:	7001c057014e                           	{ l32i	a0, a1, 4; l32i	a13, a1, 12 }
80001a5a:	70054047e10e                           	{ l32i	a14, a1, 16; l32i	a12, a1, 8 }
80001a60:	b241c76c32ce                           	{ s32i	a3, a2, 0; srai	a3, a3, 31 }
80001a66:	5040407c324e                           	{ s32i	a3, a2, 4; addi	a1, a1, 32 }
80001a6c:	94027040509e                           	{ ret; movi	a2, 0 }

80001a72 <_Putfld+0xa32>:
80001a72:	5c48                                    	l32i.n	a4, a12, 20
80001a74:	7001c057014e                           	{ l32i	a0, a1, 4; l32i	a13, a1, 12 }
80001a7a:	90003050548e                           	{ addi	a5, a4, 1; movi	a2, 0 }
80001a80:	b0944243e18e                           	{ l32i	a14, a1, 16; add	a4, a4, a14 }
80001a86:	7005407f5c0e                           	{ s32i	a5, a12, 20; l32i	a12, a1, 8 }
80001a8c:	90004080248e                           	{ s8i	a2, a4, 0; movi	a2, 0 }
80001a92:	54427044505e                           	{ ret; addi	a1, a1, 32 }

80001a98 <_Putfld+0xa58>:
80001a98:	21c296                                    	bltz	a2, 80001cb8 <_Putfld+0xc78>

80001a9b <_Putfld+0xa5b>:
80001a9b:	2358                                    	l32i.n	a5, a3, 8
80001a9d:	254b                                    	addi.n	a2, a5, 4
80001a9f:	2329                                    	s32i.n	a2, a3, 8
80001aa1:	052057                                    	blt	a0, a5, 80001aaa <_Putfld+0xa6a>
80001aa4:	700091050f4e                           	{ j	80001ab7 <_Putfld+0xa77>; l32i	a5, a3, 4 }

80001aaa <_Putfld+0xa6a>:
80001aaa:	072457                                    	blt	a4, a5, 80001ab5 <_Putfld+0xa75>
80001aad:	452c                                    	movi.n	a5, 36
80001aaf:	90034268538e                           	{ s32i	a5, a3, 8; movi	a2, 36 }

80001ab5 <_Putfld+0xa75>:
80001ab5:	0358                                    	l32i.n	a5, a3, 0

80001ab7 <_Putfld+0xa77>:
80001ab7:	bc68                                    	l32i.n	a6, a12, 44
80001ab9:	225a                                    	add.n	a2, a2, a5
80001abb:	ffd222                                    	addmi	a2, a2, 0xffffff00
80001abe:	57ffc351229e                           	{ l32i	a2, a2, 252; addi	a6, a6, -1 }
80001ac4:	bc69                                    	s32i.n	a6, a12, 44
80001ac6:	fd16d6                                    	bgez	a6, 80001a9b <_Putfld+0xa5b>
80001ac9:	1eb216                                    	beqz	a2, 80001cb8 <_Putfld+0xc78>
80001acc:	000306                                    	j	80001adc <_Putfld+0xa9c>

80001acf <_Putfld+0xa8f>:
	...

80001ad0 <_Putfld+0xa90>:
80001ad0:	901144505c0e                           	{ l32i	a5, a12, 4; movi	a0, 104 }
80001ad6:	740e16ba3ede                           	{ j	80001618 <_Putfld+0x5d8>; l32i	a11, a12, 0 }

80001adc <_Putfld+0xa9c>:
80001adc:	31d8                                    	l32i.n	a13, a1, 12
80001ade:	700cc0543c0e                           	{ l32i	a3, a12, 52; l32i	a0, a1, 4 }
80001ae4:	70054047e10e                           	{ l32i	a14, a1, 16; l32i	a12, a1, 8 }
80001aea:	90004068328e                           	{ s32i	a3, a2, 0; movi	a2, 0 }
80001af0:	54427044505e                           	{ ret; addi	a1, a1, 32 }

80001af6 <_Putfld+0xab6>:
80001af6:	1e2296                                    	bltz	a2, 80001cdc <_Putfld+0xc9c>

80001af9 <_Putfld+0xab9>:
80001af9:	2358                                    	l32i.n	a5, a3, 8
80001afb:	254b                                    	addi.n	a2, a5, 4
80001afd:	2329                                    	s32i.n	a2, a3, 8
80001aff:	052057                                    	blt	a0, a5, 80001b08 <_Putfld+0xac8>
80001b02:	700091050f4e                           	{ j	80001b15 <_Putfld+0xad5>; l32i	a5, a3, 4 }

80001b08 <_Putfld+0xac8>:
80001b08:	072457                                    	blt	a4, a5, 80001b13 <_Putfld+0xad3>
80001b0b:	452c                                    	movi.n	a5, 36
80001b0d:	90034268538e                           	{ s32i	a5, a3, 8; movi	a2, 36 }

80001b13 <_Putfld+0xad3>:
80001b13:	0358                                    	l32i.n	a5, a3, 0

80001b15 <_Putfld+0xad5>:
80001b15:	bc68                                    	l32i.n	a6, a12, 44
80001b17:	225a                                    	add.n	a2, a2, a5
80001b19:	ffd222                                    	addmi	a2, a2, 0xffffff00
80001b1c:	57ffc351229e                           	{ l32i	a2, a2, 252; addi	a6, a6, -1 }
80001b22:	bc69                                    	s32i.n	a6, a12, 44
80001b24:	fd16d6                                    	bgez	a6, 80001af9 <_Putfld+0xab9>
80001b27:	1b1216                                    	beqz	a2, 80001cdc <_Putfld+0xc9c>
80001b2a:	31d8                                    	l32i.n	a13, a1, 12
80001b2c:	700cc0543c0e                           	{ l32i	a3, a12, 52; l32i	a0, a1, 4 }
80001b32:	70054047e10e                           	{ l32i	a14, a1, 16; l32i	a12, a1, 8 }
80001b38:	90004068328e                           	{ s32i	a3, a2, 0; movi	a2, 0 }
80001b3e:	54427044505e                           	{ ret; addi	a1, a1, 32 }

80001b44 <_Putfld+0xb04>:
80001b44:	1bc296                                    	bltz	a2, 80001d04 <_Putfld+0xcc4>

80001b47 <_Putfld+0xb07>:
80001b47:	2358                                    	l32i.n	a5, a3, 8
80001b49:	254b                                    	addi.n	a2, a5, 4
80001b4b:	2329                                    	s32i.n	a2, a3, 8
80001b4d:	052057                                    	blt	a0, a5, 80001b56 <_Putfld+0xb16>
80001b50:	700091050f4e                           	{ j	80001b63 <_Putfld+0xb23>; l32i	a5, a3, 4 }

80001b56 <_Putfld+0xb16>:
80001b56:	072457                                    	blt	a4, a5, 80001b61 <_Putfld+0xb21>
80001b59:	452c                                    	movi.n	a5, 36
80001b5b:	90034268538e                           	{ s32i	a5, a3, 8; movi	a2, 36 }

80001b61 <_Putfld+0xb21>:
80001b61:	0358                                    	l32i.n	a5, a3, 0

80001b63 <_Putfld+0xb23>:
80001b63:	bc68                                    	l32i.n	a6, a12, 44
80001b65:	225a                                    	add.n	a2, a2, a5
80001b67:	ffd222                                    	addmi	a2, a2, 0xffffff00
80001b6a:	57ffc351229e                           	{ l32i	a2, a2, 252; addi	a6, a6, -1 }
80001b70:	bc69                                    	s32i.n	a6, a12, 44
80001b72:	fd16d6                                    	bgez	a6, 80001b47 <_Putfld+0xb07>
80001b75:	18b216                                    	beqz	a2, 80001d04 <_Putfld+0xcc4>
80001b78:	31d8                                    	l32i.n	a13, a1, 12
80001b7a:	700cc0543c0e                           	{ l32i	a3, a12, 52; l32i	a0, a1, 4 }
80001b80:	70054047e10e                           	{ l32i	a14, a1, 16; l32i	a12, a1, 8 }
80001b86:	90004060328e                           	{ s16i	a3, a2, 0; movi	a2, 0 }
80001b8c:	54427044505e                           	{ ret; addi	a1, a1, 32 }

80001b92 <_Putfld+0xb52>:
80001b92:	faed21                                    	l32r	a2, 80000748 (8000067c <_Zero+0xcc>)
80001b95:	4c29                                    	s32i.n	a2, a12, 16
80001b97:	ff0ec6                                    	j	800017d6 <_Putfld+0x796>

80001b9a <_Putfld+0xb5a>:
80001b9a:	18a296                                    	bltz	a2, 80001d28 <_Putfld+0xce8>

80001b9d <_Putfld+0xb5d>:
80001b9d:	2358                                    	l32i.n	a5, a3, 8
80001b9f:	254b                                    	addi.n	a2, a5, 4
80001ba1:	2329                                    	s32i.n	a2, a3, 8
80001ba3:	052057                                    	blt	a0, a5, 80001bac <_Putfld+0xb6c>
80001ba6:	700091050f4e                           	{ j	80001bb9 <_Putfld+0xb79>; l32i	a5, a3, 4 }

80001bac <_Putfld+0xb6c>:
80001bac:	072457                                    	blt	a4, a5, 80001bb7 <_Putfld+0xb77>
80001baf:	452c                                    	movi.n	a5, 36
80001bb1:	90034268538e                           	{ s32i	a5, a3, 8; movi	a2, 36 }

80001bb7 <_Putfld+0xb77>:
80001bb7:	0358                                    	l32i.n	a5, a3, 0

80001bb9 <_Putfld+0xb79>:
80001bb9:	bc68                                    	l32i.n	a6, a12, 44
80001bbb:	225a                                    	add.n	a2, a2, a5
80001bbd:	ffd222                                    	addmi	a2, a2, 0xffffff00
80001bc0:	57ffc351229e                           	{ l32i	a2, a2, 252; addi	a6, a6, -1 }
80001bc6:	bc69                                    	s32i.n	a6, a12, 44
80001bc8:	fd16d6                                    	bgez	a6, 80001b9d <_Putfld+0xb5d>
80001bcb:	159216                                    	beqz	a2, 80001d28 <_Putfld+0xce8>
80001bce:	31d8                                    	l32i.n	a13, a1, 12
80001bd0:	700cc0543c0e                           	{ l32i	a3, a12, 52; l32i	a0, a1, 4 }
80001bd6:	70054047e10e                           	{ l32i	a14, a1, 16; l32i	a12, a1, 8 }
80001bdc:	90004068328e                           	{ s32i	a3, a2, 0; movi	a2, 0 }
80001be2:	54427044505e                           	{ ret; addi	a1, a1, 32 }

80001be8 <_Putfld+0xba8>:
80001be8:	e674086c983b8f                               	{ bgeu.w15	a11, a3, 80001647 <_Putfld+0x607>; nop }
80001bef:	ff3c86                                    	j	800018e5 <_Putfld+0x8a5>

80001bf2 <_Putfld+0xbb2>:
	...

80001bf4 <_Putfld+0xbb4>:
80001bf4:	fad621                                    	l32r	a2, 8000074c (8000060c <_Zero+0x5c>)
80001bf7:	9000952487ee                           	{ call0	80002614 <_Fail_s>; movi	a3, 27 }
80001bfd:	7002c044c10e                           	{ l32i	a12, a1, 8; l32i	a0, a1, 4 }
80001c03:	740fd0ff4f6e                           	{ movi	a4, -1; l32i	a13, a1, 12 }
80001c09:	741e583724be                           	{ sub	a2, a4, a2; l32i	a14, a1, 16 }
80001c0f:	54427044505e                           	{ ret; addi	a1, a1, 32 }

80001c15 <_Putfld+0xbd5>:
80001c15:	000000                                        ...

80001c18 <_Putfld+0xbd8>:
80001c18:	940e10d0979e                           	{ j	800018b3 <_Putfld+0x873>; movi	a2, 0 }

80001c1e <_Putfld+0xbde>:
80001c1e:	00000000 cb210000                                ......

80001c24 <_Putfld+0xbe4>:
80001c24:	facb21                                    	l32r	a2, 80000750 (800005d8 <_Zero+0x28>)
80001c27:	900094207bee                           	{ call0	80002614 <_Fail_s>; movi	a3, 24 }
80001c2d:	7002c044c10e                           	{ l32i	a12, a1, 8; l32i	a0, a1, 4 }
80001c33:	740fd0ff5f6e                           	{ movi	a5, -1; l32i	a13, a1, 12 }
80001c39:	741e583725be                           	{ sub	a2, a5, a2; l32i	a14, a1, 16 }
80001c3f:	54427044505e                           	{ ret; addi	a1, a1, 32 }

80001c45 <_Putfld+0xc05>:
80001c45:	000000                                        ...

80001c48 <_Putfld+0xc08>:
80001c48:	fac221                                    	l32r	a2, 80000750 (800005d8 <_Zero+0x28>)
80001c4b:	9000942072ee                           	{ call0	80002614 <_Fail_s>; movi	a3, 24 }
80001c51:	7002c044c10e                           	{ l32i	a12, a1, 8; l32i	a0, a1, 4 }
80001c57:	740fd0ff6f6e                           	{ movi	a6, -1; l32i	a13, a1, 12 }
80001c5d:	741e583726be                           	{ sub	a2, a6, a2; l32i	a14, a1, 16 }
80001c63:	54427044505e                           	{ ret; addi	a1, a1, 32 }

80001c69 <_Putfld+0xc29>:
80001c69:	000000                                        ...

80001c6c <_Putfld+0xc2c>:
80001c6c:	fab921                                    	l32r	a2, 80000750 (800005d8 <_Zero+0x28>)
80001c6f:	9000942069ee                           	{ call0	80002614 <_Fail_s>; movi	a3, 24 }
80001c75:	7002c044c10e                           	{ l32i	a12, a1, 8; l32i	a0, a1, 4 }
80001c7b:	740fd0ff7f6e                           	{ movi	a7, -1; l32i	a13, a1, 12 }
80001c81:	741e583727be                           	{ sub	a2, a7, a2; l32i	a14, a1, 16 }
80001c87:	54427044505e                           	{ ret; addi	a1, a1, 32 }

80001c8d <_Putfld+0xc4d>:
80001c8d:	000000                                        ...

80001c90 <_Putfld+0xc50>:
80001c90:	00000000                                ....

80001c94 <_Putfld+0xc54>:
80001c94:	faaf21                                    	l32r	a2, 80000750 (800005d8 <_Zero+0x28>)
80001c97:	900094205fee                           	{ call0	80002614 <_Fail_s>; movi	a3, 24 }
80001c9d:	7002c044c10e                           	{ l32i	a12, a1, 8; l32i	a0, a1, 4 }
80001ca3:	740fd0ff8f6e                           	{ movi	a8, -1; l32i	a13, a1, 12 }
80001ca9:	741e583728be                           	{ sub	a2, a8, a2; l32i	a14, a1, 16 }
80001caf:	54427044505e                           	{ ret; addi	a1, a1, 32 }

80001cb5 <_Putfld+0xc75>:
80001cb5:	000000                                        ...

80001cb8 <_Putfld+0xc78>:
80001cb8:	faa621                                    	l32r	a2, 80000750 (800005d8 <_Zero+0x28>)
80001cbb:	9000942056ee                           	{ call0	80002614 <_Fail_s>; movi	a3, 24 }
80001cc1:	7002c044c10e                           	{ l32i	a12, a1, 8; l32i	a0, a1, 4 }
80001cc7:	740fd0ff9f6e                           	{ movi	a9, -1; l32i	a13, a1, 12 }
80001ccd:	741e583729be                           	{ sub	a2, a9, a2; l32i	a14, a1, 16 }
80001cd3:	54427044505e                           	{ ret; addi	a1, a1, 32 }

80001cd9 <_Putfld+0xc99>:
80001cd9:	000000                                        ...

80001cdc <_Putfld+0xc9c>:
80001cdc:	fa9d21                                    	l32r	a2, 80000750 (800005d8 <_Zero+0x28>)
80001cdf:	900094204dee                           	{ call0	80002614 <_Fail_s>; movi	a3, 24 }
80001ce5:	7002c044c10e                           	{ l32i	a12, a1, 8; l32i	a0, a1, 4 }
80001ceb:	740fd0ffaf6e                           	{ movi	a10, -1; l32i	a13, a1, 12 }
80001cf1:	741e58372abe                           	{ sub	a2, a10, a2; l32i	a14, a1, 16 }
80001cf7:	54427044505e                           	{ ret; addi	a1, a1, 32 }

80001cfd <_Putfld+0xcbd>:
80001cfd:	000000                                        ...

80001d00 <_Putfld+0xcc0>:
80001d00:	00000000                                ....

80001d04 <_Putfld+0xcc4>:
80001d04:	fa9321                                    	l32r	a2, 80000750 (800005d8 <_Zero+0x28>)
80001d07:	9000942043ee                           	{ call0	80002614 <_Fail_s>; movi	a3, 24 }
80001d0d:	7002c044c10e                           	{ l32i	a12, a1, 8; l32i	a0, a1, 4 }
80001d13:	740fd0ffbf6e                           	{ movi	a11, -1; l32i	a13, a1, 12 }
80001d19:	741e58372bbe                           	{ sub	a2, a11, a2; l32i	a14, a1, 16 }
80001d1f:	54427044505e                           	{ ret; addi	a1, a1, 32 }

80001d25 <_Putfld+0xce5>:
80001d25:	000000                                        ...

80001d28 <_Putfld+0xce8>:
80001d28:	fa8a21                                    	l32r	a2, 80000750 (800005d8 <_Zero+0x28>)
80001d2b:	0020f0                                    	nop
80001d2e:	9000942039ee                           	{ call0	80002614 <_Fail_s>; movi	a3, 24 }
80001d34:	7002c054d10e                           	{ l32i	a13, a1, 12; l32i	a0, a1, 4 }
80001d3a:	741e50ffcfae                           	{ movi	a12, -1; l32i	a14, a1, 16 }
80001d40:	ba834640c18e                           	{ l32i	a12, a1, 8; sub	a2, a12, a2 }
80001d46:	54427044505e                           	{ ret; addi	a1, a1, 32 }

80001d4c <_Putfld+0xd0c>:
80001d4c:	00000000                                ....

80001d50 <_Putstr>:
80001d50:	80c112                                    	addi	a1, a1, -128
80001d53:	1861c2                                    	s32i	a12, a1, 96
80001d56:	1a61e2                                    	s32i	a14, a1, 104
80001d59:	1b61f2                                    	s32i	a15, a1, 108
80001d5c:	7436417b01ce                           	{ s32i	a0, a1, 92; l32i	a15, a2, 48 }
80001d62:	fa7201                                    	l32r	a0, 8000072c (7fffffff <_memmap_cacheattr_bp_allvalid+0x3bbbbbbb>)
80001d65:	1961d2                                    	s32i	a13, a1, 100
80001d68:	be3b59c833be                           	{ or	a13, a3, a3; or	a14, a2, a2 }
80001d6e:	b7f5c09b30ce                           	{ nop; movltz	a15, a0, a15 }
80001d74:	0020f0                                    	nop
80001d77:	003485                                    	call0	800020c0 <_Getmbcurmax>
80001d7a:	fa7651                                    	l32r	a5, 80000754 (800001a4 <vpsize$34934_13_91+0x4>)
80001d7d:	74315701602e                           	{ movi	a6, 0; l32i	a4, a14, 56 }
80001d83:	0169                                    	s32i.n	a6, a1, 0
80001d85:	6803c22d654e                           	{ l16ui	a6, a5, 4; l16ui	a5, a5, 6 }
80001d8b:	035152                                    	s16i	a5, a1, 6
80001d8e:	025162                                    	s16i	a6, a1, 4
80001d91:	1e1e32                                    	l16ui	a3, a14, 60
80001d94:	5208584624be                           	{ add	a4, a4, a2; addi	a10, a1, 16 }
80001d9a:	941c406a414e                           	{ s32i	a4, a1, 112; movi	a9, 64 }
80001da0:	9018303123ce                           	{ bbsi	a3, 2, 80001dad <_Putstr+0x5d>; movi	a7, 64 }
80001da6:	e0c4005ca8478f                               	{ bltu.w15	a7, a4, 80001e80 <_Putstr+0x130>; nop }

80001dad <_Putstr+0x5d>:
80001dad:	1d61a2                                    	s32i	a10, a1, 116
80001db0:	1c6192                                    	s32i	a9, a1, 112

80001db3 <_Putstr+0x63>:
80001db3:	a8c002480a3fcf                               	{ blti.w15	a15, 1, 80001ea9 <_Putstr+0x159>; movi	a11, 0 }
80001dba:	1661b2                                    	s32i	a11, a1, 88

80001dbd <_Putstr+0x6d>:
80001dbd:	5280402c3d8e                           	{ l16ui	a3, a13, 0; addi	a2, a1, 80 }
80001dc3:	ba10100cd26e                           	{ call0	8000250c <_Wctomb>; or	a4, a1, a1 }
80001dc9:	be3051a0829e                           	{ bltz	a2, 80001e75 <_Putstr+0x125>; or	a12, a2, a2 }
80001dcf:	001d02                                    	l16ui	a0, a13, 0
80001dd2:	05b016                                    	beqz	a0, 80001e31 <_Putstr+0xe1>

80001dd5 <_Putstr+0x85>:
80001dd5:	723230dccfbe                           	{ blt	a15, a12, 80001e3c <_Putstr+0xec>; l32i	a2, a1, 112 }
80001ddb:	052e02                                    	l32i	a0, a14, 20
80001dde:	8030c0                                    	add	a3, a0, a12
80001de1:	1fb237                                    	bgeu	a2, a3, 80001e04 <_Putstr+0xb4>
80001de4:	00a042                                    	movi	a4, 0
80001de7:	ba0f476b4e8e                           	{ s32i	a4, a14, 56; or	a2, a14, a14 }
80001ded:	0020f0                                    	nop
80001df0:	7230900437ee                           	{ call0	80001ed0 <_Puttxt>; l32i	a3, a1, 116 }
80001df6:	94064069214e                           	{ s32i	a2, a1, 88; movi	a5, 0 }
80001dfc:	94005028c21e                           	{ bltz	a2, 80001e3c <_Putstr+0xec>; movi	a0, 0 }
80001e02:	5e59                                    	s32i.n	a5, a14, 20

80001e04 <_Putstr+0xb4>:
80001e04:	1d2122                                    	l32i	a2, a1, 116
80001e07:	568a5844ccfe                           	{ or	a4, a12, a12; addi	a3, a1, 80 }
80001e0d:	b4854098308e                           	{ nop; add	a2, a0, a2 }
80001e13:	0020f0                                    	nop
80001e16:	04ca85                                    	call0	80006ac0 <memcpy>
80001e19:	5e48                                    	l32i.n	a4, a14, 20
80001e1b:	44ca                                    	add.n	a4, a4, a12
80001e1d:	5e49                                    	s32i.n	a4, a14, 20
80001e1f:	001d32                                    	l16ui	a3, a13, 0
80001e22:	c0ffc0                                    	sub	a15, a15, a12
80001e25:	5401560f334e                           	{ beqz	a3, 80001e3c <_Putstr+0xec>; addi	a13, a13, 2 }
80001e2b:	8e1fe6                                    	bgei	a15, 1, 80001dbd <_Putstr+0x6d>
80001e2e:	000286                                    	j	80001e3c <_Putstr+0xec>

80001e31 <_Putstr+0xe1>:
80001e31:	c20b                                    	addi.n	a12, a2, -1
80001e33:	f9ecd6                                    	bgez	a12, 80001dd5 <_Putstr+0x85>
80001e36:	000ec6                                    	j	80001e75 <_Putstr+0x125>

80001e39 <_Putstr+0xe9>:
80001e39:	000000                                        ...

80001e3c <_Putstr+0xec>:
80001e3c:	162152                                    	l32i	a5, a1, 88
80001e3f:	066516                                    	beqz	a5, 80001ea9 <_Putstr+0x159>

80001e42 <_Putstr+0xf2>:
80001e42:	1d2162                                    	l32i	a6, a1, 116
80001e45:	7628c047c14e                           	{ l32i	a12, a1, 96; l32i	a13, a1, 100 }
80001e4b:	76213047718e                           	{ addi	a7, a1, 16; l32i	a14, a1, 104 }
80001e51:	722bb0b776ce                           	{ beq	a6, a7, 80001e60 <_Putstr+0x110>; l32i	a15, a1, 108 }
80001e57:	0020f0                                    	nop
80001e5a:	ba011321a5ae                           	{ call0	800028f0 <free>; or	a2, a6, a6 }

80001e60 <_Putstr+0x110>:
80001e60:	76174054810e                           	{ l32i	a8, a1, 92; l32i	a0, a1, 88 }
80001e66:	80a032                                    	movi	a3, 128
80001e69:	be0a5c22003e                           	{ or	a2, a0, a0; or	a0, a8, a8 }
80001e6f:	b482f04450de                           	{ ret; add	a1, a1, a3 }

80001e75 <_Putstr+0x125>:
80001e75:	f97c                                    	movi.n	a9, -1
80001e77:	166192                                    	s32i	a9, a1, 88
80001e7a:	fff106                                    	j	80001e42 <_Putstr+0xf2>

80001e7d <_Putstr+0x12d>:
80001e7d:	000000                                        ...

80001e80 <_Putstr+0x130>:
80001e80:	ba011229332e                           	{ call0	80002b50 <malloc>; or	a2, a4, a4 }
80001e86:	1d6122                                    	s32i	a2, a1, 116
80001e89:	f26256                                    	bnez	a2, 80001db3 <_Putstr+0x63>
80001e8c:	f27c                                    	movi.n	a2, -1
80001e8e:	7619c044c10e                           	{ l32i	a12, a1, 96; l32i	a0, a1, 92 }
80001e94:	76294057d18e                           	{ l32i	a13, a1, 100; l32i	a14, a1, 104 }
80001e9a:	7621d08730ee                           	{ movi	a3, 128; l32i	a15, a1, 108 }
80001ea0:	b482f04450de                           	{ ret; add	a1, a1, a3 }

80001ea6 <_Putstr+0x156>:
80001ea6:	000000                                        ...

80001ea9 <_Putstr+0x159>:
80001ea9:	202ee0                                    	or	a2, a14, a14
80001eac:	7230900408ee                           	{ call0	80001ed0 <_Puttxt>; l32i	a3, a1, 116 }
80001eb2:	166122                                    	s32i	a2, a1, 88
80001eb5:	f89256                                    	bnez	a2, 80001e42 <_Putstr+0xf2>
80001eb8:	00a0a2                                    	movi	a10, 0
80001ebb:	0e6ea2                                    	s32i	a10, a14, 56
80001ebe:	5ea9                                    	s32i.n	a10, a14, 20
80001ec0:	ffdf86                                    	j	80001e42 <_Putstr+0xf2>

80001ec3 <_Putstr+0x173>:
	...

80001ed0 <_Puttxt>:
80001ed0:	e0c112                                    	addi	a1, a1, -32
80001ed3:	31d9                                    	s32i.n	a13, a1, 12
80001ed5:	21c9                                    	s32i.n	a12, a1, 8
80001ed7:	be0b59c422fe                           	{ or	a12, a2, a2; or	a2, a3, a3 }
80001edd:	703546504cce                           	{ l32i	a4, a12, 20; l32i	a3, a12, 56 }
80001ee3:	70154679f14e                           	{ s32i	a15, a1, 20; l32i	a5, a12, 24 }
80001ee9:	7015c66ae10e                           	{ s32i	a14, a1, 16; l32i	a8, a12, 28 }
80001eef:	742e5e3943fe                           	{ sub	a3, a3, a4; l32i	a7, a12, 32 }
80001ef5:	742ede3953be                           	{ sub	a3, a3, a5; l32i	a6, a12, 36 }
80001efb:	742f5e39837e                           	{ sub	a3, a3, a8; l32i	a5, a12, 40 }
80001f01:	ba81c17d01ce                           	{ s32i	a0, a1, 4; sub	a3, a3, a7 }
80001f07:	6e3f5e38633e                           	{ sub	a3, a3, a6; l16ui	a0, a12, 60 }
80001f0d:	ba81c16d214e                           	{ s32i	a2, a1, 0; sub	a3, a3, a5 }
80001f13:	6139                                    	s32i.n	a3, a1, 24
80001f15:	900d3033208e                           	{ bbsi	a0, 2, 80001f26 <_Puttxt+0x56>; movi	a14, 32 }
80001f1b:	ba36e11c33ce                           	{ blti	a3, 1, 80001f26 <_Puttxt+0x56>; or	a13, a3, a3 }
80001f21:	0025c6                                    	j	80001fbc <_Puttxt+0xec>

80001f24 <_Puttxt+0x54>:
80001f24:	5c48                                    	l32i.n	a4, a12, 20
80001f26:	1814a6                                    	blti	a4, 1, 80001f42 <_Puttxt+0x72>
80001f29:	2c08                                    	l32i.n	a0, a12, 8
80001f2b:	0138                                    	l32i.n	a3, a1, 0
80001f2d:	7403f640209e                           	{ callx0	a0; l32i	a2, a12, 12 }
80001f33:	3c29                                    	s32i.n	a2, a12, 12
80001f35:	097216                                    	beqz	a2, 80001fd0 <_Puttxt+0x100>
80001f38:	701cc6503c8e                           	{ l32i	a3, a12, 52; l32i	a2, a12, 20 }
80001f3e:	223a                                    	add.n	a2, a2, a3
80001f40:	dc29                                    	s32i.n	a2, a12, 52

80001f42 <_Puttxt+0x72>:
80001f42:	6cd8                                    	l32i.n	a13, a12, 24
80001f44:	201de6                                    	bgei	a13, 1, 80001f68 <_Puttxt+0x98>
80001f47:	000a46                                    	j	80001f74 <_Puttxt+0xa4>

80001f4a <_Puttxt+0x7a>:
80001f4a:	2c08                                    	l32i.n	a0, a12, 8
80001f4c:	3c28                                    	l32i.n	a2, a12, 12
80001f4e:	fa0231                                    	l32r	a3, 80000758 (800001e0 <zeroes_144>)
80001f51:	be12774720de                           	{ callx0	a0; or	a4, a15, a15 }
80001f57:	3c29                                    	s32i.n	a2, a12, 12
80001f59:	beb0d66f32ce                           	{ beqz	a2, 80001fd0 <_Puttxt+0x100>; sub	a13, a13, a15 }
80001f5f:	dc28                                    	l32i.n	a2, a12, 52
80001f61:	22fa                                    	add.n	a2, a2, a15
80001f63:	dc29                                    	s32i.n	a2, a12, 52
80001f65:	0b1da6                                    	blti	a13, 1, 80001f74 <_Puttxt+0xa4>

80001f68 <_Puttxt+0x98>:
80001f68:	63fde0                                    	minu	a15, a13, a14
80001f6b:	db1fe6                                    	bgei	a15, 1, 80001f4a <_Puttxt+0x7a>
80001f6e:	c0ddf0                                    	sub	a13, a13, a15
80001f71:	f31de6                                    	bgei	a13, 1, 80001f68 <_Puttxt+0x98>
80001f74:	7c48                                    	l32i.n	a4, a12, 28
80001f76:	1814a6                                    	blti	a4, 1, 80001f92 <_Puttxt+0xc2>
80001f79:	2c08                                    	l32i.n	a0, a12, 8
80001f7b:	3c28                                    	l32i.n	a2, a12, 12
80001f7d:	7412764020de                           	{ callx0	a0; l32i	a3, a12, 16 }
80001f83:	3c29                                    	s32i.n	a2, a12, 12
80001f85:	047216                                    	beqz	a2, 80001fd0 <_Puttxt+0x100>
80001f88:	7036c6503c8e                           	{ l32i	a3, a12, 28; l32i	a2, a12, 52 }
80001f8e:	223a                                    	add.n	a2, a2, a3
80001f90:	dc29                                    	s32i.n	a2, a12, 52

80001f92 <_Puttxt+0xc2>:
80001f92:	8cd8                                    	l32i.n	a13, a12, 32
80001f94:	6e1de6                                    	bgei	a13, 1, 80002006 <_Puttxt+0x136>
80001f97:	001dc6                                    	j	80002012 <_Puttxt+0x142>

80001f9a <_Puttxt+0xca>:
80001f9a:	2c08                                    	l32i.n	a0, a12, 8
80001f9c:	3c28                                    	l32i.n	a2, a12, 12
80001f9e:	f9ef31                                    	l32r	a3, 8000075c (800001b0 <spaces_143>)
80001fa1:	be12774720de                           	{ callx0	a0; or	a4, a15, a15 }
80001fa7:	3c29                                    	s32i.n	a2, a12, 12
80001fa9:	beb0d62732ce                           	{ beqz	a2, 80001fd0 <_Puttxt+0x100>; sub	a13, a13, a15 }
80001faf:	dc28                                    	l32i.n	a2, a12, 52
80001fb1:	22fa                                    	add.n	a2, a2, a15
80001fb3:	dc29                                    	s32i.n	a2, a12, 52
80001fb5:	ef740e2c183d8f                               	{ blti.w15	a13, 1, 80001f24 <_Puttxt+0x54>; nop }

80001fbc <_Puttxt+0xec>:
80001fbc:	63fde0                                    	minu	a15, a13, a14
80001fbf:	d71fe6                                    	bgei	a15, 1, 80001f9a <_Puttxt+0xca>
80001fc2:	c0ddf0                                    	sub	a13, a13, a15
80001fc5:	f31de6                                    	bgei	a13, 1, 80001fbc <_Puttxt+0xec>
80001fc8:	ffd606                                    	j	80001f24 <_Puttxt+0x54>

80001fcb <_Puttxt+0xfb>:
80001fcb:	00000000 54018e00                                .....

80001fd0 <_Puttxt+0x100>:
80001fd0:	93f1c754018e                           	{ l32i	a0, a1, 4; movi	a2, -1 }
80001fd6:	7003c047c14e                           	{ l32i	a12, a1, 8; l32i	a13, a1, 12 }
80001fdc:	7014c047e1ce                           	{ l32i	a14, a1, 16; l32i	a15, a1, 20 }
80001fe2:	54427044505e                           	{ ret; addi	a1, a1, 32 }

80001fe8 <_Puttxt+0x118>:
80001fe8:	2c08                                    	l32i.n	a0, a12, 8
80001fea:	3c28                                    	l32i.n	a2, a12, 12
80001fec:	f9db31                                    	l32r	a3, 80000758 (800001e0 <zeroes_144>)
80001fef:	be12774720de                           	{ callx0	a0; or	a4, a15, a15 }
80001ff5:	3c29                                    	s32i.n	a2, a12, 12
80001ff7:	bebed6df52ce                           	{ beqz	a2, 80001fd0 <_Puttxt+0x100>; sub	a13, a13, a15 }
80001ffd:	dc28                                    	l32i.n	a2, a12, 52
80001fff:	22fa                                    	add.n	a2, a2, a15
80002001:	dc29                                    	s32i.n	a2, a12, 52
80002003:	0b1da6                                    	blti	a13, 1, 80002012 <_Puttxt+0x142>

80002006 <_Puttxt+0x136>:
80002006:	63fde0                                    	minu	a15, a13, a14
80002009:	db1fe6                                    	bgei	a15, 1, 80001fe8 <_Puttxt+0x118>
8000200c:	c0ddf0                                    	sub	a13, a13, a15
8000200f:	f31de6                                    	bgei	a13, 1, 80002006 <_Puttxt+0x136>
80002012:	9c48                                    	l32i.n	a4, a12, 36
80002014:	1e14a6                                    	blti	a4, 1, 80002036 <_Puttxt+0x166>
80002017:	2c08                                    	l32i.n	a0, a12, 8
80002019:	701646505cce                           	{ l32i	a5, a12, 28; l32i	a3, a12, 16 }
8000201f:	3c28                                    	l32i.n	a2, a12, 12
80002021:	b483f145205e                           	{ callx0	a0; add	a3, a3, a5 }
80002027:	3c29                                    	s32i.n	a2, a12, 12
80002029:	fa3216                                    	beqz	a2, 80001fd0 <_Puttxt+0x100>
8000202c:	702cc6517c8e                           	{ l32i	a7, a12, 52; l32i	a6, a12, 36 }
80002032:	667a                                    	add.n	a6, a6, a7
80002034:	dc69                                    	s32i.n	a6, a12, 52

80002036 <_Puttxt+0x166>:
80002036:	acd8                                    	l32i.n	a13, a12, 40
80002038:	201de6                                    	bgei	a13, 1, 8000205c <_Puttxt+0x18c>
8000203b:	000a46                                    	j	80002068 <_Puttxt+0x198>

8000203e <_Puttxt+0x16e>:
8000203e:	2c08                                    	l32i.n	a0, a12, 8
80002040:	3c28                                    	l32i.n	a2, a12, 12
80002042:	f9c531                                    	l32r	a3, 80000758 (800001e0 <zeroes_144>)
80002045:	be12774720de                           	{ callx0	a0; or	a4, a15, a15 }
8000204b:	3c29                                    	s32i.n	a2, a12, 12
8000204d:	bebed67ff2ce                           	{ beqz	a2, 80001fd0 <_Puttxt+0x100>; sub	a13, a13, a15 }
80002053:	dc28                                    	l32i.n	a2, a12, 52
80002055:	22fa                                    	add.n	a2, a2, a15
80002057:	dc29                                    	s32i.n	a2, a12, 52
80002059:	0b1da6                                    	blti	a13, 1, 80002068 <_Puttxt+0x198>

8000205c <_Puttxt+0x18c>:
8000205c:	63fde0                                    	minu	a15, a13, a14
8000205f:	db1fe6                                    	bgei	a15, 1, 8000203e <_Puttxt+0x16e>
80002062:	c0ddf0                                    	sub	a13, a13, a15
80002065:	f31de6                                    	bgei	a13, 1, 8000205c <_Puttxt+0x18c>
80002068:	1e1c32                                    	l16ui	a3, a12, 60
8000206b:	6148                                    	l32i.n	a4, a1, 24
8000206d:	326327                                    	bbci	a3, 2, 800020a3 <_Puttxt+0x1d3>
80002070:	2f14a6                                    	blti	a4, 1, 800020a3 <_Puttxt+0x1d3>
80002073:	ba309201200e                           	{ j	80002097 <_Puttxt+0x1c7>; or	a13, a4, a4 }

80002079 <_Puttxt+0x1a9>:
80002079:	2c08                                    	l32i.n	a0, a12, 8
8000207b:	3c28                                    	l32i.n	a2, a12, 12
8000207d:	f9b731                                    	l32r	a3, 8000075c (800001b0 <spaces_143>)
80002080:	be12774720de                           	{ callx0	a0; or	a4, a15, a15 }
80002086:	3c29                                    	s32i.n	a2, a12, 12
80002088:	bebed65742ce                           	{ beqz	a2, 80001fd0 <_Puttxt+0x100>; sub	a13, a13, a15 }
8000208e:	dc28                                    	l32i.n	a2, a12, 52
80002090:	22fa                                    	add.n	a2, a2, a15
80002092:	dc29                                    	s32i.n	a2, a12, 52
80002094:	0b1da6                                    	blti	a13, 1, 800020a3 <_Puttxt+0x1d3>

80002097 <_Puttxt+0x1c7>:
80002097:	63fde0                                    	minu	a15, a13, a14
8000209a:	db1fe6                                    	bgei	a15, 1, 80002079 <_Puttxt+0x1a9>
8000209d:	c0ddf0                                    	sub	a13, a13, a15
800020a0:	f31de6                                    	bgei	a13, 1, 80002097 <_Puttxt+0x1c7>
800020a3:	90004050018e                           	{ l32i	a0, a1, 4; movi	a2, 0 }
800020a9:	7003c047c14e                           	{ l32i	a12, a1, 8; l32i	a13, a1, 12 }
800020af:	7014c047e1ce                           	{ l32i	a14, a1, 16; l32i	a15, a1, 20 }
800020b5:	54427044505e                           	{ ret; addi	a1, a1, 32 }

800020bb <_Puttxt+0x1eb>:
800020bb:	00000000 f9a82100                                .....

800020c0 <_Getmbcurmax>:
800020c0:	f9a821                                    	l32r	a2, 80000760 (80007880 <_Tls_setup__Mbcurmax>)
800020c3:	0228                                    	l32i.n	a2, a2, 0
800020c5:	f0c112                                    	addi	a1, a1, -16
800020c8:	0109                                    	s32i.n	a0, a1, 0
800020ca:	002216                                    	beqz	a2, 800020d0 <_Getmbcurmax+0x10>
800020cd:	0002c0                                    	callx0	a2
800020d0:	f9a521                                    	l32r	a2, 80000764 (800074b0 <_Mbcurmax>)
800020d3:	0108                                    	l32i.n	a0, a1, 0
800020d5:	10c112                                    	addi	a1, a1, 16
800020d8:	7c027140509e                           	{ ret; l8ui	a2, a2, 0 }

800020de <_Getmbcurmax+0x1e>:
	...

800020e0 <_Getpmbstate>:
800020e0:	f9a021                                    	l32r	a2, 80000760 (80007880 <_Tls_setup__Mbcurmax>)
800020e3:	1228                                    	l32i.n	a2, a2, 4
800020e5:	f0c112                                    	addi	a1, a1, -16
800020e8:	0109                                    	s32i.n	a0, a1, 0
800020ea:	002216                                    	beqz	a2, 800020f0 <_Getpmbstate+0x10>
800020ed:	0002c0                                    	callx0	a2
800020f0:	0108                                    	l32i.n	a0, a1, 0
800020f2:	f99d21                                    	l32r	a2, 80000768 (80007888 <_Mbstate>)
800020f5:	56027044505e                           	{ ret; addi	a1, a1, 16 }

800020fb <_Getpmbstate+0x1b>:
800020fb:	00000000 f0c11200                                .....

80002100 <_Clearlocks>:
80002100:	f0c112                                    	addi	a1, a1, -16
80002103:	0109                                    	s32i.n	a0, a1, 0
80002105:	f99901                                    	l32r	a0, 8000076c (80007adc <_xclib_use_mt>)
80002108:	21d9                                    	s32i.n	a13, a1, 8
8000210a:	f999d1                                    	l32r	a13, 80000770 (80007930 <mtx_148>)
8000210d:	0008                                    	l32i.n	a0, a0, 0
8000210f:	020c                                    	movi.n	a2, 0
80002111:	5140467cc1ce                           	{ s32i	a12, a1, 4; addi	a3, a13, -96 }
80002117:	57405627900e                           	{ beqz	a0, 80002144 <_Clearlocks+0x44>; addi	a12, a13, -80 }
8000211d:	006322                                    	s32i	a2, a3, 0

80002120 <_Clearlocks+0x20>:
80002120:	0020f0                                    	nop
80002123:	ba011633ec2e                           	{ call0	80006cd4 <_Mtxdst>; or	a2, a12, a12 }
80002129:	cc4b                                    	addi.n	a12, a12, 4
8000212b:	f19cd7                                    	bne	a12, a13, 80002120 <_Clearlocks+0x20>
8000212e:	f99151                                    	l32r	a5, 80000774 (800078d0 <max_flock_144>)
80002131:	040c                                    	movi.n	a4, 0
80002133:	52c0427f450e                           	{ s32i	a4, a5, 4; addi	a12, a5, 112 }

80002139 <_Clearlocks+0x39>:
80002139:	ba011637e66e                           	{ call0	80006cd4 <_Mtxdst>; or	a2, a13, a13 }
8000213f:	dd4b                                    	addi.n	a13, a13, 4
80002141:	f49dc7                                    	bne	a13, a12, 80002139 <_Clearlocks+0x39>

80002144 <_Clearlocks+0x44>:
80002144:	0108                                    	l32i.n	a0, a1, 0
80002146:	70014057c14e                           	{ l32i	a12, a1, 4; l32i	a13, a1, 8 }
8000214c:	56027044505e                           	{ ret; addi	a1, a1, 16 }

80002152 <_Clearlocks+0x52>:
80002152:	000000                                        ...

80002155 <_Clearlocks+0x55>:
80002155:	000000                                        ...

80002158 <_Initlocks>:
80002158:	f0c112                                    	addi	a1, a1, -16
8000215b:	0109                                    	s32i.n	a0, a1, 0
8000215d:	f98301                                    	l32r	a0, 8000076c (80007adc <_xclib_use_mt>)
80002160:	21d9                                    	s32i.n	a13, a1, 8
80002162:	f983d1                                    	l32r	a13, 80000770 (80007930 <mtx_148>)
80002165:	0008                                    	l32i.n	a0, a0, 0
80002167:	0161c2                                    	s32i	a12, a1, 4
8000216a:	5740562f600e                           	{ beqz	a0, 800021a4 <_Initlocks+0x4c>; addi	a12, a13, -80 }

80002170 <_Initlocks+0x18>:
80002170:	0020f0                                    	nop
80002173:	ba011633d72e                           	{ call0	80006cd0 <_Mtxinit>; or	a2, a12, a12 }
80002179:	cc4b                                    	addi.n	a12, a12, 4
8000217b:	f19cd7                                    	bne	a12, a13, 80002170 <_Initlocks+0x18>
8000217e:	f97dc1                                    	l32r	a12, 80000774 (800078d0 <max_flock_144>)
80002181:	401c                                    	movi.n	a0, 20
80002183:	52c0466b0c0e                           	{ s32i	a0, a12, 0; addi	a12, a12, 112 }

80002189 <_Initlocks+0x31>:
80002189:	ba011637d16e                           	{ call0	80006cd0 <_Mtxinit>; or	a2, a13, a13 }
8000218f:	04cdd2                                    	addi	a13, a13, 4
80002192:	f39dc7                                    	bne	a13, a12, 80002189 <_Initlocks+0x31>
80002195:	f97731                                    	l32r	a3, 80000774 (800078d0 <max_flock_144>)
80002198:	04a022                                    	movi	a2, 4
8000219b:	016322                                    	s32i	a2, a3, 4
8000219e:	f97621                                    	l32r	a2, 80000778 (80002100 <_Clearlocks>)
800021a1:	003bc5                                    	call0	80002560 <_Atexit>

800021a4 <_Initlocks+0x4c>:
800021a4:	0108                                    	l32i.n	a0, a1, 0
800021a6:	70014057c14e                           	{ l32i	a12, a1, 4; l32i	a13, a1, 8 }
800021ac:	56027044505e                           	{ ret; addi	a1, a1, 16 }

800021b2 <_Initlocks+0x5a>:
800021b2:	000000                                        ...

800021b5 <_Initlocks+0x5d>:
800021b5:	000000                                        ...

800021b8 <_Lockfilelock>:
800021b8:	f0c112                                    	addi	a1, a1, -16
800021bb:	0109                                    	s32i.n	a0, a1, 0
800021bd:	f96d01                                    	l32r	a0, 80000774 (800078d0 <max_flock_144>)
800021c0:	080032                                    	l8ui	a3, a0, 8
800021c3:	93ac                                    	beqz.n	a3, 800021f0 <_Lockfilelock+0x38>

800021c5 <_Lockfilelock+0xd>:
800021c5:	74005001820e                           	{ beqz	a2, 800021d1 <_Lockfilelock+0x19>; l32i	a4, a0, 0 }
800021cb:	020202                                    	l8ui	a0, a2, 2
800021ce:	072047                                    	blt	a0, a4, 800021d9 <_Lockfilelock+0x21>
800021d1:	0108                                    	l32i.n	a0, a1, 0
800021d3:	56027044505e                           	{ ret; addi	a1, a1, 16 }

800021d9 <_Lockfilelock+0x21>:
800021d9:	f96821                                    	l32r	a2, 8000077c (800078e0 <file_mtx_146>)
800021dc:	b4c54098308e                           	{ nop; addx4	a2, a0, a2 }
800021e2:	0020f0                                    	nop
800021e5:	04af05                                    	call0	80006cd8 <_Mtxlock>
800021e8:	0108                                    	l32i.n	a0, a1, 0
800021ea:	56027044505e                           	{ ret; addi	a1, a1, 16 }

800021f0 <_Lockfilelock+0x38>:
800021f0:	1129                                    	s32i.n	a2, a1, 4
800021f2:	fff645                                    	call0	80002158 <_Initlocks>
800021f5:	f95f01                                    	l32r	a0, 80000774 (800078d0 <max_flock_144>)
800021f8:	230c                                    	movi.n	a3, 2
800021fa:	7008c084308e                           	{ s8i	a3, a0, 8; l32i	a2, a1, 4 }
80002200:	fff046                                    	j	800021c5 <_Lockfilelock+0xd>

80002203 <_Lockfilelock+0x4b>:
	...

80002204 <_Unlockfilelock>:
80002204:	57c8085c5c7e                           	{ l32r	a5, 80000774 (800078d0 <max_flock_144>); addi	a1, a1, -16 }
8000220a:	0109                                    	s32i.n	a0, a1, 0
8000220c:	728c                                    	beqz.n	a2, 80002217 <_Unlockfilelock+0x13>
8000220e:	7002424c02ce                           	{ l8ui	a0, a2, 2; l32i	a3, a5, 0 }
80002214:	092037                                    	blt	a0, a3, 80002221 <_Unlockfilelock+0x1d>
80002217:	0108                                    	l32i.n	a0, a1, 0
80002219:	56027044505e                           	{ ret; addi	a1, a1, 16 }

8000221f <_Unlockfilelock+0x1b>:
	...

80002221 <_Unlockfilelock+0x1d>:
80002221:	10c522                                    	addi	a2, a5, 16
80002224:	b4c54098308e                           	{ nop; addx4	a2, a0, a2 }
8000222a:	0020f0                                    	nop
8000222d:	04aac5                                    	call0	80006cdc <_Mtxunlock>
80002230:	0108                                    	l32i.n	a0, a1, 0
80002232:	56027044505e                           	{ ret; addi	a1, a1, 16 }

80002238 <_Locksyslock>:
80002238:	f0c112                                    	addi	a1, a1, -16
8000223b:	0109                                    	s32i.n	a0, a1, 0
8000223d:	f94d01                                    	l32r	a0, 80000774 (800078d0 <max_flock_144>)
80002240:	11c9                                    	s32i.n	a12, a1, 4
80002242:	ba384148208e                           	{ l8ui	a2, a0, 8; or	a12, a2, a2 }
80002248:	42ac                                    	beqz.n	a2, 80002270 <_Locksyslock+0x38>

8000224a <_Locksyslock+0x12>:
8000224a:	1038                                    	l32i.n	a3, a0, 4
8000224c:	700a30cc3c0e                           	{ blt	a12, a3, 8000225a <_Locksyslock+0x22>; l32i	a0, a1, 0 }
80002252:	11c8                                    	l32i.n	a12, a1, 4
80002254:	56027044505e                           	{ ret; addi	a1, a1, 16 }

8000225a <_Locksyslock+0x22>:
8000225a:	f94521                                    	l32r	a2, 80000770 (80007930 <mtx_148>)
8000225d:	b0c116309eae                           	{ call0	80006cd8 <_Mtxlock>; addx4	a2, a12, a2 }
80002263:	0108                                    	l32i.n	a0, a1, 0
80002265:	11c8                                    	l32i.n	a12, a1, 4
80002267:	56027044505e                           	{ ret; addi	a1, a1, 16 }

8000226d <_Locksyslock+0x35>:
8000226d:	000000                                        ...

80002270 <_Locksyslock+0x38>:
80002270:	ffee45                                    	call0	80002158 <_Initlocks>
80002273:	f94001                                    	l32r	a0, 80000774 (800078d0 <max_flock_144>)
80002276:	230c                                    	movi.n	a3, 2
80002278:	084032                                    	s8i	a3, a0, 8
8000227b:	fff2c6                                    	j	8000224a <_Locksyslock+0x12>

8000227e <_Locksyslock+0x46>:
	...

80002280 <_Unlocksyslock>:
80002280:	f0c112                                    	addi	a1, a1, -16
80002283:	0109                                    	s32i.n	a0, a1, 0
80002285:	f93b01                                    	l32r	a0, 80000774 (800078d0 <max_flock_144>)
80002288:	1038                                    	l32i.n	a3, a0, 4
8000228a:	072237                                    	blt	a2, a3, 80002295 <_Unlocksyslock+0x15>
8000228d:	0108                                    	l32i.n	a0, a1, 0
8000228f:	56027044505e                           	{ ret; addi	a1, a1, 16 }

80002295 <_Unlocksyslock+0x15>:
80002295:	60c042                                    	addi	a4, a0, 96
80002298:	b0c11131902e                           	{ call0	80006cdc <_Mtxunlock>; addx4	a2, a2, a4 }
8000229e:	0108                                    	l32i.n	a0, a1, 0
800022a0:	56027044505e                           	{ ret; addi	a1, a1, 16 }

800022a6 <_Unlocksyslock+0x26>:
	...

800022b0 <_Vacopy>:
800022b0:	e0c112                                    	addi	a1, a1, -32
800022b3:	7159                                    	s32i.n	a5, a1, 28
800022b5:	066142                                    	s32i	a4, a1, 24
800022b8:	90044679310e                           	{ s32i	a3, a1, 20; movi	a4, 12 }
800022be:	5210406c010e                           	{ s32i	a0, a1, 0; addi	a0, a1, 20 }
800022c4:	be05c098300e                           	{ nop; or	a3, a0, a0 }
800022ca:	0020f0                                    	nop
800022cd:	047f05                                    	call0	80006ac0 <memcpy>
800022d0:	0108                                    	l32i.n	a0, a1, 0
800022d2:	54427044505e                           	{ ret; addi	a1, a1, 32 }

800022d8 <_Vacopy+0x28>:
	...

800022e0 <_Wctombx>:
800022e0:	d0c112                                    	addi	a1, a1, -48
800022e3:	31c9                                    	s32i.n	a12, a1, 12
800022e5:	51e9                                    	s32i.n	a14, a1, 20
800022e7:	be38093436fe                           	{ l32r	a3, 80000780 (80007940 <initial$8860_1_6>); or	a12, a3, a3 }
800022ed:	7002426c010e                           	{ s32i	a0, a1, 8; l32i	a0, a5, 0 }
800022f3:	41d9                                    	s32i.n	a13, a1, 16
800022f5:	ba36c168f18e                           	{ s32i	a15, a1, 24; or	a13, a2, a2 }
800022fb:	ba31d3a910ae                           	{ bnez	a0, 800023b0 <_Wctombx+0xd0>; or	a15, a6, a6 }
80002301:	182216                                    	beqz	a2, 80002487 <_Wctombx+0x1a7>
80002304:	5400ae25c7ee                           	{ extui	a2, a12, 7, 9; addi	a7, a13, 1 }
8000230a:	4501d5bf420e                           	{ beqz	a2, 800024c2 <_Wctombx+0x1e2>; extui	a3, a12, 11, 5 }
80002310:	bd90569bc30e                           	{ beqz	a3, 800024b0 <_Wctombx+0x1d0>; srli	a4, a12, 12 }
80002316:	900041804d8e                           	{ s8i	a4, a13, 0; movi	a2, 2 }

8000231c <_Wctombx+0x3c>:
8000231c:	b4405180b0ae                           	{ movi	a11, 128; srai	a0, a2, 2 }
80002322:	b292a96020ae                           	{ extui	a6, a2, 0, 2; addx2	a5, a2, a2 }
80002328:	f03d                                    	nop.n
8000232a:	aed6c29f16ce                           	{ loopgtz	a6, 80002345 <_Wctombx+0x65>; slli	a5, a5, 1 }
80002330:	fac552                                    	addi	a5, a5, -6
80002333:	400500                                    	ssr	a5
80002336:	be157596c2de                           	{ sra	a8, a12; or	a6, a11, a11 }
8000233c:	0a5860                                    	depbits	a6, a8, 0, 6
8000233f:	5000c38567ce                           	{ s8i	a6, a7, 0; addi	a7, a7, 1 }

80002345 <_Wctombx+0x65>:
80002345:	0020f0                                    	nop
80002348:	f03d                                    	nop.n
8000234a:	701cc09f10ae                           	{ loopgtz	a0, 8000239b <_Wctombx+0xbb>; l32i	a14, a1, 20 }
80002350:	57eb5a05bb3e                           	{ or	a0, a11, a11; addi	a4, a5, -6 }
80002356:	55f53a46857e                           	{ addi	a8, a5, -12; addi	a9, a5, -18 }
8000235c:	be0bd820003e                           	{ or	a2, a0, a0; or	a3, a0, a0 }

80002362 <_Wctombx+0x82>:
80002362:	c48ada40007e                           	{ or	a4, a0, a0; ssr	a4 }
80002368:	55e47275c25e                           	{ sra	a6, a12; addi	a5, a5, -24 }
8000236e:	c08a9c00067e                           	{ depbits	a0, a6, 0, 6; ssr	a8 }
80002374:	c8004183070e                           	{ s8i	a0, a7, 0; sra	a0, a12 }
8000237a:	c08a9c04207e                           	{ depbits	a2, a0, 0, 6; ssr	a9 }
80002380:	c8004193270e                           	{ s8i	a2, a7, 1; sra	a0, a12 }
80002386:	c08a9a04307e                           	{ depbits	a3, a0, 0, 6; ssr	a5 }
8000238c:	c8024183370e                           	{ s8i	a3, a7, 2; sra	a0, a12 }
80002392:	0a5040                                    	depbits	a4, a0, 0, 6
80002395:	5012439547ce                           	{ s8i	a4, a7, 3; addi	a7, a7, 4 }

8000239b <_Wctombx+0xbb>:
8000239b:	2108                                    	l32i.n	a0, a1, 8
8000239d:	741f5837d7fe                           	{ sub	a2, a7, a13; l32i	a15, a1, 24 }
800023a3:	70124057c14e                           	{ l32i	a12, a1, 12; l32i	a13, a1, 16 }
800023a9:	56427044505e                           	{ ret; addi	a1, a1, 48 }

800023af <_Wctombx+0xcf>:
	...

800023b0 <_Wctombx+0xd0>:
800023b0:	78114268410e                           	{ s32i	a4, a1, 0; l8ui	a0, a4, 6 }
800023b6:	94005032028e                           	{ beqz	a2, 800024da <_Wctombx+0x1fa>; movi	a10, 0 }
800023bc:	9008406ba18e                           	{ s32i	a10, a1, 32; movi	a14, 0 }
800023c2:	9006407be18e                           	{ s32i	a14, a1, 28; movi	a14, 0 }

800023c8 <_Wctombx+0xe8>:
800023c8:	488b4160ab20cf                               	{ bgeui.w15	a0, 16, 80002464 <_Wctombx+0x184>; addx4	a2, a0, a15 }
800023cf:	002222                                    	l32i	a2, a2, 0
800023d2:	016122                                    	s32i	a2, a1, 4
800023d5:	08b216                                    	beqz	a2, 80002464 <_Wctombx+0x184>
800023d8:	ffce45                                    	call0	800020c0 <_Getmbcurmax>
800023db:	072132                                    	l32i	a3, a1, 28
800023de:	54088fe349be                           	{ l32r	a4, 80000784 (fef <XtosCoreStateSize+0x6cf>); addi	a14, a14, 1 }
800023e4:	a04f12f1a423cf                               	{ bge.w15	a3, a2, 80002464 <_Wctombx+0x184>; or	a5, a3, a3 }
800023eb:	45c5b0dbe43e                           	{ blt	a4, a14, 80002464 <_Wctombx+0x184>; extui	a3, a12, 0, 8 }
800023f1:	1148                                    	l32i.n	a4, a1, 4
800023f3:	903340                                    	addx2	a3, a3, a4
800023f6:	001332                                    	l16ui	a3, a3, 0
800023f9:	44c0546073ce                           	{ beqz	a3, 80002464 <_Wctombx+0x184>; extui	a0, a3, 8, 4 }
800023ff:	4015b610f3ce                           	{ bbci	a3, 15, 80002408 <_Wctombx+0x128>; extui	a7, a3, 12, 1 }
80002405:	0a73c0                                    	depbits	a12, a3, 0, 8

80002408 <_Wctombx+0x128>:
80002408:	41df2c23302e                           	{ extui	a2, a3, 0, 8; extui	a6, a12, 8, 8 }
8000240e:	540e9a866cbe                           	{ depbits	a6, a12, 8, 16; addi	a10, a5, 1 }
80002414:	b8383301d3de                           	{ bbci	a3, 13, 80002440 <_Wctombx+0x160>; movnez	a12, a6, a7 }
8000241a:	702858e6d53e                           	{ add	a14, a5, a13; l32i	a8, a1, 32 }
80002420:	ba27c67ba10e                           	{ s32i	a10, a1, 28; or	a11, a12, a12 }
80002426:	b4a55dab227e                           	{ movnez	a11, a2, a2; add	a10, a10, a13 }
8000242c:	5bf1c582be8e                           	{ s8i	a11, a14, 0; addmi	a10, a10, 0xffffff00 }
80002432:	ff0aa2                                    	l8ui	a10, a10, 255
80002435:	190c                                    	movi.n	a9, 1
80002437:	8389a0                                    	moveqz	a8, a9, a10
8000243a:	9008406b818e                           	{ s32i	a8, a1, 32; movi	a14, 0 }

80002440 <_Wctombx+0x160>:
80002440:	04e3e7                                    	bbsi	a3, 14, 80002448 <_Wctombx+0x168>
80002443:	8138                                    	l32i.n	a3, a1, 32
80002445:	f7f316                                    	beqz	a3, 800023c8 <_Wctombx+0xe8>

80002448 <_Wctombx+0x168>:
80002448:	0148                                    	l32i.n	a4, a1, 0
8000244a:	7128                                    	l32i.n	a2, a1, 28
8000244c:	70034074040e                           	{ s16i	a0, a4, 6; l32i	a0, a1, 8 }
80002452:	70124057c14e                           	{ l32i	a12, a1, 12; l32i	a13, a1, 16 }
80002458:	70154057e1ce                           	{ l32i	a14, a1, 20; l32i	a15, a1, 24 }
8000245e:	56427044505e                           	{ ret; addi	a1, a1, 48 }

80002464 <_Wctombx+0x184>:
80002464:	f8c961                                    	l32r	a6, 80000788 (800074b4 <_reent_ptr>)
80002467:	f27c                                    	movi.n	a2, -1
80002469:	70024351c18e                           	{ l32i	a12, a1, 12; l32i	a6, a6, 0 }
8000246f:	70054044d10e                           	{ l32i	a13, a1, 16; l32i	a0, a1, 8 }
80002475:	7410d0275aae                           	{ movi	a5, 42; l32i	a14, a1, 20 }
8000247b:	7011406f56ce                           	{ s32i	a5, a6, 0; l32i	a15, a1, 24 }
80002481:	56427044505e                           	{ ret; addi	a1, a1, 48 }

80002487 <_Wctombx+0x1a7>:
80002487:	020c                                    	movi.n	a2, 0
80002489:	7003c047010e                           	{ l32i	a0, a1, 8; l32i	a12, a1, 12 }
8000248f:	70044146d18e                           	{ l32i	a13, a1, 16; l32i	a10, a3, 0 }
80002495:	6801416ea44e                           	{ s32i	a10, a4, 0; l16ui	a9, a3, 4 }
8000249b:	6803c16594ce                           	{ s16i	a9, a4, 4; l16ui	a7, a3, 6 }
800024a1:	7013407774ce                           	{ s16i	a7, a4, 6; l32i	a15, a1, 24 }
800024a7:	56427044505e                           	{ ret; addi	a1, a1, 48 }

800024ad <_Wctombx+0x1cd>:
800024ad:	000000                                        ...

800024b0 <_Wctombx+0x1d0>:
800024b0:	bda1d3c3e02e                           	{ movi	a14, 192; srli	a11, a12, 6 }
800024b6:	20bbe0                                    	or	a11, a11, a14
800024b9:	004db2                                    	s8i	a11, a13, 0
800024bc:	940e10f45c9e                           	{ j	8000231c <_Wctombx+0x3c>; movi	a2, 1 }

800024c2 <_Wctombx+0x1e2>:
800024c2:	70074044f10e                           	{ l32i	a15, a1, 24; l32i	a0, a1, 8 }
800024c8:	ba814387cd4e                           	{ s8i	a12, a13, 0; sub	a2, a7, a13 }
800024ce:	70124057c14e                           	{ l32i	a12, a1, 12; l32i	a13, a1, 16 }
800024d4:	56427044505e                           	{ ret; addi	a1, a1, 48 }

800024da <_Wctombx+0x1fa>:
800024da:	ba134239830e                           	{ l16ui	a8, a3, 6; or	a6, a4, a4 }
800024e0:	6803417584ce                           	{ s16i	a8, a4, 6; l16ui	a7, a3, 4 }
800024e6:	70024165740e                           	{ s16i	a7, a4, 4; l32i	a4, a3, 0 }
800024ec:	0649                                    	s32i.n	a4, a6, 0
800024ee:	0528                                    	l32i.n	a2, a5, 0
800024f0:	f8a741                                    	l32r	a4, 8000078c (f00 <XtosCoreStateSize+0x5e0>)
800024f3:	7001402c220e                           	{ l16ui	a2, a2, 0; l32i	a0, a1, 8 }
800024f9:	70124057c14e                           	{ l32i	a12, a1, 12; l32i	a13, a1, 16 }
800024ff:	7411304711de                           	{ addi	a1, a1, 48; l32i	a15, a1, 24 }
80002505:	b5037141501e                           	{ ret; and	a2, a2, a4 }

8000250b <_Wctombx+0x22b>:
	...

8000250c <_Wctomb>:
8000250c:	f0c112                                    	addi	a1, a1, -16
8000250f:	31c9                                    	s32i.n	a12, a1, 12
80002511:	be3809882fbe                           	{ l32r	a2, 80000790 (80007884 <_Tls_setup__Mbstate>); or	a12, a2, a2 }
80002517:	70024168018e                           	{ s32i	a0, a1, 8; l32i	a2, a2, 0 }
8000251d:	0139                                    	s32i.n	a3, a1, 0
8000251f:	1149                                    	s32i.n	a4, a1, 4
80002521:	128c                                    	beqz.n	a2, 80002526 <_Wctomb+0x1a>
80002523:	0002c0                                    	callx0	a2
80002526:	f89001                                    	l32r	a0, 80000768 (80007888 <_Mbstate>)
80002529:	030c                                    	movi.n	a3, 0
8000252b:	940630b1308e                           	{ beq	a0, a3, 80002546 <_Wctomb+0x3a>; movi	a6, 0 }
80002531:	1c9c                                    	beqz.n	a12, 80002546 <_Wctomb+0x3a>
80002533:	f89821                                    	l32r	a2, 80000794 (80007ae0 <_Tls_setup__Wcstate>)
80002536:	0228                                    	l32i.n	a2, a2, 0
80002538:	428c                                    	beqz.n	a2, 80002540 <_Wctomb+0x34>
8000253a:	0002c0                                    	callx0	a2
8000253d:	f88a01                                    	l32r	a0, 80000768 (80007888 <_Mbstate>)
80002540:	f89661                                    	l32r	a6, 80000798 (80007ae4 <_Wcstate>)
80002543:	ffffc6                                    	j	80002546 <_Wctomb+0x3a>

80002546 <_Wctomb+0x3a>:
80002546:	7000c045310e                           	{ l32i	a3, a1, 0; l32i	a4, a1, 4 }
8000254c:	be0b5e4b003e                           	{ or	a5, a0, a0; or	a2, a12, a12 }
80002552:	740f90ff633e                           	{ call0	800022e0 <_Wctombx>; l32i	a12, a1, 12 }
80002558:	2108                                    	l32i.n	a0, a1, 8
8000255a:	56027044505e                           	{ ret; addi	a1, a1, 16 }

80002560 <_Atexit>:
80002560:	57c808643e7e                           	{ l32r	a3, 80000718 (80007720 <_Atcount0>); addi	a1, a1, -16 }
80002566:	016102                                    	s32i	a0, a1, 4
80002569:	f88c01                                    	l32r	a0, 8000079c (80007368 <_Atcount>)
8000256c:	f88d81                                    	l32r	a8, 800007a0 (80007364 <_Atfuns>)
8000256f:	70004041334e                           	{ l32i	a3, a3, 0; l32i	a5, a0, 0 }
80002575:	002882                                    	l32i	a8, a8, 0
80002578:	53fdb2e553de                           	{ bltu	a3, a5, 800025a8 <_Atexit+0x48>; addi	a7, a5, -1 }
8000257e:	006122                                    	s32i	a2, a1, 0
80002581:	fe4bc5                                    	call0	80000a40 <_Atrealloc>
80002584:	7400d02c220e                           	{ beqz	a2, 800025ba <_Atexit+0x5a>; l32i	a0, a1, 4 }
8000258a:	f88471                                    	l32r	a7, 8000079c (80007368 <_Atcount>)
8000258d:	f88461                                    	l32r	a6, 800007a0 (80007364 <_Atfuns>)
80002590:	0758                                    	l32i.n	a5, a7, 0
80002592:	0668                                    	l32i.n	a6, a6, 0
80002594:	740e3855553e                           	{ addi	a5, a5, -1; l32i	a4, a1, 0 }
8000259a:	b0d0c26d578e                           	{ s32i	a5, a7, 0; addx4	a5, a5, a6 }
800025a0:	0549                                    	s32i.n	a4, a5, 0
800025a2:	56027044505e                           	{ ret; addi	a1, a1, 16 }

800025a8 <_Atexit+0x48>:
800025a8:	7000c06c700e                           	{ s32i	a7, a0, 0; l32i	a0, a1, 4 }
800025ae:	a07780                                    	addx4	a7, a7, a8
800025b1:	0729                                    	s32i.n	a2, a7, 0
800025b3:	56027044505e                           	{ ret; addi	a1, a1, 16 }

800025b9 <_Atexit+0x59>:
	...

800025ba <_Atexit+0x5a>:
800025ba:	001545                                    	call0	80002710 <abort>

800025bd <_Atexit+0x5d>:
800025bd:	000000                                        ...

800025c0 <set_constraint_handler_s>:
800025c0:	f0c112                                    	addi	a1, a1, -16
800025c3:	016102                                    	s32i	a0, a1, 4
800025c6:	006122                                    	s32i	a2, a1, 0
800025c9:	940e10fc1bbe                           	{ call0	80002238 <_Locksyslock>; movi	a2, 1 }
800025cf:	f87521                                    	l32r	a2, 800007a4 (80007948 <sec_hand_144>)
800025d2:	002232                                    	l32i	a3, a2, 0
800025d5:	7002406c310e                           	{ s32i	a3, a1, 8; l32i	a0, a1, 0 }
800025db:	006202                                    	s32i	a0, a2, 0
800025de:	940e10fc28be                           	{ call0	80002280 <_Unlocksyslock>; movi	a2, 1 }
800025e4:	012102                                    	l32i	a0, a1, 4
800025e7:	022122                                    	l32i	a2, a1, 8
800025ea:	56027044505e                           	{ ret; addi	a1, a1, 16 }

800025f0 <abort_handler_s>:
800025f0:	57c808643e7e                           	{ l32r	a3, 800007a8 (80007400 <_Stderr>); addi	a1, a1, -16 }
800025f6:	0109                                    	s32i.n	a0, a1, 0
800025f8:	0020f0                                    	nop
800025fb:	001d45                                    	call0	800027d0 <fputs>
800025fe:	f86a31                                    	l32r	a3, 800007a8 (80007400 <_Stderr>)
80002601:	0020f0                                    	nop
80002604:	900015004aae                           	{ call0	80002730 <fputc>; movi	a2, 10 }
8000260a:	0020f0                                    	nop
8000260d:	001005                                    	call0	80002710 <abort>

80002610 <ignore_handler_s>:
80002610:	f00d                                    	ret.n

80002612 <ignore_handler_s+0x2>:
	...

80002614 <_Fail_s>:
80002614:	f0c112                                    	addi	a1, a1, -16
80002617:	006102                                    	s32i	a0, a1, 0
8000261a:	0161c2                                    	s32i	a12, a1, 4
8000261d:	be305100c28e                           	{ beqz	a2, 8000262d <_Fail_s+0x19>; or	a12, a2, a2 }
80002623:	046bc5                                    	call0	80006ce0 <strnlen_s>
80002626:	02ca                                    	add.n	a0, a2, a12
80002628:	000002                                    	l8ui	a0, a0, 0
8000262b:	108c                                    	beqz.n	a0, 80002630 <_Fail_s+0x1c>

8000262d <_Fail_s+0x19>:
8000262d:	f85fc1                                    	l32r	a12, 800007ac (80000628 <_Zero+0x78>)

80002630 <_Fail_s+0x1c>:
80002630:	f85d61                                    	l32r	a6, 800007a4 (80007948 <sec_hand_144>)
80002633:	0668                                    	l32i.n	a6, a6, 0
80002635:	c69c                                    	beqz.n	a6, 80002655 <_Fail_s+0x41>
80002637:	94015101302e                           	{ movi	a3, 0; movi	a4, 34 }
8000263d:	be037643261e                           	{ callx0	a6; or	a2, a12, a12 }
80002643:	0108                                    	l32i.n	a0, a1, 0
80002645:	90014150c18e                           	{ l32i	a12, a1, 4; movi	a2, 34 }
8000264b:	56027044505e                           	{ ret; addi	a1, a1, 16 }

80002651 <_Fail_s+0x3d>:
80002651:	000000                                        ...

80002654 <_Fail_s+0x40>:
	...

80002655 <_Fail_s+0x41>:
80002655:	be090e4b343e                           	{ l32r	a3, 800007a8 (80007400 <_Stderr>); or	a2, a12, a12 }
8000265b:	700090075d2e                           	{ call0	800027d0 <fputs>; l32i	a12, a1, 4 }
80002661:	f85131                                    	l32r	a3, 800007a8 (80007400 <_Stderr>)
80002664:	9000150032ae                           	{ call0	80002730 <fputc>; movi	a2, 10 }
8000266a:	0108                                    	l32i.n	a0, a1, 0
8000266c:	222c                                    	movi.n	a2, 34
8000266e:	56027044505e                           	{ ret; addi	a1, a1, 16 }

80002674 <_Fail_s+0x60>:
	...

80002680 <__clibrary_init>:
80002680:	57c808442c7e                           	{ l32r	a2, 800007b0 (8000794c <__progname>); addi	a1, a1, -16 }
80002686:	006102                                    	s32i	a0, a1, 0
80002689:	0161c2                                    	s32i	a12, a1, 4
8000268c:	ba324369d18e                           	{ s32i	a13, a1, 8; or	a12, a6, a6 }
80002692:	be30d205834e                           	{ beqz	a3, 8000269e <__clibrary_init+0x1e>; or	a13, a5, a5 }
80002698:	002302                                    	l32i	a0, a3, 0
8000269b:	006202                                    	s32i	a0, a2, 0

8000269e <__clibrary_init+0x1e>:
8000269e:	f84531                                    	l32r	a3, 800007b4 (800074d8 <environ>)
800026a1:	006342                                    	s32i	a4, a3, 0
800026a4:	000585                                    	call0	80002700 <_init_reent_bss>
800026a7:	002d16                                    	beqz	a13, 800026ad <__clibrary_init+0x2d>
800026aa:	000dc0                                    	callx0	a13

800026ad <__clibrary_init+0x2d>:
800026ad:	740150078c4e                           	{ beqz	a12, 800026b9 <__clibrary_init+0x39>; l32i	a13, a1, 8 }
800026b3:	be0f169b0b3e                           	{ call0	80000ae0 <atexit>; or	a2, a12, a12 }

800026b9 <__clibrary_init+0x39>:
800026b9:	0108                                    	l32i.n	a0, a1, 0
800026bb:	11c8                                    	l32i.n	a12, a1, 4
800026bd:	56027044505e                           	{ ret; addi	a1, a1, 16 }

800026c3 <__clibrary_init+0x43>:
	...

800026d0 <_init_reent>:
800026d0:	f0c112                                    	addi	a1, a1, -16
800026d3:	9000406801ce                           	{ s32i	a0, a1, 0; movi	a3, 0 }
800026d9:	9031c279c10e                           	{ s32i	a12, a1, 4; movi	a4, 244 }
800026df:	0020f0                                    	nop
800026e2:	ba3011184eae                           	{ call0	80006c1c <memset>; or	a12, a2, a2 }
800026e8:	f83401                                    	l32r	a0, 800007b8 (8000067c <_Zero+0xcc>)
800026eb:	7000407c0c0e                           	{ s32i	a0, a12, 4; l32i	a0, a1, 0 }
800026f1:	120c                                    	movi.n	a2, 1
800026f3:	740ac07f2c0e                           	{ s32i	a2, a12, 108; l32i	a12, a1, 4 }
800026f9:	56027044505e                           	{ ret; addi	a1, a1, 16 }

800026ff <_init_reent+0x2f>:
	...

80002700 <_init_reent_bss>:
80002700:	f82f31                                    	l32r	a3, 800007bc (80007950 <g_reent_145>)
80002703:	940808252d3e                           	{ l32r	a2, 800007b8 (8000067c <_Zero+0xcc>); movi	a4, 1 }
80002709:	1b6342                                    	s32i	a4, a3, 108
8000270c:	1329                                    	s32i.n	a2, a3, 4
8000270e:	f00d                                    	ret.n

80002710 <abort>:
80002710:	f0c112                                    	addi	a1, a1, -16
80002713:	0109                                    	s32i.n	a0, a1, 0
80002715:	9000930862ae                           	{ call0	80002ca0 <raise>; movi	a2, 22 }
8000271b:	940e109c49be                           	{ call0	80000c40 <_Exit>; movi	a2, 1 }

80002721 <abort+0x11>:
	...

80002730 <fputc>:
80002730:	f0c112                                    	addi	a1, a1, -16
80002733:	21d9                                    	s32i.n	a13, a1, 8
80002735:	ba34c150238e                           	{ l32i	a2, a3, 20; or	a13, a2, a2 }
8000273b:	7001c16c010e                           	{ s32i	a0, a1, 0; l32i	a0, a3, 12 }
80002741:	11c9                                    	s32i.n	a12, a1, 4
80002743:	be3831d420de                           	{ bgeu	a0, a2, 80002780 <fputc+0x50>; or	a12, a3, a3 }

80002749 <fputc+0x19>:
80002749:	0040d2                                    	s8i	a13, a0, 0
8000274c:	3c38                                    	l32i.n	a3, a12, 12
8000274e:	001c02                                    	l16ui	a0, a12, 0
80002751:	331b                                    	addi.n	a3, a3, 1
80002753:	3c39                                    	s32i.n	a3, a12, 12
80002755:	45c93023b05e                           	{ bbsi	a0, 11, 80002791 <fputc+0x61>; extui	a2, a13, 0, 8 }
8000275b:	0260a7                                    	bbci	a0, 10, 80002761 <fputc+0x31>
8000275e:	2f9226                                    	beqi	a2, 10, 80002791 <fputc+0x61>

80002761 <fputc+0x31>:
80002761:	700328470a6e                           	{ extui	a4, a0, 10, 2; l32i	a13, a1, 8 }
80002767:	74005044a40e                           	{ beqz	a4, 800027b5 <fputc+0x85>; l32i	a0, a1, 0 }
8000276d:	3c58                                    	l32i.n	a5, a12, 12
8000276f:	7004c07f5c0e                           	{ s32i	a5, a12, 20; l32i	a12, a1, 4 }
80002775:	56027044505e                           	{ ret; addi	a1, a1, 16 }

8000277b <fputc+0x4b>:
8000277b:	00000000 0c97ee00                                .....

80002780 <fputc+0x50>:
80002780:	ba01110c97ee                           	{ call0	80002de0 <_Fwprep>; or	a2, a3, a3 }
80002786:	00f296                                    	bltz	a2, 80002799 <fputc+0x69>
80002789:	3c08                                    	l32i.n	a0, a12, 12
8000278b:	ffee86                                    	j	80002749 <fputc+0x19>

8000278e <fputc+0x5e>:
8000278e:	000000                                        ...

80002791 <fputc+0x61>:
80002791:	ba0116638f2e                           	{ call0	800041d0 <fflush>; or	a2, a12, a12 }
80002797:	129c                                    	beqz.n	a2, 800027ac <fputc+0x7c>

80002799 <fputc+0x69>:
80002799:	0108                                    	l32i.n	a0, a1, 0
8000279b:	f27c                                    	movi.n	a2, -1
8000279d:	70014057c14e                           	{ l32i	a12, a1, 4; l32i	a13, a1, 8 }
800027a3:	56027044505e                           	{ ret; addi	a1, a1, 16 }

800027a9 <fputc+0x79>:
800027a9:	000000                                        ...

800027ac <fputc+0x7c>:
800027ac:	001c02                                    	l16ui	a0, a12, 0
800027af:	45cf10fbae5e                           	{ j	80002761 <fputc+0x31>; extui	a2, a13, 0, 8 }

800027b5 <fputc+0x85>:
800027b5:	0108                                    	l32i.n	a0, a1, 0
800027b7:	70014057c14e                           	{ l32i	a12, a1, 4; l32i	a13, a1, 8 }
800027bd:	56027044505e                           	{ ret; addi	a1, a1, 16 }

800027c3 <fputc+0x93>:
	...

800027d0 <fputs>:
800027d0:	e0c112                                    	addi	a1, a1, -32
800027d3:	31e9                                    	s32i.n	a14, a1, 12
800027d5:	41f9                                    	s32i.n	a15, a1, 16
800027d7:	78004168010e                           	{ s32i	a0, a1, 0; l8ui	a0, a2, 0 }
800027dd:	21d9                                    	s32i.n	a13, a1, 8
800027df:	ba30c17cc1ce                           	{ s32i	a12, a1, 4; or	a13, a3, a3 }
800027e5:	be3051a8108e                           	{ beqz	a0, 8000289a <fputs+0xca>; or	a12, a2, a2 }

800027eb <fputs+0x1b>:
800027eb:	7005c6543d8e                           	{ l32i	a3, a13, 20; l32i	a2, a13, 12 }
800027f1:	680236c5321e                           	{ bgeu	a2, a3, 80002817 <fputs+0x47>; l16ui	a4, a13, 0 }
800027f7:	940a3003a4de                           	{ bbci	a4, 10, 80002835 <fputs+0x65>; movi	a15, 0 }

800027fd <fputs+0x2d>:
800027fd:	0c2d                                    	mov.n	a2, a12
800027ff:	900015182cee                           	{ call0	80006cb0 <strrchr>; movi	a3, 10 }
80002805:	02fd                                    	mov.n	a15, a2

80002807 <fputs+0x37>:
80002807:	beb15727af0e                           	{ beqz	a15, 80002835 <fputs+0x65>; sub	a14, a15, a12 }
8000280d:	500097032f8e                           	{ j	80002840 <fputs+0x70>; addi	a14, a14, 1 }

80002813 <fputs+0x43>:
80002813:	000000                                        ...

80002816 <fputs+0x46>:
	...

80002817 <fputs+0x47>:
80002817:	ba01160f726e                           	{ call0	80002de0 <_Fwprep>; or	a2, a13, a13 }
8000281d:	05f296                                    	bltz	a2, 80002880 <fputs+0xb0>
80002820:	001df2                                    	l16ui	a15, a13, 0
80002823:	d6efa7                                    	bbsi	a15, 10, 800027fd <fputs+0x2d>
80002826:	940e10fbddde                           	{ j	80002807 <fputs+0x37>; movi	a15, 0 }

8000282c <fputs+0x5c>:
8000282c:	000000                                        ...

8000282f <fputs+0x5f>:
8000282f:	00000000 20f00000                                ......

80002835 <fputs+0x65>:
80002835:	0020f0                                    	nop
80002838:	ba01160b492e                           	{ call0	80002d60 <strlen>; or	a2, a12, a12 }
8000283e:	02ed                                    	mov.n	a14, a2

80002840 <fputs+0x70>:
80002840:	7012c6542d0e                           	{ l32i	a2, a13, 12; l32i	a0, a13, 20 }
80002846:	c00020                                    	sub	a0, a0, a2
80002849:	05b0e7                                    	bgeu	a0, a14, 80002852 <fputs+0x82>
8000284c:	940a58e300fe                           	{ or	a14, a0, a0; movi	a15, 0 }

80002852 <fputs+0x82>:
80002852:	203cc0                                    	or	a3, a12, a12
80002855:	ba1017139aae                           	{ call0	80006ac0 <memcpy>; or	a4, a14, a14 }
8000285b:	032d22                                    	l32i	a2, a13, 12
8000285e:	8022e0                                    	add	a2, a2, a14
80002861:	3d29                                    	s32i.n	a2, a13, 12
80002863:	b4b05603af8e                           	{ beqz	a15, 80002871 <fputs+0xa1>; add	a12, a12, a14 }
80002869:	ba011667596e                           	{ call0	800041d0 <fflush>; or	a2, a13, a13 }
8000286f:	d2cc                                    	bnez.n	a2, 80002880 <fputs+0xb0>
80002871:	000c32                                    	l8ui	a3, a12, 0
80002874:	f73356                                    	bnez	a3, 800027eb <fputs+0x1b>
80002877:	0007c6                                    	j	8000289a <fputs+0xca>

8000287a <fputs+0xaa>:
8000287a:	000000                                        ...

8000287d <fputs+0xad>:
8000287d:	000000                                        ...

80002880 <fputs+0xb0>:
80002880:	93f1c744018e                           	{ l32i	a0, a1, 0; movi	a2, -1 }
80002886:	70014057c14e                           	{ l32i	a12, a1, 4; l32i	a13, a1, 8 }
8000288c:	70124057e1ce                           	{ l32i	a14, a1, 12; l32i	a15, a1, 16 }
80002892:	54427044505e                           	{ ret; addi	a1, a1, 32 }

80002898 <fputs+0xc8>:
	...

8000289a <fputs+0xca>:
8000289a:	001d02                                    	l16ui	a0, a13, 0
8000289d:	23e0b7                                    	bbsi	a0, 11, 800028c4 <fputs+0xf4>

800028a0 <fputs+0xd0>:
800028a0:	900228400aae                           	{ extui	a4, a0, 10, 2; movi	a2, 0 }
800028a6:	7400d027c40e                           	{ beqz	a4, 800028d6 <fputs+0x106>; l32i	a12, a1, 4 }
800028ac:	70044044f10e                           	{ l32i	a15, a1, 16; l32i	a0, a1, 0 }
800028b2:	7003c655e14e                           	{ l32i	a14, a1, 12; l32i	a5, a13, 12 }
800028b8:	7005407f5d4e                           	{ s32i	a5, a13, 20; l32i	a13, a1, 8 }
800028be:	54427044505e                           	{ ret; addi	a1, a1, 32 }

800028c4 <fputs+0xf4>:
800028c4:	ba011667426e                           	{ call0	800041d0 <fflush>; or	a2, a13, a13 }
800028ca:	fb2256                                    	bnez	a2, 80002880 <fputs+0xb0>
800028cd:	001d02                                    	l16ui	a0, a13, 0
800028d0:	fff306                                    	j	800028a0 <fputs+0xd0>

800028d3 <fputs+0x103>:
800028d3:	000000                                        ...

800028d6 <fputs+0x106>:
800028d6:	90004040018e                           	{ l32i	a0, a1, 0; movi	a2, 0 }
800028dc:	70014057c14e                           	{ l32i	a12, a1, 4; l32i	a13, a1, 8 }
800028e2:	70124057e1ce                           	{ l32i	a14, a1, 12; l32i	a15, a1, 16 }
800028e8:	54427044505e                           	{ ret; addi	a1, a1, 32 }

800028ee <fputs+0x11e>:
	...

800028f0 <free>:
800028f0:	f0c112                                    	addi	a1, a1, -16
800028f3:	006102                                    	s32i	a0, a1, 0
800028f6:	5bf1c179c14e                           	{ s32i	a12, a1, 4; addmi	a5, a2, 0xffffff00 }
800028fc:	57c0514b920e                           	{ beqz	a2, 80002959 <free+0x69>; addi	a12, a2, -16 }
80002902:	3c2552                                    	l32i	a5, a5, 240
80002905:	940067ad45ae                           	{ bltui	a5, 16, 80002959 <free+0x69>; movi	a6, 15 }
8000290b:	0261c2                                    	s32i	a12, a1, 8
8000290e:	478657                                    	bany	a6, a5, 80002959 <free+0x69>
80002911:	940e10f449be                           	{ call0	80002238 <_Locksyslock>; movi	a2, 1 }
80002917:	f7aa61                                    	l32r	a6, 800007c0 (80007a44 <_Aldata>)
8000291a:	012652                                    	l32i	a5, a6, 4
8000291d:	74015004550e                           	{ beqz	a5, 80002926 <free+0x36>; l32i	a0, a1, 8 }
80002923:	3cbc57                                    	bgeu	a12, a5, 80002963 <free+0x73>

80002926 <free+0x36>:
80002926:	016c52                                    	s32i	a5, a12, 4
80002929:	0166c2                                    	s32i	a12, a6, 4

8000292c <free+0x3c>:
8000292c:	7000405120ce                           	{ l32i	a2, a0, 4; l32i	a7, a0, 0 }
80002932:	b491d30cd20e                           	{ beqz	a2, 80002953 <free+0x63>; add	a7, a7, a0 }
80002938:	9406401272ce                           	{ bne	a2, a7, 80002953 <free+0x63>; movi	a11, 0 }
8000293e:	0066b2                                    	s32i	a11, a6, 0
80002941:	1088                                    	l32i.n	a8, a0, 4
80002943:	70004442a04e                           	{ l32i	a10, a0, 0; l32i	a9, a8, 0 }
80002949:	99aa                                    	add.n	a9, a9, a10
8000294b:	0099                                    	s32i.n	a9, a0, 0
8000294d:	012882                                    	l32i	a8, a8, 4
80002950:	016082                                    	s32i	a8, a0, 4
80002953:	940e10f44bbe                           	{ call0	80002280 <_Unlocksyslock>; movi	a2, 1 }

80002959 <free+0x69>:
80002959:	0108                                    	l32i.n	a0, a1, 0
8000295b:	11c8                                    	l32i.n	a12, a1, 4
8000295d:	56027044505e                           	{ ret; addi	a1, a1, 16 }

80002963 <free+0x73>:
80002963:	1528                                    	l32i.n	a2, a5, 4
80002965:	c28c                                    	beqz.n	a2, 80002975 <free+0x85>
80002967:	0ab2c7                                    	bgeu	a2, a12, 80002975 <free+0x85>

8000296a <free+0x7a>:
8000296a:	ba10c150228e                           	{ l32i	a2, a2, 4; or	a5, a2, a2 }
80002970:	128c                                    	beqz.n	a2, 80002975 <free+0x85>
80002972:	f432c7                                    	bltu	a2, a12, 8000296a <free+0x7a>
80002975:	0578                                    	l32i.n	a7, a5, 0
80002977:	275a                                    	add.n	a2, a7, a5
80002979:	233c27                                    	bltu	a12, a2, 800029a0 <free+0xb0>
8000297c:	0b9c27                                    	bne	a12, a2, 8000298b <free+0x9b>
8000297f:	0c08                                    	l32i.n	a0, a12, 0
80002981:	007a                                    	add.n	a0, a0, a7
80002983:	0509                                    	s32i.n	a0, a5, 0
80002985:	be0e12fda35e                           	{ j	8000292c <free+0x3c>; or	a0, a5, a5 }

8000298b <free+0x9b>:
8000298b:	1528                                    	l32i.n	a2, a5, 4
8000298d:	528c                                    	beqz.n	a2, 80002996 <free+0xa6>
8000298f:	0c38                                    	l32i.n	a3, a12, 0
80002991:	33ca                                    	add.n	a3, a3, a12
80002993:	1c3237                                    	bltu	a2, a3, 800029b3 <free+0xc3>
80002996:	1c29                                    	s32i.n	a2, a12, 4
80002998:	15c9                                    	s32i.n	a12, a5, 4
8000299a:	ffe386                                    	j	8000292c <free+0x3c>

8000299d <free+0xad>:
8000299d:	000000                                        ...

800029a0 <free+0xb0>:
800029a0:	940e10f437be                           	{ call0	80002280 <_Unlocksyslock>; movi	a2, 1 }
800029a6:	0108                                    	l32i.n	a0, a1, 0
800029a8:	11c8                                    	l32i.n	a12, a1, 4
800029aa:	56027044505e                           	{ ret; addi	a1, a1, 16 }

800029b0 <free+0xc0>:
800029b0:	000000                                        ...

800029b3 <free+0xc3>:
800029b3:	940e10f433be                           	{ call0	80002280 <_Unlocksyslock>; movi	a2, 1 }
800029b9:	0108                                    	l32i.n	a0, a1, 0
800029bb:	11c8                                    	l32i.n	a12, a1, 4
800029bd:	56027044505e                           	{ ret; addi	a1, a1, 16 }

800029c3 <free+0xd3>:
	...

800029d0 <fwrite>:
800029d0:	e0c112                                    	addi	a1, a1, -32
800029d3:	0661f2                                    	s32i	a15, a1, 24
800029d6:	0561e2                                    	s32i	a14, a1, 20
800029d9:	026102                                    	s32i	a0, a1, 8
800029dc:	41d9                                    	s32i.n	a13, a1, 16
800029de:	be36da15437e                           	{ mull	a0, a3, a4; or	a13, a5, a5 }
800029e4:	ba334178c18e                           	{ s32i	a12, a1, 12; or	a14, a2, a2 }
800029ea:	be305018700e                           	{ beqz	a0, 80002b05 <fwrite+0x135>; or	a12, a0, a0 }
800029f0:	125316                                    	beqz	a3, 80002b19 <fwrite+0x149>
800029f3:	1109                                    	s32i.n	a0, a1, 4
800029f5:	006132                                    	s32i	a3, a1, 0
800029f8:	0dc016                                    	beqz	a0, 80002ad8 <fwrite+0x108>

800029fb <fwrite+0x2b>:
800029fb:	7005c6540d8e                           	{ l32i	a0, a13, 20; l32i	a2, a13, 12 }
80002a01:	001d32                                    	l16ui	a3, a13, 0
80002a04:	6fb207                                    	bgeu	a2, a0, 80002a77 <fwrite+0xa7>
80002a07:	be844098308e                           	{ nop; sub	a0, a0, a2 }
80002a0d:	e044027c10a38f                               	{ bbci.w15	a3, 10, 80002a90 <fwrite+0xc0>; nop }

80002a14 <fwrite+0x44>:
80002a14:	940a5d20eefe                           	{ or	a2, a14, a14; movi	a3, 10 }
80002a1a:	ba1016136d2e                           	{ call0	80006bd0 <memchr>; or	a4, a12, a12 }
80002a20:	024d                                    	mov.n	a4, a2

80002a22 <fwrite+0x52>:
80002a22:	7012c6542d0e                           	{ l32i	a2, a13, 12; l32i	a0, a13, 20 }
80002a28:	c0f4e0                                    	sub	a15, a4, a14
80002a2b:	5006c77f41ce                           	{ s32i	a4, a1, 28; addi	a15, a15, 1 }
80002a31:	be8058f84cbe                           	{ moveqz	a15, a12, a4; sub	a0, a0, a2 }
80002a37:	07b0f7                                    	bgeu	a0, a15, 80002a42 <fwrite+0x72>

80002a3a <fwrite+0x6a>:
80002a3a:	030c                                    	movi.n	a3, 0
80002a3c:	ba37c078310e                           	{ s32i	a3, a1, 28; or	a15, a0, a0 }

80002a42 <fwrite+0x72>:
80002a42:	203ee0                                    	or	a3, a14, a14
80002a45:	ba1017171eee                           	{ call0	80006ac0 <memcpy>; or	a4, a15, a15 }
80002a4b:	032d52                                    	l32i	a5, a13, 12
80002a4e:	072142                                    	l32i	a4, a1, 28
80002a51:	1d68                                    	l32i.n	a6, a13, 4
80002a53:	b098dae7fefe                           	{ add	a14, a14, a15; add	a5, a5, a15 }
80002a59:	bab2467b5dce                           	{ s32i	a5, a13, 12; sub	a12, a12, a15 }
80002a5f:	beb1d205a48e                           	{ beqz	a4, 80002a6d <fwrite+0x9d>; sub	a15, a5, a6 }
80002a65:	ba01164fda6e                           	{ call0	800041d0 <fflush>; or	a2, a13, a13 }
80002a6b:	12fc                                    	bnez.n	a2, 80002aa0 <fwrite+0xd0>
80002a6d:	f8ac56                                    	bnez	a12, 800029fb <fwrite+0x2b>
80002a70:	001906                                    	j	80002ad8 <fwrite+0x108>

80002a73 <fwrite+0xa3>:
80002a73:	000000                                        ...

80002a76 <fwrite+0xa6>:
	...

80002a77 <fwrite+0xa7>:
80002a77:	ba011607da6e                           	{ call0	80002de0 <_Fwprep>; or	a2, a13, a13 }
80002a7d:	01d296                                    	bltz	a2, 80002a9e <fwrite+0xce>
80002a80:	001d62                                    	l16ui	a6, a13, 0
80002a83:	900c3831a60e                           	{ bbsi	a6, 10, 80002a14 <fwrite+0x44>; movi	a4, 0 }
80002a89:	ffe546                                    	j	80002a22 <fwrite+0x52>

80002a8c <fwrite+0xbc>:
80002a8c:	000000                                        ...

80002a8f <fwrite+0xbf>:
	...

80002a90 <fwrite+0xc0>:
80002a90:	ba37bee3c01e                           	{ bltu	a0, a12, 80002a3a <fwrite+0x6a>; or	a15, a12, a12 }
80002a96:	070c                                    	movi.n	a7, 0
80002a98:	7179                                    	s32i.n	a7, a1, 28
80002a9a:	ffe906                                    	j	80002a42 <fwrite+0x72>

80002a9d <fwrite+0xcd>:
	...

80002a9e <fwrite+0xce>:
80002a9e:	0f0c                                    	movi.n	a15, 0

80002aa0 <fwrite+0xd0>:
80002aa0:	001d02                                    	l16ui	a0, a13, 0
80002aa3:	0260b7                                    	bbci	a0, 11, 80002aa9 <fwrite+0xd9>
80002aa6:	086f16                                    	beqz	a15, 80002b30 <fwrite+0x160>

80002aa9 <fwrite+0xd9>:
80002aa9:	b0b22e830aee                           	{ extui	a8, a0, 10, 2; add	a12, a12, a15 }
80002aaf:	7401502c180e                           	{ beqz	a8, 80002ae4 <fwrite+0x114>; l32i	a0, a1, 8 }
80002ab5:	61f8                                    	l32i.n	a15, a1, 24
80002ab7:	7001c65421ce                           	{ l32i	a2, a1, 4; l32i	a3, a13, 12 }
80002abd:	7004407c3dce                           	{ s32i	a3, a13, 20; l32i	a3, a1, 0 }
80002ac3:	70144057e14e                           	{ l32i	a14, a1, 20; l32i	a13, a1, 16 }
80002ac9:	ba834153c10e                           	{ l32i	a12, a1, 12; sub	a2, a2, a12 }
80002acf:	c22230                                    	quou	a2, a2, a3
80002ad2:	54427044505e                           	{ ret; addi	a1, a1, 32 }

80002ad8 <fwrite+0x108>:
80002ad8:	001d02                                    	l16ui	a0, a13, 0
80002adb:	94003033b0ee                           	{ bbsi	a0, 11, 80002b30 <fwrite+0x160>; movi	a15, 0 }
80002ae1:	fff106                                    	j	80002aa9 <fwrite+0xd9>

80002ae4 <fwrite+0x114>:
80002ae4:	7004c044d18e                           	{ l32i	a13, a1, 16; l32i	a2, a1, 4 }
80002aea:	70044054e1ce                           	{ l32i	a14, a1, 20; l32i	a3, a1, 0 }
80002af0:	70074044f10e                           	{ l32i	a15, a1, 24; l32i	a0, a1, 8 }
80002af6:	ba834153c10e                           	{ l32i	a12, a1, 12; sub	a2, a2, a12 }
80002afc:	c22230                                    	quou	a2, a2, a3
80002aff:	54427044505e                           	{ ret; addi	a1, a1, 32 }

80002b05 <fwrite+0x135>:
80002b05:	2108                                    	l32i.n	a0, a1, 8
80002b07:	90024050c18e                           	{ l32i	a12, a1, 12; movi	a2, 0 }
80002b0d:	7014c047d18e                           	{ l32i	a13, a1, 16; l32i	a14, a1, 20 }
80002b13:	54427044505e                           	{ ret; addi	a1, a1, 32 }

80002b19 <fwrite+0x149>:
80002b19:	2108                                    	l32i.n	a0, a1, 8
80002b1b:	ba034251c10e                           	{ l32i	a12, a1, 12; or	a2, a4, a4 }
80002b21:	7014c047d18e                           	{ l32i	a13, a1, 16; l32i	a14, a1, 20 }
80002b27:	54427044505e                           	{ ret; addi	a1, a1, 32 }

80002b2d <fwrite+0x15d>:
80002b2d:	000000                                        ...

80002b30 <fwrite+0x160>:
80002b30:	7001c6570dce                           	{ l32i	a0, a13, 4; l32i	a15, a13, 12 }
80002b36:	0d2d                                    	mov.n	a2, a13
80002b38:	beb5c79c300e                           	{ nop; sub	a15, a15, a0 }
80002b3e:	0020f0                                    	nop
80002b41:	0168c5                                    	call0	800041d0 <fflush>
80002b44:	6c005604302e                           	{ movi	a3, 0; l16ui	a0, a13, 0 }
80002b4a:	b7bf91fc5b9e                           	{ j	80002aa9 <fwrite+0xd9>; moveqz	a15, a3, a2 }

80002b50 <malloc>:
80002b50:	f0c112                                    	addi	a1, a1, -16
80002b53:	0261d2                                    	s32i	a13, a1, 8
80002b56:	0161c2                                    	s32i	a12, a1, 4
80002b59:	ba304168018e                           	{ s32i	a0, a1, 0; or	a12, a2, a2 }
80002b5f:	940e10dcb6be                           	{ call0	80002238 <_Locksyslock>; movi	a2, 1 }
80002b65:	97ffb0500c8e                           	{ addi	a0, a12, 31; movi	a2, -16 }
80002b6b:	100020                                    	and	a0, a0, a2
80002b6e:	e104003c880c8f                               	{ bgeu.w15	a12, a0, 80002c80 <malloc+0x130>; nop }
80002b75:	f71351                                    	l32r	a5, 800007c4 (80007a48 <_Aldata+0x4>)
80002b78:	10a0c2                                    	movi	a12, 16
80002b7b:	53fe5ac40cbe                           	{ maxu	a12, a12, a0; addi	a2, a5, -4 }

80002b81 <malloc+0x31>:
80002b81:	0278                                    	l32i.n	a7, a2, 0
80002b83:	0b6716                                    	beqz	a7, 80002c3d <malloc+0xed>
80002b86:	0788                                    	l32i.n	a8, a7, 0
80002b88:	0a4816                                    	beqz	a8, 80002c30 <malloc+0xe0>
80002b8b:	086d                                    	mov.n	a6, a8
80002b8d:	0d8076                                    	loop	a0, 80002b9e <malloc+0x4e>
80002b90:	0608                                    	l32i.n	a0, a6, 0
80002b92:	1db0c7                                    	bgeu	a0, a12, 80002bb3 <malloc+0x63>
80002b95:	5010435166ce                           	{ l32i	a6, a6, 4; addi	a7, a6, 4 }
80002b9b:	091616                                    	beqz	a6, 80002c30 <malloc+0xe0>

80002b9e <malloc+0x4e>:
80002b9e:	fffac6                                    	j	80002b8d <malloc+0x3d>

80002ba1 <malloc+0x51>:
80002ba1:	5010435166ce                           	{ l32i	a6, a6, 4; addi	a7, a6, 4 }
80002ba7:	e084023c80868f                               	{ beq.w15	a6, a8, 80002c59 <malloc+0x109>; nop }

80002bae <malloc+0x5e>:
80002bae:	0638                                    	l32i.n	a3, a6, 0
80002bb0:	ed33c7                                    	bltu	a3, a12, 80002ba1 <malloc+0x51>

80002bb3 <malloc+0x63>:
80002bb3:	05d716                                    	beqz	a7, 80002c14 <malloc+0xc4>
80002bb6:	07d8                                    	l32i.n	a13, a7, 0
80002bb8:	0d48                                    	l32i.n	a4, a13, 0
80002bba:	f0c442                                    	addi	a4, a4, -16
80002bbd:	06b4c7                                    	bgeu	a4, a12, 80002bc7 <malloc+0x77>
80002bc0:	1d08                                    	l32i.n	a0, a13, 4
80002bc2:	0709                                    	s32i.n	a0, a7, 0
80002bc4:	000506                                    	j	80002bdc <malloc+0x8c>

80002bc7 <malloc+0x77>:
80002bc7:	8cda                                    	add.n	a8, a12, a13
80002bc9:	0789                                    	s32i.n	a8, a7, 0
80002bcb:	1d68                                    	l32i.n	a6, a13, 4
80002bcd:	1869                                    	s32i.n	a6, a8, 4
80002bcf:	0d58                                    	l32i.n	a5, a13, 0
80002bd1:	0768                                    	l32i.n	a6, a7, 0
80002bd3:	c055c0                                    	sub	a5, a5, a12
80002bd6:	0659                                    	s32i.n	a5, a6, 0
80002bd8:	0dc9                                    	s32i.n	a12, a13, 0
80002bda:	0708                                    	l32i.n	a0, a7, 0

80002bdc <malloc+0x8c>:
80002bdc:	085016                                    	beqz	a0, 80002c65 <malloc+0x115>
80002bdf:	1098                                    	l32i.n	a9, a0, 4
80002be1:	080916                                    	beqz	a9, 80002c65 <malloc+0x115>
80002be4:	004b                                    	addi.n	a0, a0, 4

80002be6 <malloc+0x96>:
80002be6:	0209                                    	s32i.n	a0, a2, 0
80002be8:	940e10dca5be                           	{ call0	80002280 <_Unlocksyslock>; movi	a2, 1 }
80002bee:	0108                                    	l32i.n	a0, a1, 0
80002bf0:	10cd22                                    	addi	a2, a13, 16
80002bf3:	70014057c14e                           	{ l32i	a12, a1, 4; l32i	a13, a1, 8 }
80002bf9:	56027044505e                           	{ ret; addi	a1, a1, 16 }

80002bff <malloc+0xaf>:
80002bff:	000000                                        ...

80002c02 <malloc+0xb2>:
80002c02:	41d1d0                                    	srli	a13, a13, 1

80002c05 <malloc+0xb5>:
80002c05:	73dcd0                                    	maxu	a13, a12, a13
80002c08:	ba011607b96e                           	{ call0	80002ef0 <_Getmem>; or	a2, a13, a13 }
80002c0e:	059256                                    	bnez	a2, 80002c6b <malloc+0x11b>
80002c11:	ed9cd7                                    	bne	a12, a13, 80002c02 <malloc+0xb2>

80002c14 <malloc+0xc4>:
80002c14:	940e10dc9abe                           	{ call0	80002280 <_Unlocksyslock>; movi	a2, 1 }
80002c1a:	0108                                    	l32i.n	a0, a1, 0
80002c1c:	020c                                    	movi.n	a2, 0
80002c1e:	70014057c14e                           	{ l32i	a12, a1, 4; l32i	a13, a1, 8 }
80002c24:	56027044505e                           	{ ret; addi	a1, a1, 16 }

80002c2a <malloc+0xda>:
80002c2a:	00000000 12a80000                                ......

80002c30 <malloc+0xe0>:
80002c30:	12a8                                    	l32i.n	a10, a2, 4
80002c32:	ba13b2b58a5e                           	{ beq	a10, a8, 80002c59 <malloc+0x109>; or	a7, a5, a5 }
80002c38:	0568                                    	l32i.n	a6, a5, 0
80002c3a:	ffdc06                                    	j	80002bae <malloc+0x5e>

80002c3d <malloc+0xed>:
80002c3d:	12b8                                    	l32i.n	a11, a2, 4
80002c3f:	be11d20d6b4e                           	{ beqz	a11, 80002c59 <malloc+0x109>; or	a7, a5, a5 }
80002c45:	0568                                    	l32i.n	a6, a5, 0

80002c47 <malloc+0xf7>:
80002c47:	06d8                                    	l32i.n	a13, a6, 0
80002c49:	e7740e1c88cd8f                               	{ bgeu.w15	a13, a12, 80002bb3 <malloc+0x63>; nop }
80002c50:	5010435166ce                           	{ l32i	a6, a6, 4; addi	a7, a6, 4 }
80002c56:	fed656                                    	bnez	a6, 80002c47 <malloc+0xf7>
80002c59:	f6dbd1                                    	l32r	a13, 800007c8 (800074b8 <_Size_block>)
80002c5c:	7002467f514e                           	{ s32i	a5, a1, 12; l32i	a13, a13, 0 }
80002c62:	ffe7c6                                    	j	80002c05 <malloc+0xb5>

80002c65 <malloc+0x115>:
80002c65:	940e10f87d1e                           	{ j	80002be6 <malloc+0x96>; movi	a0, 0 }

80002c6b <malloc+0x11b>:
80002c6b:	02d9                                    	s32i.n	a13, a2, 0
80002c6d:	560e11f820be                           	{ call0	800028f0 <free>; addi	a2, a2, 16 }
80002c73:	f6d321                                    	l32r	a2, 800007c0 (80007a44 <_Aldata>)
80002c76:	740f90fd075e                           	{ j	80002b81 <malloc+0x31>; l32i	a5, a1, 12 }

80002c7c <malloc+0x12c>:
80002c7c:	000000                                        ...

80002c7f <malloc+0x12f>:
	...

80002c80 <malloc+0x130>:
80002c80:	940e10dc7fbe                           	{ call0	80002280 <_Unlocksyslock>; movi	a2, 1 }
80002c86:	0108                                    	l32i.n	a0, a1, 0
80002c88:	020c                                    	movi.n	a2, 0
80002c8a:	70014057c14e                           	{ l32i	a12, a1, 4; l32i	a13, a1, 8 }
80002c90:	56027044505e                           	{ ret; addi	a1, a1, 16 }

80002c96 <malloc+0x146>:
	...

80002ca0 <raise>:
80002ca0:	f0c112                                    	addi	a1, a1, -16
80002ca3:	0161c2                                    	s32i	a12, a1, 4
80002ca6:	006102                                    	s32i	a0, a1, 0
80002ca9:	9002406cd1ce                           	{ s32i	a13, a1, 8; movi	a3, 1 }
80002caf:	ba30910014ae                           	{ call0	80002d00 <signal>; or	a13, a2, a2 }
80002cb5:	ba3e6110029e                           	{ beqi	a2, -1, 80002ce8 <raise+0x48>; or	a12, a2, a2 }
80002cbb:	131226                                    	beqi	a2, 1, 80002cd2 <raise+0x32>
80002cbe:	020216                                    	beqz	a2, 80002ce2 <raise+0x42>
80002cc1:	0d2d                                    	mov.n	a2, a13
80002cc3:	0020f0                                    	nop
80002cc6:	900010000eee                           	{ call0	80002d00 <signal>; movi	a3, 0 }
80002ccc:	be0376472c5e                           	{ callx0	a12; or	a2, a13, a13 }

80002cd2 <raise+0x32>:
80002cd2:	0108                                    	l32i.n	a0, a1, 0
80002cd4:	020c                                    	movi.n	a2, 0
80002cd6:	70014057c14e                           	{ l32i	a12, a1, 4; l32i	a13, a1, 8 }
80002cdc:	56027044505e                           	{ ret; addi	a1, a1, 16 }

80002ce2 <raise+0x42>:
80002ce2:	940e107cd7be                           	{ call0	80000c40 <_Exit>; movi	a2, 1 }

80002ce8 <raise+0x48>:
80002ce8:	0108                                    	l32i.n	a0, a1, 0
80002cea:	f27c                                    	movi.n	a2, -1
80002cec:	70014057c14e                           	{ l32i	a12, a1, 4; l32i	a13, a1, 8 }
80002cf2:	56027044505e                           	{ ret; addi	a1, a1, 16 }

80002cf8 <raise+0x58>:
	...

80002d00 <signal>:
80002d00:	f0c112                                    	addi	a1, a1, -16
80002d03:	21c9                                    	s32i.n	a12, a1, 8
80002d05:	ba304178018e                           	{ s32i	a0, a1, 4; or	a12, a2, a2 }
80002d0b:	700ae00c320e                           	{ blti	a2, 1, 80002d19 <signal+0x19>; l32i	a0, a1, 4 }
80002d11:	04c2e6                                    	bgei	a2, 32, 80002d19 <signal+0x19>
80002d14:	0139                                    	s32i.n	a3, a1, 0
80002d16:	0d0366                                    	bnei	a3, -1, 80002d27 <signal+0x27>
80002d19:	93f3c744c18e                           	{ l32i	a12, a1, 8; movi	a2, -1 }
80002d1f:	56027044505e                           	{ ret; addi	a1, a1, 16 }

80002d25 <signal+0x25>:
	...

80002d27 <signal+0x27>:
80002d27:	0020f0                                    	nop
80002d2a:	940e10dc43be                           	{ call0	80002238 <_Locksyslock>; movi	a2, 1 }
80002d30:	f6a721                                    	l32r	a2, 800007cc (80007a50 <sigtable_144>)
80002d33:	a02c20                                    	addx4	a2, a12, a2
80002d36:	70004143010e                           	{ l32i	a0, a1, 0; l32i	a12, a2, 0 }
80002d3c:	0209                                    	s32i.n	a0, a2, 0
80002d3e:	0020f0                                    	nop
80002d41:	940e10dc4fbe                           	{ call0	80002280 <_Unlocksyslock>; movi	a2, 1 }
80002d47:	1108                                    	l32i.n	a0, a1, 4
80002d49:	ba034643c10e                           	{ l32i	a12, a1, 8; or	a2, a12, a12 }
80002d4f:	56027044505e                           	{ ret; addi	a1, a1, 16 }

80002d55 <signal+0x55>:
	...

80002d60 <strlen>:
80002d60:	94378f8d7e3e                           	{ l32r	a7, 800007d8 (ff000000 <xthals_hw_configid0+0x3e4c2406>); movi	a4, 255 }
80002d66:	57f609886bfe                           	{ l32r	a6, 800007d4 (ff0000 <_DoubleExceptionVector_text_end+0xeefa58>); addi	a3, a2, -4 }
80002d6c:	f69951                                    	l32r	a5, 800007d0 (ff00 <xthals_release_major+0xd020>)
80002d6f:	05e207                                    	bbsi	a2, 0, 80002d78 <strlen+0x18>
80002d72:	0ce217                                    	bbsi	a2, 1, 80002d82 <strlen+0x22>
80002d75:	0006c6                                    	j	80002d94 <strlen+0x34>

80002d78 <strlen+0x18>:
80002d78:	040382                                    	l8ui	a8, a3, 4
80002d7b:	331b                                    	addi.n	a3, a3, 1
80002d7d:	88ac                                    	beqz.n	a8, 80002da9 <strlen+0x49>
80002d7f:	116317                                    	bbci	a3, 1, 80002d94 <strlen+0x34>

80002d82 <strlen+0x22>:
80002d82:	332b                                    	addi.n	a3, a3, 2
80002d84:	0388                                    	l32i.n	a8, a3, 0
80002d86:	2d0867                                    	bnone	a8, a6, 80002db7 <strlen+0x57>
80002d89:	078877                                    	bany	a8, a7, 80002d94 <strlen+0x34>
80002d8c:	333b                                    	addi.n	a3, a3, 3
80002d8e:	c02320                                    	sub	a2, a3, a2
80002d91:	f00d                                    	ret.n

80002d93 <strlen+0x33>:
	...

80002d94 <strlen+0x34>:
80002d94:	080c                                    	movi.n	a8, 0
80002d96:	0f8876                                    	loop	a8, 80002da9 <strlen+0x49>
80002d99:	1388                                    	l32i.n	a8, a3, 4
80002d9b:	334b                                    	addi.n	a3, a3, 4
80002d9d:	0a0847                                    	bnone	a8, a4, 80002dab <strlen+0x4b>
80002da0:	0c0857                                    	bnone	a8, a5, 80002db0 <strlen+0x50>
80002da3:	100867                                    	bnone	a8, a6, 80002db7 <strlen+0x57>
80002da6:	ff0877                                    	bnone	a8, a7, 80002da9 <strlen+0x49>

80002da9 <strlen+0x49>:
80002da9:	333b                                    	addi.n	a3, a3, 3

80002dab <strlen+0x4b>:
80002dab:	c02320                                    	sub	a2, a3, a2
80002dae:	f00d                                    	ret.n

80002db0 <strlen+0x50>:
80002db0:	331b                                    	addi.n	a3, a3, 1
80002db2:	c02320                                    	sub	a2, a3, a2
80002db5:	f00d                                    	ret.n

80002db7 <strlen+0x57>:
80002db7:	332b                                    	addi.n	a3, a3, 2
80002db9:	c02320                                    	sub	a2, a3, a2
80002dbc:	f00d                                    	ret.n

80002dbe <strlen+0x5e>:
	...

80002dc0 <_Getpctype>:
80002dc0:	f68721                                    	l32r	a2, 800007dc (80007ad0 <_Tls_setup__Ctype>)
80002dc3:	0228                                    	l32i.n	a2, a2, 0
80002dc5:	f0c112                                    	addi	a1, a1, -16
80002dc8:	0109                                    	s32i.n	a0, a1, 0
80002dca:	002216                                    	beqz	a2, 80002dd0 <_Getpctype+0x10>
80002dcd:	0002c0                                    	callx0	a2
80002dd0:	f68421                                    	l32r	a2, 800007e0 (800074bc <_Ctype>)
80002dd3:	0108                                    	l32i.n	a0, a1, 0
80002dd5:	10c112                                    	addi	a1, a1, 16
80002dd8:	74027140509e                           	{ ret; l32i	a2, a2, 0 }

80002dde <_Getpctype+0x1e>:
	...

80002de0 <_Fwprep>:
80002de0:	53c24054524e                           	{ l32i	a5, a2, 12; addi	a1, a1, -16 }
80002de6:	7012c168010e                           	{ s32i	a0, a1, 8; l32i	a0, a2, 20 }
80002dec:	f67e31                                    	l32r	a3, 800007e4 (9002 <xthals_release_major+0x6122>)
80002def:	263507                                    	bltu	a5, a0, 80002e19 <_Fwprep+0x39>
80002df2:	001202                                    	l16ui	a0, a2, 0
80002df5:	b50788684cfe                           	{ l32r	a4, 800007e8 (4200 <xthals_release_major+0x1320>); and	a3, a0, a3 }
80002dfb:	bb556022031e                           	{ beqi	a3, 2, 80002e23 <_Fwprep+0x43>; sext	a6, a0, 15 }
80002e01:	00a252                                    	movi	a5, 0x200
80002e04:	a34560                                    	movltz	a4, a5, a6
80002e07:	ba124041010e                           	{ l32i	a0, a1, 8; or	a4, a0, a4 }
80002e0d:	93f1c764428e                           	{ s16i	a4, a2, 0; movi	a2, -1 }
80002e13:	56027044505e                           	{ ret; addi	a1, a1, 16 }

80002e19 <_Fwprep+0x39>:
80002e19:	2108                                    	l32i.n	a0, a1, 8
80002e1b:	020c                                    	movi.n	a2, 0
80002e1d:	56027044505e                           	{ ret; addi	a1, a1, 16 }

80002e23 <_Fwprep+0x43>:
80002e23:	f67261                                    	l32r	a6, 800007ec (6000 <xthals_release_major+0x3120>)
80002e26:	0cc067                                    	bnall	a0, a6, 80002e36 <_Fwprep+0x56>
80002e29:	022272                                    	l32i	a7, a2, 8
80002e2c:	016122                                    	s32i	a2, a1, 4
80002e2f:	e084007498758f                               	{ bgeu.w15	a5, a7, 80002ed0 <_Fwprep+0xf0>; nop }

80002e36 <_Fwprep+0x56>:
80002e36:	740ab121b07e                           	{ bbsi	a0, 11, 80002eb4 <_Fwprep+0xd4>; l32i	a5, a2, 4 }
80002e3c:	5090417a210e                           	{ s32i	a2, a1, 4; addi	a8, a2, 68 }
80002e42:	006182                                    	s32i	a8, a1, 0
80002e45:	6b9587                                    	bne	a5, a8, 80002eb4 <_Fwprep+0xd4>
80002e48:	944e10f841be                           	{ call0	80002b50 <malloc>; movi	a2, 0x200 }
80002e4e:	012192                                    	l32i	a9, a1, 4
80002e51:	016922                                    	s32i	a2, a9, 4
80002e54:	019256                                    	bnez	a2, 80002e71 <_Fwprep+0x91>
80002e57:	45c9a2                                    	addi	a10, a9, 69
80002e5a:	7002406ca90e                           	{ s32i	a10, a9, 8; l32i	a0, a1, 0 }
80002e60:	1909                                    	s32i.n	a0, a9, 4
80002e62:	3909                                    	s32i.n	a0, a9, 12
80002e64:	03eb85                                    	call0	80006d20 <_Closreg>
80002e67:	f66161                                    	l32r	a6, 800007ec (6000 <xthals_release_major+0x3120>)
80002e6a:	1128                                    	l32i.n	a2, a1, 4
80002e6c:	000946                                    	j	80002e95 <_Fwprep+0xb5>

80002e6f <_Fwprep+0x8f>:
	...

80002e71 <_Fwprep+0x91>:
80002e71:	3929                                    	s32i.n	a2, a9, 12
80002e73:	680a446d290e                           	{ s32i	a2, a9, 40; l16ui	a4, a9, 0 }
80002e79:	b929                                    	s32i.n	a2, a9, 44
80002e7b:	5c015141206e                           	{ movi	a2, 64; addmi	a5, a2, 0x200 }
80002e81:	ba034268598e                           	{ s32i	a5, a9, 8; or	a2, a4, a2 }
80002e87:	005922                                    	s16i	a2, a9, 0
80002e8a:	0020f0                                    	nop
80002e8d:	03e905                                    	call0	80006d20 <_Closreg>
80002e90:	1128                                    	l32i.n	a2, a1, 4
80002e92:	f65661                                    	l32r	a6, 800007ec (6000 <xthals_release_major+0x3120>)

80002e95 <_Fwprep+0xb5>:
80002e95:	001202                                    	l16ui	a0, a2, 0
80002e98:	1258                                    	l32i.n	a5, a2, 4
80002e9a:	7005416a520e                           	{ s32i	a5, a2, 16; l32i	a8, a2, 8 }
80002ea0:	ba13c041018e                           	{ l32i	a0, a1, 8; or	a7, a0, a6 }
80002ea6:	5289                                    	s32i.n	a8, a2, 20
80002ea8:	90004060728e                           	{ s16i	a7, a2, 0; movi	a2, 0 }
80002eae:	56027044505e                           	{ ret; addi	a1, a1, 16 }

80002eb4 <_Fwprep+0xd4>:
80002eb4:	4259                                    	s32i.n	a5, a2, 16
80002eb6:	ba13c041018e                           	{ l32i	a0, a1, 8; or	a7, a0, a6 }
80002ebc:	70014162720e                           	{ s16i	a7, a2, 0; l32i	a8, a2, 8 }
80002ec2:	90044078828e                           	{ s32i	a8, a2, 20; movi	a2, 0 }
80002ec8:	56027044505e                           	{ ret; addi	a1, a1, 16 }

80002ece <_Fwprep+0xee>:
	...

80002ed0 <_Fwprep+0xf0>:
80002ed0:	012fc5                                    	call0	800041d0 <fflush>
80002ed3:	00b216                                    	beqz	a2, 80002ee2 <_Fwprep+0x102>
80002ed6:	022102                                    	l32i	a0, a1, 8
80002ed9:	ffaf22                                    	movi	a2, -1
80002edc:	56027044505e                           	{ ret; addi	a1, a1, 16 }

80002ee2 <_Fwprep+0x102>:
80002ee2:	1128                                    	l32i.n	a2, a1, 4
80002ee4:	f64261                                    	l32r	a6, 800007ec (6000 <xthals_release_major+0x3120>)
80002ee7:	001202                                    	l16ui	a0, a2, 0
80002eea:	ffd206                                    	j	80002e36 <_Fwprep+0x56>

80002eed <_Fwprep+0x10d>:
80002eed:	000000                                        ...

80002ef0 <_Getmem>:
80002ef0:	f0c112                                    	addi	a1, a1, -16
80002ef3:	016102                                    	s32i	a0, a1, 4
80002ef6:	2a12a6                                    	blti	a2, 1, 80002f24 <_Getmem+0x34>
80002ef9:	011545                                    	call0	80004050 <sbrk>
80002efc:	93f5e001021e                           	{ beqi	a2, -1, 80002f24 <_Getmem+0x34>; movi	a4, -16 }
80002f02:	0fc232                                    	addi	a3, a2, 15
80002f05:	103340                                    	and	a3, a3, a4
80002f08:	006132                                    	s32i	a3, a1, 0
80002f0b:	7000b0b4231e                           	{ beq	a3, a2, 80002f30 <_Getmem+0x40>; l32i	a0, a1, 4 }
80002f11:	ba8111444fae                           	{ call0	80004050 <sbrk>; sub	a2, a3, a2 }
80002f17:	1108                                    	l32i.n	a0, a1, 4
80002f19:	0128                                    	l32i.n	a2, a1, 0
80002f1b:	56027044505e                           	{ ret; addi	a1, a1, 16 }

80002f21 <_Getmem+0x31>:
80002f21:	000000                                        ...

80002f24 <_Getmem+0x34>:
80002f24:	1108                                    	l32i.n	a0, a1, 4
80002f26:	020c                                    	movi.n	a2, 0
80002f28:	56027044505e                           	{ ret; addi	a1, a1, 16 }

80002f2e <_Getmem+0x3e>:
	...

80002f30 <_Getmem+0x40>:
80002f30:	56027044505e                           	{ ret; addi	a1, a1, 16 }

80002f36 <_Getmem+0x46>:
	...

80002f40 <_LDtest>:
80002f40:	f0c112                                    	addi	a1, a1, -16
80002f43:	0109                                    	s32i.n	a0, a1, 0
80002f45:	013d85                                    	call0	80004320 <_Dtest>
80002f48:	0108                                    	l32i.n	a0, a1, 0
80002f4a:	56027044505e                           	{ ret; addi	a1, a1, 16 }

80002f50 <_LDtest+0x10>:
80002f50:	000000                                        ...

80002f53 <_LDtest+0x13>:
	...

80002f54 <_LPlsw>:
80002f54:	f00d                                    	ret.n

80002f56 <_LPlsw+0x2>:
	...

80002f58 <_LPmsw>:
80002f58:	54137140509e                           	{ ret; addi	a2, a2, 6 }

80002f5e <_LPmsw+0x6>:
	...

80002f60 <_Ldtob>:
80002f60:	20a142                                    	movi	a4, 0x120
80002f63:	c01140                                    	sub	a1, a1, a4
80002f66:	c0c2a8f0015e                           	{ pdx_sv_v_i	v30, a1, 0x100; nop }
80002f6c:	240a4178e11e                           	{ s32i	a14, a1, 236; pdx_ls_64_i	v0, a2, 0 }
80002f72:	be3d4168f19e                           	{ s32i	a15, a1, 240; or	a14, a2, a2 }
80002f78:	9418407fc1de                           	{ s32i	a12, a1, 228; movi	a15, 65 }
80002f7e:	be38416c01de                           	{ s32i	a0, a1, 224; or	a12, a3, a3 }
80002f84:	940a406cd1de                           	{ s32i	a13, a1, 232; movi	a3, 1 }
80002f8a:	90112807014e                           	{ pdx_ss_64_i	v0, a1, 0; movi	a13, 97 }
80002f90:	941333a4dc0e                           	{ beq	a12, a13, 80002fa6 <_Ldtob+0x46>; movi	a0, 103 }
80002f96:	0c1cf7                                    	beq	a12, a15, 80002fa6 <_Ldtob+0x46>
80002f99:	c228                                    	l32i.n	a2, a2, 48
80002f9b:	f03d                                    	nop.n
80002f9d:	0020f0                                    	nop
80002fa0:	135296                                    	bltz	a2, 800030d9 <_Ldtob+0x179>
80002fa3:	121216                                    	beqz	a2, 800030c8 <_Ldtob+0x168>

80002fa6 <_Ldtob+0x46>:
80002fa6:	218b                                    	addi.n	a2, a1, 8
80002fa8:	ba01970ba9ae                           	{ call0	80003650 <_LDunscale>; or	a3, a14, a14 }
80002fae:	9400516406ee                           	{ movi	a0, 102; movi	a3, 3 }
80002fb4:	a8c0111a25020f                               	{ beqi.w15	a2, 2, 8000307e <_Ldtob+0x11e>; movi	a4, 101 }
80002fbb:	4312a6                                    	blti	a2, 1, 80003002 <_Ldtob+0xa2>
80002fbe:	7e39                                    	s32i.n	a3, a14, 28
80002fc0:	371cd7                                    	beq	a12, a13, 80002ffb <_Ldtob+0x9b>
80002fc3:	341c47                                    	beq	a12, a4, 80002ffb <_Ldtob+0x9b>
80002fc6:	311c07                                    	beq	a12, a0, 80002ffb <_Ldtob+0x9b>
80002fc9:	67a002                                    	movi	a0, 103
80002fcc:	2b1c07                                    	beq	a12, a0, 80002ffb <_Ldtob+0x9b>
80002fcf:	f60831                                    	l32r	a3, 800007f0 (80000654 <_Zero+0xa4>)

80002fd2 <_Ldtob+0x72>:
80002fd2:	4e28                                    	l32i.n	a2, a14, 16
80002fd4:	900011e5ba2e                           	{ call0	80006ac0 <memcpy>; movi	a4, 3 }
80002fda:	3921c2                                    	l32i	a12, a1, 228
80002fdd:	766a4044d11e                           	{ l32i	a13, a1, 232; l32i	a0, a1, 224 }
80002fe3:	767a4057e1de                           	{ l32i	a14, a1, 236; l32i	a15, a1, 240 }
80002fe9:	36715034202e                           	{ movi	a2, 0x120; pdx_lv_v_i	v30, a1, 0x100 }
80002fef:	b482f044509e                           	{ ret; add	a1, a1, a2 }

80002ff5 <_Ldtob+0x95>:
80002ff5:	00000000 fe310000                                ......

80002ffb <_Ldtob+0x9b>:
80002ffb:	f5fe31                                    	l32r	a3, 800007f4 (80000650 <_Zero+0xa0>)
80002ffe:	fff406                                    	j	80002fd2 <_Ldtob+0x72>

80003001 <_Ldtob+0xa1>:
	...

80003002 <_Ldtob+0xa2>:
80003002:	e104061c80dc8f                               	{ beq.w15	a12, a13, 8000352c <_Ldtob+0x5cc>; nop }
80003009:	e104047c90fc8f                               	{ beq.w15	a12, a15, 8000352c <_Ldtob+0x5cc>; nop }

80003010 <_Ldtob+0xb0>:
80003010:	5ac216                                    	beqz	a2, 800035c0 <_Ldtob+0x660>
80003013:	e144063c80dc8f                               	{ beq.w15	a12, a13, 80003585 <_Ldtob+0x625>; nop }
8000301a:	e144026490fc8f                               	{ beq.w15	a12, a15, 80003197 <_Ldtob+0x237>; nop }
80003021:	be0f10fccd7e                           	{ call0	80002f58 <_LPmsw>; or	a2, a1, a1 }
80003027:	001252                                    	l16ui	a5, a2, 0
8000302a:	330c                                    	movi.n	a3, 3
8000302c:	be1d294850ae                           	{ extui	a5, a5, 0, 15; or	a6, a2, a2 }
80003032:	50804064568e                           	{ s16i	a5, a6, 0; addi	a2, a1, 64 }
80003038:	2404409c300e                           	{ nop; pdx_ls_64_i	v0, a1, 0 }
8000303e:	009205                                    	call0	80003960 <_LXp_setw>
80003041:	f5ed91                                    	l32r	a9, 800007f8 (7597 <xthals_release_major+0x46b7>)
80003044:	049172                                    	l16si	a7, a1, 8
80003047:	f5ed81                                    	l32r	a8, 800007fc (186a0 <_memmap_cacheattr_wb_base+0x865f>)
8000304a:	d17790                                    	mul16s	a7, a7, a9
8000304d:	d27780                                    	quos	a7, a7, a8
80003050:	fcc772                                    	addi	a7, a7, -4
80003053:	236780                                    	sext	a6, a7, 15
80003056:	045162                                    	s16i	a6, a1, 8
80003059:	a103f58e10f70f                               	{ bbci.w15	a7, 15, 80003560 <_Ldtob+0x600>; movi	a0, -4 }
80003060:	3a0c                                    	movi.n	a10, 3
80003062:	c0aa60                                    	sub	a10, a10, a6
80003065:	10da00                                    	and	a13, a10, a0
80003068:	60b0d0                                    	neg	a11, a13
8000306b:	0451b2                                    	s16i	a11, a1, 8
8000306e:	e084005cf80a8f                               	{ bnone.w15	a10, a0, 80003109 <_Ldtob+0x1a9>; nop }
80003075:	0161c6                                    	j	80003600 <_Ldtob+0x6a0>

80003078 <_Ldtob+0x118>:
80003078:	00000000 7e390000                                ......

8000307e <_Ldtob+0x11e>:
8000307e:	7e39                                    	s32i.n	a3, a14, 28
80003080:	e104003490dc8f                               	{ beq.w15	a12, a13, 80003191 <_Ldtob+0x231>; nop }
80003087:	e104001c804c8f                               	{ beq.w15	a12, a4, 80003191 <_Ldtob+0x231>; nop }
8000308e:	e0c4027c900c8f                               	{ beq.w15	a12, a0, 80003191 <_Ldtob+0x231>; nop }
80003095:	67a0b2                                    	movi	a11, 103
80003098:	e0c4025490bc8f                               	{ beq.w15	a12, a11, 80003191 <_Ldtob+0x231>; nop }
8000309f:	f5d831                                    	l32r	a3, 80000800 (8000064c <_Zero+0x9c>)

800030a2 <_Ldtob+0x142>:
800030a2:	4e28                                    	l32i.n	a2, a14, 16
800030a4:	900011e5862e                           	{ call0	80006ac0 <memcpy>; movi	a4, 3 }
800030aa:	3921c2                                    	l32i	a12, a1, 228
800030ad:	766a4044d11e                           	{ l32i	a13, a1, 232; l32i	a0, a1, 224 }
800030b3:	767a4057e1de                           	{ l32i	a14, a1, 236; l32i	a15, a1, 240 }
800030b9:	36715034202e                           	{ movi	a2, 0x120; pdx_lv_v_i	v30, a1, 0x100 }
800030bf:	b482f044509e                           	{ ret; add	a1, a1, a2 }

800030c5 <_Ldtob+0x165>:
800030c5:	000000                                        ...

800030c8 <_Ldtob+0x168>:
800030c8:	081c07                                    	beq	a12, a0, 800030d4 <_Ldtob+0x174>
800030cb:	704c                                    	movi.n	a0, 71
800030cd:	e6f40c54f00c8f                               	{ bne.w15	a12, a0, 80002fa6 <_Ldtob+0x46>; nop }

800030d4 <_Ldtob+0x174>:
800030d4:	ce39                                    	s32i.n	a3, a14, 48
800030d6:	ffb306                                    	j	80002fa6 <_Ldtob+0x46>

800030d9 <_Ldtob+0x179>:
800030d9:	620c                                    	movi.n	a2, 6
800030db:	ce29                                    	s32i.n	a2, a14, 48
800030dd:	ffb146                                    	j	80002fa6 <_Ldtob+0x46>

800030e0 <_Ldtob+0x180>:
800030e0:	330c                                    	movi.n	a3, 3
800030e2:	52f1b04441be                           	{ addi	a4, a1, 96; addi	a2, a1, 127 }
800030e8:	0020f0                                    	nop
800030eb:	5240912075ae                           	{ call0	80003ac0 <_LXp_movx>; addi	a2, a2, 49 }
800030f1:	60c122                                    	addi	a2, a1, 96
800030f4:	940e315461fe                           	{ addi	a6, a1, 127; movi	a3, 3 }
800030fa:	94003155465e                           	{ addi	a4, a6, 49; movi	a5, 3 }
80003100:	0020f0                                    	nop
80003103:	50009321f3ae                           	{ call0	80003cd0 <_LXp_mulx>; addi	a6, a6, 1 }

80003109 <_Ldtob+0x1a9>:
80003109:	b073b0370d7e                           	{ bbsi	a13, 0, 80003170 <_Ldtob+0x210>; srai	a15, a13, 1 }
8000310f:	ba3ed7d7dfee                           	{ bnez	a15, 800030e0 <_Ldtob+0x180>; or	a13, a15, a15 }

80003115 <_Ldtob+0x1b5>:
80003115:	66a072                                    	movi	a7, 102
80003118:	e044065c807c8f                               	{ beq.w15	a12, a7, 80003592 <_Ldtob+0x632>; nop }
8000311f:	694c                                    	movi.n	a9, 70
80003121:	e0440634909c8f                               	{ beq.w15	a12, a9, 80003592 <_Ldtob+0x632>; nop }
80003128:	700c                                    	movi.n	a0, 7

8000312a <_Ldtob+0x1ca>:
8000312a:	ceb8                                    	l32i.n	a11, a14, 48
8000312c:	5600502fd0ee                           	{ movi	a13, 48; addi	a15, a1, 16 }
80003132:	9000c282df8e                           	{ s8i	a13, a15, 0; movi	a10, 20 }
80003138:	5208d8af0b7e                           	{ add	a11, a11, a0; addi	a13, a1, 17 }
8000313e:	b767456ad1de                           	{ s32i	a13, a1, 216; min	a10, a10, a11 }
80003144:	3761a2                                    	s32i	a10, a1, 220
80003147:	eb04001c083a8f                               	{ blti.w15	a10, 1, 80003451 <_Ldtob+0x4f1>; nop }
8000314e:	f5adf1                                    	l32r	a15, 80000804 (80000418 <ctyp_tab_145+0x208>)
80003151:	2001272c011e                           	{ pdx_ls_64_i	v3, a1, 0; pdx_ls_64_i	v2, a15, 0 }
80003157:	d0c23c046050af                               	{ nop; nop; olt.d	vb0, v2, v3 }
8000315e:	c4caf028005e                           	{ pdx_movbr_b	b0, vb0; nop }
80003164:	021076                                    	bt	b0, 8000316a <_Ldtob+0x20a>
80003167:	00b986                                    	j	80003451 <_Ldtob+0x4f1>
8000316a:	bbf110257b0e                           	{ j	800033e9 <_Ldtob+0x489>; const.d	v30, 1 }

80003170 <_Ldtob+0x210>:
80003170:	40c122                                    	addi	a2, a1, 64
80003173:	9000314441fe                           	{ addi	a4, a1, 96; movi	a3, 3 }
80003179:	940e3155617e                           	{ addi	a6, a1, 127; movi	a5, 3 }
8000317f:	50009321d4ae                           	{ call0	80003cd0 <_LXp_mulx>; addi	a6, a6, 1 }
80003185:	ba3ed75f7fee                           	{ bnez	a15, 800030e0 <_Ldtob+0x180>; or	a13, a15, a15 }
8000318b:	ffe186                                    	j	80003115 <_Ldtob+0x1b5>

8000318e <_Ldtob+0x22e>:
8000318e:	000000                                        ...

80003191 <_Ldtob+0x231>:
80003191:	f59d31                                    	l32r	a3, 80000808 (80000648 <_Zero+0x98>)
80003194:	ffc286                                    	j	800030a2 <_Ldtob+0x142>

80003197 <_Ldtob+0x237>:
80003197:	f59d31                                    	l32r	a3, 8000080c (8000066c <_Zero+0xbc>)

8000319a <_Ldtob+0x23a>:
8000319a:	ce28                                    	l32i.n	a2, a14, 48
8000319c:	c0c0a0480e5e                           	{ pdx_ls_64_i	v5, a14, 0; nop }
800031a2:	90013054f20e                           	{ addi	a15, a2, 1; movi	a0, 33 }
800031a8:	b7f5c068319e                           	{ s32i	a3, a1, 208; movltz	a15, a0, a2 }
800031ae:	bb71af4e010e                           	{ pdx_ss_64_i	v5, a1, 0; sext	a15, a15, 15 }
800031b4:	be05407cf15e                           	{ s32i	a15, a1, 212; or	a2, a1, a1 }
800031ba:	0020f0                                    	nop
800031bd:	540f17ff66fe                           	{ call0	80002f58 <_LPmsw>; addi	a15, a15, 2 }
800031c3:	001282                                    	l16ui	a8, a2, 0
800031c6:	e48080                                    	extui	a8, a8, 0, 15
800031c9:	005282                                    	s16i	a8, a2, 0
800031cc:	6414405531de                           	{ l32i	a3, a1, 212; l16si	a7, a1, 8 }
800031d2:	5600b047614e                           	{ addi	a6, a1, 16; addi	a13, a1, 17 }
800031d8:	94064069d15e                           	{ s32i	a13, a1, 216; movi	a5, 0 }
800031de:	53f0438556ce                           	{ s8i	a5, a6, 0; addi	a7, a7, -4 }
800031e4:	045172                                    	s16i	a7, a1, 8
800031e7:	e884026410338f                               	{ blti.w15	a3, -1, 800032a4 <_Ldtob+0x344>; nop }
800031ee:	f58591                                    	l32r	a9, 80000804 (80000418 <ctyp_tab_145+0x208>)
800031f1:	2011246c011e                           	{ pdx_ls_64_i	v7, a1, 0; pdx_ls_64_i	v6, a9, 0 }
800031f7:	d0c27c246150af                               	{ nop; nop; olt.d	vb1, v6, v7 }
800031fe:	c4caf028115e                           	{ pdx_movbr_b	b1, vb1; nop }
80003204:	021176                                    	bt	b1, 8000320a <_Ldtob+0x2aa>
80003207:	002646                                    	j	800032a4 <_Ldtob+0x344>

8000320a <_Ldtob+0x2aa>:
8000320a:	202110                                    	or	a2, a1, a1
8000320d:	900096685cee                           	{ call0	80004f80 <_LDscale>; movi	a3, 28 }
80003213:	c0c0a008015e                           	{ pdx_ls_64_i	v1, a1, 0; nop }
80003219:	d0c41d0860502f                               	{ nop; nop; trunc.d	v8, v1, 0 }
80003220:	07cdd2                                    	addi	a13, a13, 7
80003223:	57e0f787d0de                           	{ rfr	a0, v8; addi	a15, a15, -7 }
80003229:	9408631d3f0e                           	{ blti	a15, 1, 80003246 <_Ldtob+0x2e6>; movi	a4, 7 }
8000322f:	46a000                                    	wfr	v10, a0
80003232:	d0c4acea60502f                               	{ nop; nop; float.d	v10, v10, 0 }
80003239:	90d2adc560506f                               	{ nop; nop; sub.d	v9, v1, v10 }
80003240:	c0c0a888014e                           	{ pdx_ss_64_i	v9, a1, 0; nop }

80003246 <_Ldtob+0x2e6>:
80003246:	1410a6                                    	blti	a0, 1, 8000325e <_Ldtob+0x2fe>

80003249 <_Ldtob+0x2e9>:
80003249:	44ef3850443e                           	{ addi	a4, a4, -1; extui	a10, a0, 0, 4 }
8000324f:	b4405200b41e                           	{ bltz	a4, 8000325e <_Ldtob+0x2fe>; srai	a0, a0, 4 }
80003255:	ffcdd2                                    	addi	a13, a13, -1
80003258:	004da2                                    	s8i	a10, a13, 0
8000325b:	ea10e6                                    	bgei	a0, 1, 80003249 <_Ldtob+0x2e9>
8000325e:	57ffba50bd3e                           	{ addi	a11, a13, -1; addi	a0, a4, -1 }
80003264:	94005008409e                           	{ bltz	a0, 8000327c <_Ldtob+0x31c>; movi	a2, 0 }
8000326a:	0020f0                                    	nop
8000326d:	05a076                                    	loopgtz	a0, 80003276 <_Ldtob+0x316>
80003270:	53f1c5862bce                           	{ s8i	a2, a11, 0; addi	a11, a11, -1 }

80003276 <_Ldtob+0x316>:
80003276:	ba30c5862bce                           	{ s8i	a2, a11, 0; or	a13, a11, a11 }

8000327c <_Ldtob+0x31c>:
8000327c:	5015e60f3f5e                           	{ blti	a15, 1, 800032a4 <_Ldtob+0x344>; addi	a13, a13, 7 }
80003282:	f56001                                    	l32r	a0, 80000804 (80000418 <ctyp_tab_145+0x208>)
80003285:	c0c0a0c0015e                           	{ pdx_ls_64_i	v12, a1, 0; nop }
8000328b:	c0c0a0a8005e                           	{ pdx_ls_64_i	v11, a0, 0; nop }
80003291:	d0c2cc446250ef                               	{ nop; nop; olt.d	vb2, v11, v12 }
80003298:	c4caf028225e                           	{ pdx_movbr_b	b2, vb2; nop }
8000329e:	020276                                    	bf	b2, 800032a4 <_Ldtob+0x344>
800032a1:	ffd946                                    	j	8000320a <_Ldtob+0x2aa>
800032a4:	7650b044f18e                           	{ addi	a15, a1, 16; l32i	a2, a1, 212 }
800032aa:	c0fdf0                                    	sub	a15, a13, a15
800032ad:	ff0b                                    	addi.n	a15, a15, -1
800032af:	725f58372f7e                           	{ min	a2, a15, a2; l32i	a13, a1, 216 }
800032b5:	bb54b132f23e                           	{ bbsi	a2, 15, 8000331e <_Ldtob+0x3be>; sext	a5, a2, 15 }
800032bb:	b08432bff55e                           	{ bge	a5, a15, 800032e4 <_Ldtob+0x384>; add	a0, a5, a13 }
800032c1:	000022                                    	l8ui	a2, a0, 0
800032c4:	1c82b6                                    	bltui	a2, 8, 800032e4 <_Ldtob+0x384>
800032c7:	ffd032                                    	addmi	a3, a0, 0xffffff00
800032ca:	ff0332                                    	l8ui	a3, a3, 255
800032cd:	940057052f2e                           	{ movi	a2, 15; movi	a4, 15 }
800032d3:	630bf19284430f                               	{ beq.w15	a3, a4, 800035db <_Ldtob+0x67b>; addi	a0, a5, -1 }
800032da:	90001704168e                           	{ j	800032f4 <_Ldtob+0x394>; movi	a2, 15 }

800032e0 <_Ldtob+0x380>:
800032e0:	00000000                                ....

800032e4 <_Ldtob+0x384>:
800032e4:	ffd042                                    	addmi	a4, a0, 0xffffff00
800032e7:	ff0442                                    	l8ui	a4, a4, 255
800032ea:	020c                                    	movi.n	a2, 0
800032ec:	57f3d2e4b40e                           	{ beqz	a4, 800035db <_Ldtob+0x67b>; addi	a0, a5, -1 }
800032f2:	020c                                    	movi.n	a2, 0

800032f4 <_Ldtob+0x394>:
800032f4:	f60c                                    	movi.n	a6, 15
800032f6:	e304020c80628f                               	{ beq.w15	a2, a6, 8000361c <_Ldtob+0x6bc>; nop }
800032fd:	32b096                                    	bltz	a0, 8000362c <_Ldtob+0x6cc>

80003300 <_Ldtob+0x3a0>:
80003300:	765e385405fe                           	{ addi	a0, a5, -1; l32i	a3, a1, 208 }
80003306:	f03d                                    	nop.n
80003308:	f03d                                    	nop.n
8000330a:	b480408b154e                           	{ loopgtz	a5, 8000331e <_Ldtob+0x3be>; add	a0, a0, a13 }
80003310:	53f1c048200e                           	{ l8ui	a2, a0, 0; addi	a0, a0, -1 }
80003316:	223a                                    	add.n	a2, a2, a3
80003318:	000222                                    	l8ui	a2, a2, 0
8000331b:	014022                                    	s8i	a2, a0, 1
8000331e:	ce28                                    	l32i.n	a2, a14, 48
80003320:	267296                                    	bltz	a2, 8000358b <_Ldtob+0x62b>

80003323 <_Ldtob+0x3c3>:
80003323:	049162                                    	l16si	a6, a1, 8

80003326 <_Ldtob+0x3c6>:
80003326:	be0bde43dd3e                           	{ or	a4, a13, a13; or	a3, a12, a12 }
8000332c:	ba011743a0ae                           	{ call0	800045b0 <_Genld>; or	a2, a14, a14 }
80003332:	3921c2                                    	l32i	a12, a1, 228
80003335:	766a4044d11e                           	{ l32i	a13, a1, 232; l32i	a0, a1, 224 }
8000333b:	767a4057e1de                           	{ l32i	a14, a1, 236; l32i	a15, a1, 240 }
80003341:	36715034202e                           	{ movi	a2, 0x120; pdx_lv_v_i	v30, a1, 0x100 }
80003347:	b482f044509e                           	{ ret; add	a1, a1, a2 }

8000334d <_Ldtob+0x3ed>:
8000334d:	000000                                        ...

80003350 <_Ldtob+0x3f0>:
80003350:	372132                                    	l32i	a3, a1, 220
80003353:	f8c332                                    	addi	a3, a3, -8
80003356:	376132                                    	s32i	a3, a1, 220
80003359:	1413a6                                    	blti	a3, 1, 80003371 <_Ldtob+0x411>
8000335c:	f52d41                                    	l32r	a4, 80000810 (80000420 <ctyp_tab_145+0x210>)
8000335f:	5480500433ae                           	{ movi	a3, 3; addi	a2, a1, 64 }
80003365:	24044298300e                           	{ nop; pdx_ls_64_i	v0, a4, 0 }
8000336b:	0020f0                                    	nop
8000336e:	007805                                    	call0	80003af0 <_LXp_mulh>

80003371 <_Ldtob+0x411>:
80003371:	dd8b                                    	addi.n	a13, a13, 8
80003373:	900664083f1e                           	{ blti	a15, 1, 8000339d <_Ldtob+0x43d>; movi	a0, 8 }

80003379 <_Ldtob+0x419>:
80003379:	ffc002                                    	addi	a0, a0, -1
8000337c:	446102                                    	s32i	a0, a1, 0x110
8000337f:	01a096                                    	bltz	a0, 8000339d <_Ldtob+0x43d>
80003382:	202ff0                                    	or	a2, a15, a15
80003385:	900015e06aee                           	{ call0	80006d30 <ldiv>; movi	a3, 10 }
8000338b:	ffcdd2                                    	addi	a13, a13, -1
8000338e:	52444145016e                           	{ l32i	a0, a1, 0x110; addi	a5, a3, 48 }
80003394:	004d52                                    	s8i	a5, a13, 0
80003397:	be3fe90812ae                           	{ bgei	a2, 1, 80003379 <_Ldtob+0x419>; or	a15, a2, a2 }
8000339d:	765fb85500fe                           	{ addi	a0, a0, -1; l32i	a7, a1, 220 }
800033a3:	57f1d60d609e                           	{ bltz	a0, 800033bd <_Ldtob+0x45d>; addi	a6, a13, -1 }
800033a9:	f03d                                    	nop.n
800033ab:	9009c088108e                           	{ loopgtz	a0, 800033b7 <_Ldtob+0x457>; movi	a2, 48 }
800033b1:	53f1c381268e                           	{ s8i	a2, a6, 0; addi	a6, a6, -1 }

800033b7 <_Ldtob+0x457>:
800033b7:	ba30c381268e                           	{ s8i	a2, a6, 0; or	a13, a6, a6 }

800033bd <_Ldtob+0x45d>:
800033bd:	5424469f304e                           	{ nop; addi	a13, a13, 8 }
800033c3:	e884002c08378f                               	{ blti.w15	a7, 1, 80003451 <_Ldtob+0x4f1>; nop }
800033ca:	f50e81                                    	l32r	a8, 80000804 (80000418 <ctyp_tab_145+0x208>)
800033cd:	c0c0a0e0015e                           	{ pdx_ls_64_i	v14, a1, 0; nop }
800033d3:	c0c0a0c8085e                           	{ pdx_ls_64_i	v13, a8, 0; nop }
800033d9:	d0c2ec6463506f                               	{ nop; nop; olt.d	vb3, v13, v14 }
800033e0:	c4caf028335e                           	{ pdx_movbr_b	b3, vb3; nop }
800033e6:	670376                                    	bf	b3, 80003451 <_Ldtob+0x4f1>

800033e9 <_Ldtob+0x489>:
800033e9:	c0c0a008815e                           	{ pdx_ls_64_i	v1, a1, 64; nop }
800033ef:	d0c21c826750af                               	{ nop; nop; ole.d	vb4, v30, v1 }
800033f6:	c4caf028445e                           	{ pdx_movbr_b	b4, vb4; nop }
800033fc:	b25000006364cf                               	{ bt	b4, 80003406 <_Ldtob+0x4a6>; movi	a15, 0 }
80003403:	ffd246                                    	j	80003350 <_Ldtob+0x3f0>
80003406:	0f0c                                    	movi.n	a15, 0

80003408 <_Ldtob+0x4a8>:
80003408:	d0c41d0160502f                               	{ nop; nop; trunc.d	v1, v1, 0 }
8000340f:	260910                                    	rfr	a9, v1
80003412:	460090                                    	wfr	v0, a9
80003415:	d0c40ce060502f                               	{ nop; nop; float.d	v0, v0, 0 }
8000341c:	5480500433ae                           	{ movi	a3, 3; addi	a2, a1, 64 }
80003422:	0157be5eaae051f087fc43c0800e883f 	{ nop; add	a15, a15, a9; neg.d	v0, v0; nop }
80003432:	0161c5                                    	call0	80004a50 <_LXp_addh>
80003435:	c0c0a008815e                           	{ pdx_ls_64_i	v1, a1, 64; nop }
8000343b:	d0c21ca26750af                               	{ nop; nop; ole.d	vb5, v30, v1 }
80003442:	c4caf028555e                           	{ pdx_movbr_b	b5, vb5; nop }
80003448:	bc1576                                    	bt	b5, 80003408 <_Ldtob+0x4a8>
8000344b:	ffc046                                    	j	80003350 <_Ldtob+0x3f0>

8000344e <_Ldtob+0x4ee>:
8000344e:	000000                                        ...

80003451 <_Ldtob+0x4f1>:
80003451:	64103045f18e                           	{ addi	a15, a1, 16; l16si	a6, a1, 8 }
80003457:	beb1b647a1ce                           	{ addi	a10, a1, 16; sub	a15, a13, a15 }
8000345d:	7c0ebd52ffbe                           	{ addi	a15, a15, -1; l8ui	a10, a10, 1 }
80003463:	5417c379f19e                           	{ s32i	a15, a1, 220; addi	a6, a6, 7 }
80003469:	9005c06261ce                           	{ s16i	a6, a1, 8; movi	a11, 48 }
8000346f:	765d4017ba4e                           	{ bne	a10, a11, 80003490 <_Ldtob+0x530>; l32i	a13, a1, 216 }

80003475 <_Ldtob+0x515>:
80003475:	372102                                    	l32i	a0, a1, 220
80003478:	7c0ebe5666fe                           	{ addi	a6, a6, -1; l8ui	a11, a13, 1 }
8000347e:	53f5c060610e                           	{ s16i	a6, a1, 8; addi	a0, a0, -1 }
80003484:	9407c07b01de                           	{ s32i	a0, a1, 220; movi	a15, 48 }
8000348a:	5006beb7fb7e                           	{ beq	a11, a15, 80003475 <_Ldtob+0x515>; addi	a13, a13, 1 }

80003490 <_Ldtob+0x530>:
80003490:	66a022                                    	movi	a2, 102
80003493:	e1040024902c8f                               	{ beq.w15	a12, a2, 800035a0 <_Ldtob+0x640>; nop }
8000349a:	634c                                    	movi.n	a3, 70
8000349c:	e1040004803c8f                               	{ beq.w15	a12, a3, 800035a0 <_Ldtob+0x640>; nop }
800034a3:	9bcc42                                    	addi	a4, a12, -101
800034a6:	940a38505c1e                           	{ addi	a5, a12, -69; movi	a0, 0 }
800034ac:	9400500031ae                           	{ movi	a3, 1; movi	a2, 0 }
800034b2:	b7805935533e                           	{ moveqz	a2, a3, a5; moveqz	a0, a3, a4 }
800034b8:	200020                                    	or	a0, a0, a2

800034bb <_Ldtob+0x55b>:
800034bb:	ce58                                    	l32i.n	a5, a14, 48
800034bd:	372172                                    	l32i	a7, a1, 220
800034c0:	550a                                    	add.n	a5, a5, a0
800034c2:	235580                                    	sext	a5, a5, 15
800034c5:	04a757                                    	bge	a7, a5, 800034cd <_Ldtob+0x56d>
800034c8:	570b                                    	addi.n	a5, a7, -1
800034ca:	235580                                    	sext	a5, a5, 15

800034cd <_Ldtob+0x56d>:
800034cd:	e52596                                    	bltz	a5, 80003323 <_Ldtob+0x3c3>
800034d0:	372172                                    	l32i	a7, a1, 220
800034d3:	943c                                    	movi.n	a4, 57
800034d5:	b08232af755e                           	{ bge	a5, a7, 800034fb <_Ldtob+0x59b>; add	a0, a5, a13 }
800034db:	000092                                    	l8ui	a9, a0, 0
800034de:	483c                                    	movi.n	a8, 52
800034e0:	17b897                                    	bgeu	a8, a9, 800034fb <_Ldtob+0x59b>
800034e3:	ffd0a2                                    	addmi	a10, a0, 0xffffff00
800034e6:	ff0aa2                                    	l8ui	a10, a10, 255
800034e9:	043d                                    	mov.n	a3, a4
800034eb:	608bf3da944a0f                               	{ beq.w15	a10, a4, 800035a6 <_Ldtob+0x646>; addi	a0, a5, -1 }
800034f2:	900194041a8e                           	{ j	80003510 <_Ldtob+0x5b0>; movi	a2, 57 }

800034f8 <_Ldtob+0x598>:
800034f8:	000000                                        ...

800034fb <_Ldtob+0x59b>:
800034fb:	ffd0b2                                    	addmi	a11, a0, 0xffffff00
800034fe:	ff0bb2                                    	l8ui	a11, a11, 255
80003501:	9401d02b30ee                           	{ movi	a3, 48; movi	a15, 48 }
80003507:	608bf1ea94fb0f                               	{ beq.w15	a11, a15, 800035a6 <_Ldtob+0x646>; addi	a0, a5, -1 }
8000350e:	023c                                    	movi.n	a2, 48

80003510 <_Ldtob+0x5b0>:
80003510:	e084026c80428f                               	{ beq.w15	a2, a4, 800035ce <_Ldtob+0x66e>; nop }

80003517 <_Ldtob+0x5b7>:
80003517:	e080d6                                    	bgez	a0, 80003323 <_Ldtob+0x3c3>
8000351a:	540ebb51ddfe                           	{ addi	a13, a13, -1; addi	a7, a6, 1 }
80003520:	5004c265714e                           	{ s16i	a7, a1, 8; addi	a5, a5, 1 }
80003526:	bf5e92def91e                           	{ j	80003323 <_Ldtob+0x3c3>; sext	a5, a5, 15 }

8000352c <_Ldtob+0x5cc>:
8000352c:	4e88                                    	l32i.n	a8, a14, 16
8000352e:	073c                                    	movi.n	a7, 48
80003530:	004872                                    	s8i	a7, a8, 0
80003533:	4eb8                                    	l32i.n	a11, a14, 16
80003535:	941fbc515c0e                           	{ addi	a5, a12, -97; movi	a4, 120 }
8000353b:	9010b4526b8e                           	{ addi	a6, a11, 1; movi	a10, 88 }
80003541:	b3a542696e4e                           	{ s32i	a6, a14, 16; moveqz	a10, a4, a5 }
80003547:	014ba2                                    	s8i	a10, a11, 1
8000354a:	4e98                                    	l32i.n	a9, a14, 16
8000354c:	5e88                                    	l32i.n	a8, a14, 20
8000354e:	991b                                    	addi.n	a9, a9, 1
80003550:	5005446a9e0e                           	{ s32i	a9, a14, 16; addi	a8, a8, 2 }
80003556:	5e89                                    	s32i.n	a8, a14, 20
80003558:	fead06                                    	j	80003010 <_Ldtob+0xb0>

8000355b <_Ldtob+0x5fb>:
8000355b:	00000000 08368f00                                .....

80003560 <_Ldtob+0x600>:
80003560:	e884005408368f                               	{ blti.w15	a6, 1, 800035f8 <_Ldtob+0x698>; nop }
80003567:	10d600                                    	and	a13, a6, a0
8000356a:	23dd80                                    	sext	a13, a13, 15
8000356d:	0451d2                                    	s16i	a13, a1, 8
80003570:	b95d16                                    	beqz	a13, 80003109 <_Ldtob+0x1a9>
80003573:	54c408a448be                           	{ l32r	a4, 80000814 (800074c0 <tenth_170>); addi	a2, a1, 96 }
80003579:	9000110c51ee                           	{ call0	80003ac0 <_LXp_movx>; movi	a3, 3 }
8000357f:	fee186                                    	j	80003109 <_Ldtob+0x1a9>

80003582 <_Ldtob+0x622>:
80003582:	000000                                        ...

80003585 <_Ldtob+0x625>:
80003585:	f4a431                                    	l32r	a3, 80000818 (80000658 <_Zero+0xa8>)
80003588:	ff0386                                    	j	8000319a <_Ldtob+0x23a>

8000358b <_Ldtob+0x62b>:
8000358b:	f50b                                    	addi.n	a15, a5, -1
8000358d:	cef9                                    	s32i.n	a15, a14, 48
8000358f:	ff6406                                    	j	80003323 <_Ldtob+0x3c3>

80003592 <_Ldtob+0x632>:
80003592:	049102                                    	l16si	a0, a1, 8
80003595:	542f90b8911e                           	{ j	8000312a <_Ldtob+0x1ca>; addi	a0, a0, 11 }

8000359b <_Ldtob+0x63b>:
8000359b:	00000000 f8171e00                                .....

800035a0 <_Ldtob+0x640>:
800035a0:	540e93f8171e                           	{ j	800034bb <_Ldtob+0x55b>; addi	a0, a6, 1 }

800035a6 <_Ldtob+0x646>:
800035a6:	41c95828d0fe                           	{ add	a3, a0, a13; extui	a2, a3, 0, 8 }

800035ac <_Ldtob+0x64c>:
800035ac:	330b                                    	addi.n	a3, a3, -1
800035ae:	000372                                    	l8ui	a7, a3, 0
800035b1:	57ffba55007e                           	{ addi	a0, a0, -1; addi	a5, a5, -1 }
800035b7:	bf50bab6273e                           	{ beq	a7, a2, 800035ac <_Ldtob+0x64c>; sext	a5, a5, 15 }
800035bd:	ffd3c6                                    	j	80003510 <_Ldtob+0x5b0>

800035c0 <_Ldtob+0x660>:
800035c0:	060c                                    	movi.n	a6, 0
800035c2:	90044061614e                           	{ s16i	a6, a1, 8; movi	a5, 0 }
800035c8:	560e10df5a5e                           	{ j	80003326 <_Ldtob+0x3c6>; addi	a13, a1, 16 }

800035ce <_Ldtob+0x66e>:
800035ce:	80da                                    	add.n	a8, a0, a13
800035d0:	000872                                    	l8ui	a7, a8, 0
800035d3:	771b                                    	addi.n	a7, a7, 1
800035d5:	004872                                    	s8i	a7, a8, 0
800035d8:	ffcec6                                    	j	80003517 <_Ldtob+0x5b7>

800035db <_Ldtob+0x67b>:
800035db:	362142                                    	l32i	a4, a1, 216
800035de:	41c9584040be                           	{ add	a4, a0, a4; extui	a2, a2, 0, 8 }

800035e4 <_Ldtob+0x684>:
800035e4:	440b                                    	addi.n	a4, a4, -1
800035e6:	000462                                    	l8ui	a6, a4, 0
800035e9:	57ffba55007e                           	{ addi	a0, a0, -1; addi	a5, a5, -1 }
800035ef:	bf50bab6263e                           	{ beq	a6, a2, 800035e4 <_Ldtob+0x684>; sext	a5, a5, 15 }
800035f5:	ff3ec6                                    	j	800032f4 <_Ldtob+0x394>

800035f8 <_Ldtob+0x698>:
800035f8:	940e10bb0d5e                           	{ j	80003109 <_Ldtob+0x1a9>; movi	a13, 0 }

800035fe <_Ldtob+0x69e>:
	...

80003600 <_Ldtob+0x6a0>:
80003600:	f48761                                    	l32r	a6, 8000081c (40240000 <_memmap_mem_iram0_end+0x8240000>)
80003603:	60c122                                    	addi	a2, a1, 96
80003606:	9400500133ee                           	{ movi	a3, 3; movi	a7, 0 }
8000360c:	5025801b0912cf                               	{ nop; wfrd	v0, a6, a7 }
80003613:	0034c5                                    	call0	80003960 <_LXp_setw>
80003616:	febbc6                                    	j	80003109 <_Ldtob+0x1a9>

80003619 <_Ldtob+0x6b9>:
80003619:	000000                                        ...

8000361c <_Ldtob+0x6bc>:
8000361c:	362192                                    	l32i	a9, a1, 216
8000361f:	990a                                    	add.n	a9, a9, a0
80003621:	000982                                    	l8ui	a8, a9, 0
80003624:	881b                                    	addi.n	a8, a8, 1
80003626:	004982                                    	s8i	a8, a9, 0
80003629:	cd30d6                                    	bgez	a0, 80003300 <_Ldtob+0x3a0>

8000362c <_Ldtob+0x6cc>:
8000362c:	049162                                    	l16si	a6, a1, 8
8000362f:	3621d2                                    	l32i	a13, a1, 216
80003632:	50103351558e                           	{ addi	a5, a5, 1; addi	a6, a6, 4 }
80003638:	bb54c266610e                           	{ s16i	a6, a1, 8; sext	a5, a5, 15 }
8000363e:	57ff96d7be5e                           	{ j	80003300 <_Ldtob+0x3a0>; addi	a13, a13, -1 }

80003644 <_Ldtob+0x6e4>:
	...

80003650 <_LDunscale>:
80003650:	f0c112                                    	addi	a1, a1, -16
80003653:	0109                                    	s32i.n	a0, a1, 0
80003655:	00d385                                    	call0	80004390 <_Dunscale>
80003658:	0108                                    	l32i.n	a0, a1, 0
8000365a:	56027044505e                           	{ ret; addi	a1, a1, 16 }

80003660 <_Litob>:
80003660:	5744086c407e                           	{ l32r	a4, 80000820 (80000450 <ldigs_157>); addi	a1, a1, -80 }
80003666:	0b61c2                                    	s32i	a12, a1, 44
80003669:	0c61d2                                    	s32i	a13, a1, 48
8000366c:	0d61e2                                    	s32i	a14, a1, 52
8000366f:	0e61f2                                    	s32i	a15, a1, 56
80003672:	901ac468010e                           	{ s32i	a0, a1, 40; movi	a0, 88 }
80003678:	e204001480038f                               	{ beq.w15	a3, a0, 80003880 <_Litob+0x220>; nop }
8000367f:	106142                                    	s32i	a4, a1, 64

80003682 <_Litob+0x22>:
80003682:	740051615f2e                           	{ movi	a5, 111; l32i	a4, a2, 0 }
80003688:	a1c013729153cf                               	{ beq.w15	a3, a5, 80003889 <_Litob+0x229>; movi	a7, 100 }
8000368f:	78a062                                    	movi	a6, 120
80003692:	e184026c80638f                               	{ beq.w15	a3, a6, 80003850 <_Litob+0x1f0>; nop }
80003699:	a180024891034f                               	{ beq.w15	a3, a0, 80003850 <_Litob+0x1f0>; movi	a5, 0 }
800036a0:	af0c                                    	movi.n	a15, 10

800036a2 <_Litob+0x42>:
800036a2:	05cd                                    	mov.n	a12, a5

800036a4 <_Litob+0x44>:
800036a4:	1208                                    	l32i.n	a0, a2, 4
800036a6:	940a58ce44fe                           	{ or	a13, a4, a4; movi	a11, 1 }
800036ac:	9019446e210e                           	{ s32i	a2, a1, 32; movi	a8, 105 }
800036b2:	a14f337080730f                               	{ beq.w15	a3, a7, 80003832 <_Litob+0x1d2>; or	a14, a0, a0 }
800036b9:	e144025490838f                               	{ beq.w15	a3, a8, 80003832 <_Litob+0x1d2>; nop }

800036c0 <_Litob+0x60>:
800036c0:	be2b5f8bddbe                           	{ or	a9, a13, a13; or	a10, a14, a14 }
800036c6:	bc24dda7eb7e                           	{ movnez	a10, a11, a14; movnez	a9, a11, a13 }
800036cc:	2099a0                                    	or	a9, a9, a10
800036cf:	59cc                                    	bnez.n	a9, 800036d8 <_Litob+0x78>
800036d1:	c238                                    	l32i.n	a3, a2, 48
800036d3:	8129                                    	s32i.n	a2, a1, 32
800036d5:	1f8316                                    	beqz	a3, 800038d1 <_Litob+0x271>

800036d8 <_Litob+0x78>:
800036d8:	203ee0                                    	or	a3, a14, a14
800036db:	be1ade23dd3e                           	{ or	a2, a13, a13; or	a5, a12, a12 }
800036e1:	ba1017e77bee                           	{ call0	800070d0 <__umoddi3>; or	a4, a15, a15 }
800036e7:	102142                                    	l32i	a4, a1, 64
800036ea:	804420                                    	add	a4, a4, a2
800036ed:	ba01c74b448e                           	{ l8ui	a4, a4, 0; or	a3, a14, a14 }
800036f3:	ba18c67b410e                           	{ s32i	a4, a1, 36; or	a5, a12, a12 }
800036f9:	be074697414e                           	{ s8i	a4, a1, 23; or	a2, a13, a13 }
800036ff:	0020f0                                    	nop
80003702:	ba1017cfcfee                           	{ call0	80006e40 <__udivdi3>; or	a4, a15, a15 }
80003708:	20d220                                    	or	a13, a2, a2
8000370b:	940a58e1337e                           	{ or	a14, a3, a3; movi	a5, 0 }
80003711:	900630f0530e                           	{ bltu	a3, a5, 8000371c <_Litob+0xbc>; movi	a0, 0 }
80003717:	1a5316                                    	beqz	a3, 800038c0 <_Litob+0x260>

8000371a <_Litob+0xba>:
8000371a:	100c                                    	movi.n	a0, 1

8000371c <_Litob+0xbc>:
8000371c:	171016                                    	beqz	a0, 80003891 <_Litob+0x231>
8000371f:	900ec37dc18e                           	{ s32i	a12, a1, 60; movi	a6, 23 }
80003725:	116162                                    	s32i	a6, a1, 68

80003728 <_Litob+0xc8>:
80003728:	1121c2                                    	l32i	a12, a1, 68
8000372b:	cc1a                                    	add.n	a12, a12, a1

8000372d <_Litob+0xcd>:
8000372d:	112122                                    	l32i	a2, a1, 68
80003730:	be0fbf53ccbe                           	{ addi	a12, a12, -1; or	a3, a14, a14 }
80003736:	743fb855227e                           	{ addi	a2, a2, -1; l32i	a5, a1, 60 }
8000373c:	be10477f21ce                           	{ s32i	a2, a1, 68; or	a4, a15, a15 }
80003742:	0020f0                                    	nop
80003745:	ba0116cfbe6e                           	{ call0	80006e40 <__udivdi3>; or	a2, a13, a13 }
8000374b:	7606585d2f3e                           	{ mull	a5, a15, a2; l32i	a4, a1, 64 }
80003751:	c05d50                                    	sub	a5, a13, a5
80003754:	90085840543e                           	{ add	a4, a4, a5; movi	a0, 0 }
8000375a:	ba31414c44ce                           	{ l8ui	a4, a4, 0; or	a14, a3, a3 }
80003760:	900040814c4e                           	{ s8i	a4, a12, 0; movi	a5, 0 }
80003766:	ba38b1f0538e                           	{ bltu	a3, a5, 80003773 <_Litob+0x113>; or	a13, a2, a2 }
8000376c:	13cc                                    	bnez.n	a3, 80003771 <_Litob+0x111>
8000376e:	001216                                    	beqz	a2, 80003773 <_Litob+0x113>

80003771 <_Litob+0x111>:
80003771:	100c                                    	movi.n	a0, 1

80003773 <_Litob+0x113>:
80003773:	108c                                    	beqz.n	a0, 80003778 <_Litob+0x118>
80003775:	b421c7                                    	blt	a1, a12, 8000372d <_Litob+0xcd>

80003778 <_Litob+0x118>:
80003778:	f1b8                                    	l32i.n	a11, a1, 60
8000377a:	94083842af3e                           	{ addi	a10, a15, -8; movi	a8, 0 }
80003780:	9400500191ee                           	{ movi	a9, 1; movi	a7, 0 }
80003786:	b7a05c7ea9fe                           	{ moveqz	a7, a9, a10; moveqz	a8, a9, a11 }
8000378c:	7026401f879e                           	{ bnone	a7, a8, 800037b7 <_Litob+0x157>; l32i	a14, a1, 32 }
80003792:	1e1ee2                                    	l16ui	a14, a14, 60
80003795:	1e6e37                                    	bbci	a14, 3, 800037b7 <_Litob+0x157>
80003798:	112102                                    	l32i	a0, a1, 68
8000379b:	7f1c                                    	movi.n	a15, 23
8000379d:	043f07                                    	bltu	a15, a0, 800037a5 <_Litob+0x145>
800037a0:	023c                                    	movi.n	a2, 48
800037a2:	111427                                    	beq	a4, a2, 800037b7 <_Litob+0x157>

800037a5 <_Litob+0x145>:
800037a5:	112132                                    	l32i	a3, a1, 68
800037a8:	57f1d62b402e                           	{ movi	a4, 48; addi	a12, a12, -1 }
800037ae:	53f1c1844cce                           	{ s8i	a4, a12, 0; addi	a3, a3, -1 }
800037b4:	116132                                    	s32i	a3, a1, 68

800037b7 <_Litob+0x157>:
800037b7:	112152                                    	l32i	a5, a1, 68
800037ba:	0821d2                                    	l32i	a13, a1, 32
800037bd:	18a042                                    	movi	a4, 24
800037c0:	c04450                                    	sub	a4, a4, a5
800037c3:	ba07c67b4d0e                           	{ s32i	a4, a13, 28; or	a3, a12, a12 }
800037c9:	701016c4bdae                           	{ call0	80006ac0 <memcpy>; l32i	a2, a13, 16 }
800037cf:	701dc6440dce                           	{ l32i	a0, a13, 48; l32i	a3, a13, 28 }
800037d5:	e044027cd0038f                               	{ blt.w15	a3, a0, 80003858 <_Litob+0x1f8>; nop }
800037dc:	7021d047201e                           	{ bgez	a0, 80003822 <_Litob+0x1c2>; l32i	a12, a1, 44 }
800037e2:	1e1d62                                    	l16ui	a6, a13, 60
800037e5:	14a072                                    	movi	a7, 20
800037e8:	106670                                    	and	a6, a6, a7
800037eb:	33b666                                    	bnei	a6, 16, 80003822 <_Litob+0x1c2>
800037ee:	8198                                    	l32i.n	a9, a1, 32
800037f0:	70354456a90e                           	{ l32i	a10, a9, 20; l32i	a8, a9, 56 }
800037f6:	6998                                    	l32i.n	a9, a9, 24
800037f8:	c088a0                                    	sub	a8, a8, a10
800037fb:	c08890                                    	sub	a8, a8, a9
800037fe:	c08830                                    	sub	a8, a8, a3
80003801:	1d18a6                                    	blti	a8, 1, 80003822 <_Litob+0x1c2>
80003804:	702a4056c1ce                           	{ l32i	a12, a1, 44; l32i	a11, a1, 32 }
8000380a:	702d4044d10e                           	{ l32i	a13, a1, 48; l32i	a0, a1, 40 }
80003810:	743ad8a788be                           	{ or	a10, a8, a8; l32i	a14, a1, 52 }
80003816:	7037406fabce                           	{ s32i	a10, a11, 24; l32i	a15, a1, 56 }
8000381c:	56827044505e                           	{ ret; addi	a1, a1, 80 }

80003822 <_Litob+0x1c2>:
80003822:	a108                                    	l32i.n	a0, a1, 40
80003824:	e1f8                                    	l32i.n	a15, a1, 56
80003826:	703c4057e14e                           	{ l32i	a14, a1, 52; l32i	a13, a1, 48 }
8000382c:	56827044505e                           	{ ret; addi	a1, a1, 80 }

80003832 <_Litob+0x1d2>:
80003832:	050c                                    	movi.n	a5, 0
80003834:	a8c000281830cf                               	{ blti.w15	a0, 1, 80003903 <_Litob+0x2a3>; movi	a3, 0 }

8000383b <_Litob+0x1db>:
8000383b:	e81316                                    	beqz	a3, 800036c0 <_Litob+0x60>
8000383e:	fe7c                                    	movi.n	a14, -1
80003840:	30e0e0                                    	xor	a14, a0, a14
80003843:	ca30b0553e0e                           	{ addi	a3, a14, 1; neg	a13, a4 }
80003849:	b7bf11f5731e                           	{ j	800036c0 <_Litob+0x60>; moveqz	a14, a3, a4 }

8000384f <_Litob+0x1ef>:
	...

80003850 <_Litob+0x1f0>:
80003850:	050c                                    	movi.n	a5, 0
80003852:	940e90f34cde                           	{ j	800036a2 <_Litob+0x42>; movi	a15, 16 }

80003858 <_Litob+0x1f8>:
80003858:	f3f321                                    	l32r	a2, 80000824 (ffef <xthals_release_major+0xd10f>)
8000385b:	1e1df2                                    	l16ui	a15, a13, 60
8000385e:	b1c8                                    	l32i.n	a12, a1, 44
80003860:	ba9a404001ce                           	{ l32i	a0, a1, 40; sub	a4, a0, a3 }
80003866:	b137c76c4d8e                           	{ s32i	a4, a13, 24; and	a15, a15, a2 }
8000386c:	743ec067fd8e                           	{ s16i	a15, a13, 60; l32i	a14, a1, 52 }
80003872:	703d4047d1ce                           	{ l32i	a13, a1, 48; l32i	a15, a1, 56 }
80003878:	56827044505e                           	{ ret; addi	a1, a1, 80 }

8000387e <_Litob+0x21e>:
	...

80003880 <_Litob+0x220>:
80003880:	f3ea51                                    	l32r	a5, 80000828 (80000430 <udigs_156>)
80003883:	106152                                    	s32i	a5, a1, 64
80003886:	ff7e06                                    	j	80003682 <_Litob+0x22>

80003889 <_Litob+0x229>:
80003889:	0c0c                                    	movi.n	a12, 0
8000388b:	940e14f315de                           	{ j	800036a4 <_Litob+0x44>; movi	a15, 8 }

80003891 <_Litob+0x231>:
80003891:	57e05706606e                           	{ movi	a6, 0; addi	a9, a15, -8 }
80003897:	9400500181ee                           	{ movi	a8, 1; movi	a7, 0 }
8000389d:	b7915c7ac87e                           	{ moveqz	a7, a8, a12; moveqz	a6, a8, a9 }
800038a3:	1f0677                                    	bnone	a6, a7, 800038c6 <_Litob+0x266>
800038a6:	81a8                                    	l32i.n	a10, a1, 32
800038a8:	1e1aa2                                    	l16ui	a10, a10, 60
800038ab:	176a37                                    	bbci	a10, 3, 800038c6 <_Litob+0x266>
800038ae:	91b8                                    	l32i.n	a11, a1, 36
800038b0:	0c3c                                    	movi.n	a12, 48
800038b2:	101bc7                                    	beq	a11, a12, 800038c6 <_Litob+0x266>
800038b5:	7d1c                                    	movi.n	a13, 23
800038b7:	1161d2                                    	s32i	a13, a1, 68
800038ba:	561f90f7e71e                           	{ j	800037a5 <_Litob+0x145>; addi	a12, a1, 23 }

800038c0 <_Litob+0x260>:
800038c0:	e56256                                    	bnez	a2, 8000371a <_Litob+0xba>
800038c3:	ff9546                                    	j	8000371c <_Litob+0xbc>

800038c6 <_Litob+0x266>:
800038c6:	7e1c                                    	movi.n	a14, 23
800038c8:	1161e2                                    	s32i	a14, a1, 68
800038cb:	561f90f7e81e                           	{ j	800037b7 <_Litob+0x157>; addi	a12, a1, 23 }

800038d1 <_Litob+0x271>:
800038d1:	0d2d                                    	mov.n	a2, a13
800038d3:	be1ade2bee3e                           	{ or	a3, a14, a14; or	a5, a12, a12 }
800038d9:	0020f0                                    	nop
800038dc:	ba1017cf58ee                           	{ call0	80006e40 <__udivdi3>; or	a4, a15, a15 }
800038e2:	03ed                                    	mov.n	a14, a3
800038e4:	940a58c822be                           	{ or	a13, a2, a2; movi	a2, 0 }
800038ea:	900630f0230e                           	{ bltu	a3, a2, 800038f5 <_Litob+0x295>; movi	a0, 0 }
800038f0:	044316                                    	beqz	a3, 80003938 <_Litob+0x2d8>

800038f3 <_Litob+0x293>:
800038f3:	100c                                    	movi.n	a0, 1

800038f5 <_Litob+0x295>:
800038f5:	709c                                    	beqz.n	a0, 80003910 <_Litob+0x2b0>
800038f7:	900ec478c1ce                           	{ s32i	a12, a1, 60; movi	a3, 24 }
800038fd:	116132                                    	s32i	a3, a1, 68
80003900:	ff8906                                    	j	80003728 <_Litob+0xc8>

80003903 <_Litob+0x2a3>:
80003903:	042016                                    	beqz	a0, 80003949 <_Litob+0x2e9>

80003906 <_Litob+0x2a6>:
80003906:	940e10fc31de                           	{ j	8000383b <_Litob+0x1db>; movi	a3, 1 }

8000390c <_Litob+0x2ac>:
8000390c:	00000000                                ....

80003910 <_Litob+0x2b0>:
80003910:	57e0570540ee                           	{ movi	a4, 0; addi	a7, a15, -8 }
80003916:	94005001616e                           	{ movi	a6, 1; movi	a5, 0 }
8000391c:	b7905b59c6fe                           	{ moveqz	a5, a6, a12; moveqz	a4, a6, a7 }
80003922:	180457                                    	bnone	a4, a5, 8000393e <_Litob+0x2de>
80003925:	8188                                    	l32i.n	a8, a1, 32
80003927:	1e1882                                    	l16ui	a8, a8, 60
8000392a:	106837                                    	bbci	a8, 3, 8000393e <_Litob+0x2de>
8000392d:	891c                                    	movi.n	a9, 24
8000392f:	116192                                    	s32i	a9, a1, 68
80003932:	562e10f76f1e                           	{ j	800037a5 <_Litob+0x145>; addi	a12, a1, 24 }

80003938 <_Litob+0x2d8>:
80003938:	fb7d56                                    	bnez	a13, 800038f3 <_Litob+0x293>
8000393b:	ffed86                                    	j	800038f5 <_Litob+0x295>

8000393e <_Litob+0x2de>:
8000393e:	8a1c                                    	movi.n	a10, 24
80003940:	1161a2                                    	s32i	a10, a1, 68
80003943:	562e10f7701e                           	{ j	800037b7 <_Litob+0x157>; addi	a12, a1, 24 }

80003949 <_Litob+0x2e9>:
80003949:	e6f40e3c88548f                               	{ bgeu.w15	a4, a5, 8000383b <_Litob+0x1db>; nop }
80003950:	ffec86                                    	j	80003906 <_Litob+0x2a6>

80003953 <_Litob+0x2f3>:
	...

80003960 <_LXp_setw>:
80003960:	d0c112                                    	addi	a1, a1, -48
80003963:	4109                                    	s32i.n	a0, a1, 16
80003965:	c0c0a800014e                           	{ pdx_ss_64_i	v0, a1, 0; nop }
8000396b:	0661d2                                    	s32i	a13, a1, 24
8000396e:	ba34c178c18e                           	{ s32i	a12, a1, 20; or	a13, a2, a2 }
80003974:	a90f32610c33cf                               	{ blti.w15	a3, 1, 80003ab0 <_LXp_setw+0x150>; or	a12, a3, a3 }
8000397b:	c0c0a800514e                           	{ pdx_ss_64_i	v0, a1, 40; nop }
80003981:	4b1326                                    	beqi	a3, 1, 800039d0 <_LXp_setw+0x70>
80003984:	08c122                                    	addi	a2, a1, 8
80003987:	0020f0                                    	nop
8000398a:	be0f90fc317e                           	{ call0	80003650 <_LDunscale>; or	a3, a1, a1 }
80003990:	bdc0d021020e                           	{ beqz	a2, 800039b4 <_LXp_setw+0x54>; const.d	v1, 0 }
80003996:	2008600c322e                           	{ blti	a2, 1, 800039e2 <_LXp_setw+0x82>; pdx_ls_64_i	v0, a1, 0 }
8000399c:	70144054c10e                           	{ l32i	a12, a1, 20; l32i	a0, a1, 16 }
800039a2:	ba012e0f1d4e                           	{ pdx_ss_64_i	v1, a13, 8; or	a2, a13, a13 }
800039a8:	701128070d4e                           	{ pdx_ss_64_i	v0, a13, 0; l32i	a13, a1, 24 }
800039ae:	56427044505e                           	{ ret; addi	a1, a1, 48 }

800039b4 <_LXp_setw+0x54>:
800039b4:	20044044010e                           	{ l32i	a0, a1, 16; pdx_ls_64_i	v0, a1, 0 }
800039ba:	741ad827dd3e                           	{ or	a2, a13, a13; l32i	a12, a1, 20 }
800039c0:	701128070d4e                           	{ pdx_ss_64_i	v0, a13, 0; l32i	a13, a1, 24 }
800039c6:	56427044505e                           	{ ret; addi	a1, a1, 48 }

800039cc <_LXp_setw+0x6c>:
800039cc:	00000000                                ....

800039d0 <_LXp_setw+0x70>:
800039d0:	c0c0a800024e                           	{ pdx_ss_64_i	v0, a2, 0; nop }
800039d6:	70154057c14e                           	{ l32i	a12, a1, 20; l32i	a13, a1, 24 }
800039dc:	56427044505e                           	{ ret; addi	a1, a1, 48 }

800039e2 <_LXp_setw+0x82>:
800039e2:	202110                                    	or	a2, a1, a1
800039e5:	9000954862ee                           	{ call0	80004f70 <_LDint>; movi	a3, 26 }
800039eb:	202110                                    	or	a2, a1, a1
800039ee:	6010104c64ee                           	{ call0	80004f80 <_LDscale>; l16si	a3, a1, 8 }
800039f4:	c0c0a040015e                           	{ pdx_ls_64_i	v4, a1, 0; nop }
800039fa:	0020f0                                    	nop
800039fd:	c0c0a8400d4e                           	{ pdx_ss_64_i	v4, a13, 0; nop }
80003a03:	2001a024511e                           	{ pdx_ls_64_i	v2, a1, 40; pdx_ls_64_i	v3, a1, 0 }
80003a09:	90c03dc56050af                               	{ nop; nop; sub.d	v0, v2, v3 }
80003a10:	f38701                                    	l32r	a0, 8000082c (80000468 <ldigs_157+0x18>)
80003a13:	c0c0a8001d4e                           	{ pdx_ss_64_i	v0, a13, 8; nop }
80003a19:	2404c098300e                           	{ nop; pdx_ls_64_i	v1, a0, 0 }
80003a1f:	e8840034383c8f                               	{ blti.w15	a12, 3, 80003ab0 <_LXp_setw+0x150>; nop }
80003a26:	d0c21c0060502f                               	{ nop; nop; oeq.d	vb0, v0, v1 }
80003a2d:	c4caf028005e                           	{ pdx_movbr_b	b0, vb0; nop }
80003a33:	c0c0a800414e                           	{ pdx_ss_64_i	v0, a1, 32; nop }
80003a39:	6d1076                                    	bt	b0, 80003aaa <_LXp_setw+0x14a>
80003a3c:	08cd32                                    	addi	a3, a13, 8
80003a3f:	036132                                    	s32i	a3, a1, 12
80003a42:	0020f0                                    	nop
80003a45:	542e10fc02be                           	{ call0	80003650 <_LDunscale>; addi	a2, a1, 8 }
80003a4b:	032122                                    	l32i	a2, a1, 12
80003a4e:	0020f0                                    	nop
80003a51:	9000954847ee                           	{ call0	80004f70 <_LDint>; movi	a3, 26 }
80003a57:	032122                                    	l32i	a2, a1, 12
80003a5a:	0020f0                                    	nop
80003a5d:	6010104c48ee                           	{ call0	80004f80 <_LDscale>; l16si	a3, a1, 8 }
80003a63:	2010a0651d1e                           	{ pdx_ls_64_i	v6, a13, 8; pdx_ls_64_i	v5, a1, 32 }
80003a69:	90c06dc561506f                               	{ nop; nop; sub.d	v0, v5, v6 }
80003a70:	f36f21                                    	l32r	a2, 8000082c (80000468 <ldigs_157+0x18>)
80003a73:	c0c0a8002d4e                           	{ pdx_ss_64_i	v0, a13, 16; nop }
80003a79:	2413e1503c1e                           	{ blti	a12, 4, 80003ab0 <_LXp_setw+0x150>; pdx_ls_64_i	v7, a2, 0 }
80003a7f:	d0c27c2060502f                               	{ nop; nop; oeq.d	vb1, v0, v7 }
80003a86:	c4caf028115e                           	{ pdx_movbr_b	b1, vb1; nop }
80003a8c:	201176                                    	bt	b1, 80003ab0 <_LXp_setw+0x150>
80003a8f:	023d                                    	mov.n	a3, a2
80003a91:	70102084031e                           	{ pdx_ls_64_i	v8, a3, 0; l32i	a0, a1, 16 }
80003a97:	741ad827dd3e                           	{ or	a2, a13, a13; l32i	a12, a1, 20 }
80003a9d:	701128873d4e                           	{ pdx_ss_64_i	v8, a13, 24; l32i	a13, a1, 24 }
80003aa3:	56427044505e                           	{ ret; addi	a1, a1, 48 }

80003aa9 <_LXp_setw+0x149>:
	...

80003aaa <_LXp_setw+0x14a>:
80003aaa:	c0c0a8082d4e                           	{ pdx_ss_64_i	v1, a13, 16; nop }
80003ab0:	4108                                    	l32i.n	a0, a1, 16
80003ab2:	0d2d                                    	mov.n	a2, a13
80003ab4:	70154057c14e                           	{ l32i	a12, a1, 20; l32i	a13, a1, 24 }
80003aba:	56427044505e                           	{ ret; addi	a1, a1, 48 }

80003ac0 <_LXp_movx>:
80003ac0:	57ca5864337e                           	{ or	a6, a3, a3; addi	a1, a1, -16 }
80003ac6:	ba01c279c10e                           	{ s32i	a12, a1, 4; or	a3, a4, a4 }
80003acc:	ba304168018e                           	{ s32i	a0, a1, 0; or	a12, a2, a2 }
80003ad2:	0020f0                                    	nop
80003ad5:	aad013abfa6e                           	{ call0	80006ac0 <memcpy>; slli	a4, a6, 3 }
80003adb:	0108                                    	l32i.n	a0, a1, 0
80003add:	ba014653c10e                           	{ l32i	a12, a1, 4; or	a2, a12, a12 }
80003ae3:	56027044505e                           	{ ret; addi	a1, a1, 16 }

80003ae9 <_LXp_movx+0x29>:
80003ae9:	00000000 12000000                                .......

80003af0 <_LXp_mulh>:
80003af0:	90c112                                    	addi	a1, a1, -112
80003af3:	0c61c2                                    	s32i	a12, a1, 48
80003af6:	0f61f2                                    	s32i	a15, a1, 60
80003af9:	c0c0a8f8615e                           	{ pdx_sv_v_i	v31, a1, 96; nop }
80003aff:	0b6102                                    	s32i	a0, a1, 44
80003b02:	c0c0a8f0515e                           	{ pdx_sv_v_i	v30, a1, 80; nop }
80003b08:	0e61e2                                    	s32i	a14, a1, 56
80003b0b:	ba3d4178d18e                           	{ s32i	a13, a1, 52; or	a14, a2, a2 }
80003b11:	0157be588ae0e1d5844c45c0de1c33bf 	{ blti.w15	a3, 1, 80003b60 <_LXp_mulh+0x70>; or	a13, a3, a3; pdx_mov_v	v30, v0; nop }
80003b21:	c0c0a008025e                           	{ pdx_ls_64_i	v1, a2, 0; nop }
80003b27:	44b817c048e01f                               	{ nop; nop; nop; mul.d	v0, v1, v0 }
80003b2e:	c0c0a800014e                           	{ pdx_ss_64_i	v0, a1, 0; nop }
80003b34:	be0f10dc027e                           	{ call0	80002f40 <_LDtest>; or	a2, a1, a1 }
80003b3a:	20c220                                    	or	a12, a2, a2
80003b3d:	bff1d041321e                           	{ bltz	a2, 80003b84 <_LXp_mulh+0x94>; const.d	v31, 0 }
80003b43:	e944026430028f                               	{ beqi.w15	a2, 2, 80003cc0 <_LXp_mulh+0x1d0>; nop }

80003b4a <_LXp_mulh+0x5a>:
80003b4a:	c0c0a020015e                           	{ pdx_ls_64_i	v2, a1, 0; nop }
80003b50:	c0c0a8200e4e                           	{ pdx_ss_64_i	v2, a14, 0; nop }
80003b56:	061ca6                                    	blti	a12, 1, 80003b60 <_LXp_mulh+0x70>
80003b59:	e904027c301d8f                               	{ bgei.w15	a13, 2, 80003c9c <_LXp_mulh+0x1ac>; nop }

80003b60 <_LXp_mulh+0x70>:
80003b60:	703cc047c14e                           	{ l32i	a12, a1, 48; l32i	a13, a1, 52 }
80003b66:	702fc054f10e                           	{ l32i	a15, a1, 60; l32i	a0, a1, 44 }
80003b6c:	363b5825ee7e                           	{ or	a2, a14, a14; pdx_lv_v_i	v30, a1, 80 }
80003b72:	323fc045e18e                           	{ l32i	a14, a1, 56; pdx_lv_v_i	v31, a1, 96 }
80003b78:	56c27044505e                           	{ ret; addi	a1, a1, 112 }

80003b7e <_LXp_mulh+0x8e>:
80003b7e:	00000000 110e0000                                ......

80003b84 <_LXp_mulh+0x94>:
80003b84:	9400406f110e                           	{ s32i	a1, a1, 64; movi	a12, 1 }
80003b8a:	900028fb0ece                           	{ pdx_ss_64_i	v31, a14, 0; movi	a15, 0 }

80003b90 <_LXp_mulh+0xa0>:
80003b90:	900662401c2e                           	{ bgei	a12, 4, 80003bda <_LXp_mulh+0xea>; movi	a0, 4 }
80003b96:	c040c0                                    	sub	a4, a0, a12
80003b99:	f03d                                    	nop.n
80003b9b:	b6cbc698145e                           	{ loopgtz	a4, 80003bda <_LXp_mulh+0xea>; addx8	a3, a12, a1 }
80003ba1:	6cfa                                    	add.n	a6, a12, a15
80003ba3:	40cf52a3b3d68f                               	{ bge.w15	a6, a13, 80003c90 <_LXp_mulh+0x1a0>; addx8	a5, a6, a14 }
80003baa:	c0c0a000055e                           	{ pdx_ls_64_i	v0, a5, 0; nop }
80003bb0:	d0c3fc0060502f                               	{ nop; nop; oeq.d	vb0, v0, v31 }
80003bb7:	c4caf028005e                           	{ pdx_movbr_b	b0, vb0; nop }
80003bbd:	7258008663500f                               	{ bf	b0, 80003bc7 <_LXp_mulh+0xd7>; addi	a12, a12, 1 }
80003bc4:	003206                                    	j	80003c90 <_LXp_mulh+0x1a0>
80003bc7:	44b9e7c348e01f                               	{ nop; nop; nop; mul.d	v3, v30, v0 }
80003bce:	c4ced828136e                           	{ pdx_ss_64_ip	v3, a3, 8; nop }
80003bd4:	c0c0a8f8054e                           	{ pdx_ss_64_i	v31, a5, 0; nop }

80003bda <_LXp_mulh+0xea>:
80003bda:	c0c0a000015e                           	{ pdx_ls_64_i	v0, a1, 0; nop }
80003be0:	d0c3fc2060502f                               	{ nop; nop; oeq.d	vb1, v0, v31 }
80003be7:	0020f0                                    	nop
80003bea:	c4caf028115e                           	{ pdx_movbr_b	b1, vb1; nop }
80003bf0:	0020f0                                    	nop
80003bf3:	0020f0                                    	nop
80003bf6:	020176                                    	bf	b1, 80003bfc <_LXp_mulh+0x10c>
80003bf9:	ffd8c6                                    	j	80003b60 <_LXp_mulh+0x70>
80003bfc:	50602804418e                           	{ pdx_ss_64_i	v0, a1, 32; addi	a2, a1, 40 }
80003c02:	544e10f493fe                           	{ call0	80003650 <_LDunscale>; addi	a3, a1, 32 }
80003c08:	20c122                                    	addi	a2, a1, 32
80003c0b:	0020f0                                    	nop
80003c0e:	90009540d8ee                           	{ call0	80004f70 <_LDint>; movi	a3, 26 }
80003c14:	20c122                                    	addi	a2, a1, 32
80003c17:	0020f0                                    	nop
80003c1a:	62101044d9ee                           	{ call0	80004f80 <_LDscale>; l16si	a3, a1, 40 }
80003c20:	be0bde27ee7e                           	{ or	a2, a14, a14; or	a3, a13, a13 }
80003c26:	2404409d300e                           	{ nop; pdx_ls_64_i	v0, a1, 32 }
80003c2c:	0020f0                                    	nop
80003c2f:	00e205                                    	call0	80004a50 <_LXp_addh>
80003c32:	c0c0a048415e                           	{ pdx_ls_64_i	v5, a1, 32; nop }
80003c38:	ba012743019e                           	{ pdx_ls_64_i	v4, a1, 0; or	a2, a14, a14 }
80003c3e:	0157b65eaae5e130813441c0e70f883f 	{ nop; or	a3, a13, a13; sub.d	v0, v4, v5; nop }
80003c4e:	0020f0                                    	nop
80003c51:	00dfc5                                    	call0	80004a50 <_LXp_addh>
80003c54:	760e38545c3e                           	{ addi	a5, a12, -1; l32i	a0, a1, 64 }
80003c5a:	5002c78f15de                           	{ loopgtz	a5, 80003c80 <_LXp_mulh+0x190>; addi	a15, a15, 1 }
80003c60:	c0c0a060105e                           	{ pdx_ls_64_i	v6, a0, 8; nop }
80003c66:	d0c3fc406150af                               	{ nop; nop; oeq.d	vb2, v6, v31 }
80003c6d:	c4caf028225e                           	{ pdx_movbr_b	b2, vb2; nop }
80003c73:	c0c0a860004e                           	{ pdx_ss_64_i	v6, a0, 0; nop }
80003c79:	7258200028620f                               	{ bt	b2, 80003c80 <_LXp_mulh+0x190>; addi	a0, a0, 8 }

80003c80 <_LXp_mulh+0x190>:
80003c80:	673bfdb6e3fd0f                               	{ bne.w15	a13, a15, 80003b90 <_LXp_mulh+0xa0>; addi	a12, a12, -1 }
80003c87:	ffb546                                    	j	80003b60 <_LXp_mulh+0x70>

80003c8a <_LXp_mulh+0x19a>:
80003c8a:	000000                                        ...

80003c8d <_LXp_mulh+0x19d>:
80003c8d:	000000                                        ...

80003c90 <_LXp_mulh+0x1a0>:
80003c90:	c0c0a8f8034e                           	{ pdx_ss_64_i	v31, a3, 0; nop }
80003c96:	940e14fb401e                           	{ j	80003bda <_LXp_mulh+0xea>; movi	a12, 8 }

80003c9c <_LXp_mulh+0x1ac>:
80003c9c:	c1c8                                    	l32i.n	a12, a1, 48
80003c9e:	703dc057d1ce                           	{ l32i	a13, a1, 52; l32i	a15, a1, 60 }
80003ca4:	323b4055014e                           	{ l32i	a0, a1, 44; pdx_lv_v_i	v30, a1, 80 }
80003caa:	ba012ffb1e8e                           	{ pdx_ss_64_i	v31, a14, 8; or	a2, a14, a14 }
80003cb0:	323fc045e18e                           	{ l32i	a14, a1, 56; pdx_lv_v_i	v31, a1, 96 }
80003cb6:	56c27044505e                           	{ ret; addi	a1, a1, 112 }

80003cbc <_LXp_mulh+0x1cc>:
80003cbc:	00000000                                ....

80003cc0 <_LXp_mulh+0x1d0>:
80003cc0:	90009008e7ae                           	{ call0	80004460 <_Feraise>; movi	a2, 16 }
80003cc6:	ffa006                                    	j	80003b4a <_LXp_mulh+0x5a>

80003cc9 <_LXp_mulh+0x1d9>:
80003cc9:	00000000 12000000                                .......

80003cd0 <_LXp_mulx>:
80003cd0:	c0c112                                    	addi	a1, a1, -64
80003cd3:	61f9                                    	s32i.n	a15, a1, 24
80003cd5:	41d9                                    	s32i.n	a13, a1, 16
80003cd7:	ba34c279e10e                           	{ s32i	a14, a1, 20; or	a13, a4, a4 }
80003cdd:	ba3129f0219e                           	{ pdx_sv_v_i	v30, a1, 32; or	a14, a2, a2 }
80003ce3:	ba034369018e                           	{ s32i	a0, a1, 8; or	a2, a6, a6 }
80003ce9:	ba32417cc1ce                           	{ s32i	a12, a1, 12; or	a12, a3, a3 }
80003cef:	be01d2cd9c4e                           	{ beqz	a12, 80003dcc <_LXp_mulx+0xfc>; or	a3, a5, a5 }
80003cf5:	bff150c9350e                           	{ beqz	a5, 80003dcc <_LXp_mulx+0xfc>; const.d	v30, 0 }
80003cfb:	c0c0a000045e                           	{ pdx_ls_64_i	v0, a4, 0; nop }
80003d01:	d0c3ec0060502f                               	{ nop; nop; oeq.d	vb0, v0, v30 }
80003d08:	0020f0                                    	nop
80003d0b:	c4caf028005e                           	{ pdx_movbr_b	b0, vb0; nop }
80003d11:	0020f0                                    	nop
80003d14:	3250008260504f                               	{ bf	b0, 80003d1e <_LXp_mulx+0x4e>; pdx_ls_64_i	v1, a4, 8 }
80003d1b:	0032c6                                    	j	80003dea <_LXp_mulx+0x11a>
80003d1e:	d0c3ec2060506f                               	{ nop; nop; oeq.d	vb1, v1, v30 }
80003d25:	c4caf028115e                           	{ pdx_movbr_b	b1, vb1; nop }
80003d2b:	1129                                    	s32i.n	a2, a1, 4
80003d2d:	020176                                    	bf	b1, 80003d33 <_LXp_mulx+0x63>
80003d30:	002d86                                    	j	80003dea <_LXp_mulx+0x11a>
80003d33:	20f550                                    	or	a15, a5, a5
80003d36:	be0bde23663e                           	{ or	a2, a6, a6; or	a3, a12, a12 }
80003d3c:	0020f0                                    	nop
80003d3f:	be1e17fb60be                           	{ call0	80003ac0 <_LXp_movx>; or	a4, a14, a14 }
80003d45:	be0bde23ee3e                           	{ or	a2, a14, a14; or	a3, a12, a12 }
80003d4b:	2404469c300e                           	{ nop; pdx_ls_64_i	v0, a13, 0 }
80003d51:	0020f0                                    	nop
80003d54:	ffd985                                    	call0	80003af0 <_LXp_mulh>
80003d57:	542066343f3e                           	{ blti	a15, 2, 80003dcc <_LXp_mulx+0xfc>; addi	a0, a13, 8 }
80003d5d:	c0c0a0201d5e                           	{ pdx_ls_64_i	v2, a13, 8; nop }
80003d63:	d0c3ec406050af                               	{ nop; nop; oeq.d	vb2, v2, v30 }
80003d6a:	c4caf028225e                           	{ pdx_movbr_b	b2, vb2; nop }
80003d70:	b2c14757f14e                           	{ l32i	a15, a1, 4; addx8	a2, a15, a13 }
80003d76:	20d000                                    	or	a13, a0, a0
80003d79:	525f71ce6b62cf                               	{ bt	b2, 80003dcc <_LXp_mulx+0xfc>; addx8	a15, a12, a15 }
80003d80:	006122                                    	s32i	a2, a1, 0

80003d83 <_LXp_mulx+0xb3>:
80003d83:	be0bde23ff3e                           	{ or	a2, a15, a15; or	a3, a12, a12 }
80003d89:	740e90fd4d3e                           	{ call0	80003ac0 <_LXp_movx>; l32i	a4, a1, 4 }
80003d8f:	be0bde23ff3e                           	{ or	a2, a15, a15; or	a3, a12, a12 }
80003d95:	2404469c300e                           	{ nop; pdx_ls_64_i	v0, a13, 0 }
80003d9b:	ffd545                                    	call0	80003af0 <_LXp_mulh>
80003d9e:	202ee0                                    	or	a2, a14, a14
80003da1:	be1a5f2fccfe                           	{ or	a3, a12, a12; or	a4, a15, a15 }
80003da7:	ba109643522e                           	{ call0	80004ef0 <_LXp_addx>; or	a5, a12, a12 }
80003dad:	002132                                    	l32i	a3, a1, 0
80003db0:	08cdd2                                    	addi	a13, a13, 8
80003db3:	15bd37                                    	bgeu	a13, a3, 80003dcc <_LXp_mulx+0xfc>
80003db6:	c0c0a0280d5e                           	{ pdx_ls_64_i	v3, a13, 0; nop }
80003dbc:	d0c3ec606050ef                               	{ nop; nop; oeq.d	vb3, v3, v30 }
80003dc3:	c4caf028335e                           	{ pdx_movbr_b	b3, vb3; nop }
80003dc9:	b60376                                    	bf	b3, 80003d83 <_LXp_mulx+0xb3>
80003dcc:	0321c2                                    	l32i	a12, a1, 12
80003dcf:	70054044d10e                           	{ l32i	a13, a1, 16; l32i	a0, a1, 8 }
80003dd5:	741b5827eefe                           	{ or	a2, a14, a14; l32i	a15, a1, 24 }
80003ddb:	32354054e18e                           	{ l32i	a14, a1, 20; pdx_lv_v_i	v30, a1, 32 }
80003de1:	54827044505e                           	{ ret; addi	a1, a1, 64 }

80003de7 <_LXp_mulx+0x117>:
80003de7:	000000                                        ...

80003dea <_LXp_mulx+0x11a>:
80003dea:	be0bde23ee3e                           	{ or	a2, a14, a14; or	a3, a12, a12 }
80003df0:	740f90ff3f3e                           	{ call0	80003af0 <_LXp_mulh>; l32i	a12, a1, 12 }
80003df6:	70074044f10e                           	{ l32i	a15, a1, 24; l32i	a0, a1, 8 }
80003dfc:	741a5827ee7e                           	{ or	a2, a14, a14; l32i	a13, a1, 16 }
80003e02:	32354054e18e                           	{ l32i	a14, a1, 20; pdx_lv_v_i	v30, a1, 32 }
80003e08:	54827044505e                           	{ ret; addi	a1, a1, 64 }

80003e0e <_LXp_mulx+0x13e>:
	...

80003e10 <_Mbtowcx>:
80003e10:	f0c112                                    	addi	a1, a1, -16
80003e13:	31d9                                    	s32i.n	a13, a1, 12
80003e15:	7813426ec10e                           	{ s32i	a12, a1, 8; l8ui	a8, a5, 6 }
80003e1b:	7000437901ce                           	{ s32i	a0, a1, 4; l32i	a7, a6, 0 }
80003e21:	f283c1                                    	l32r	a12, 80000830 (80007ad4 <initial$8863_1_9>)
80003e24:	be22894c09fe                           	{ l32r	a0, 80000788 (800074b4 <_reent_ptr>); or	a9, a3, a3 }
80003e2a:	6800526e77ae                           	{ bnez	a7, 80003ea5 <_Mbtowcx+0x95>; l16ui	a10, a5, 0 }
80003e30:	18a316                                    	beqz	a3, 80003fbe <_Mbtowcx+0x1ae>

80003e33 <_Mbtowcx+0x23>:
80003e33:	943150e9c0ae                           	{ movi	a12, 240; movi	a6, 224 }
80003e39:	94305010940e                           	{ beqz	a4, 80003f46 <_Mbtowcx+0x136>; movi	a0, 192 }
80003e3f:	18ac                                    	beqz.n	a8, 80003e64 <_Mbtowcx+0x54>

80003e41 <_Mbtowcx+0x31>:
80003e41:	0009b2                                    	l8ui	a11, a9, 0
80003e44:	880b                                    	addi.n	a8, a8, -1
80003e46:	748080                                    	extui	a8, a8, 0, 8
80003e49:	417cd8c20bfe                           	{ and	a12, a11, a0; extui	a13, a11, 0, 6 }
80003e4f:	08845335f35c4f                               	{ bnei.w15	a12, 128, 80003f00 <_Mbtowcx+0xf0>; depbits	a13, a10, 6, 10 }
80003e56:	4de1503b184e                           	{ beqz	a8, 80003f8b <_Mbtowcx+0x17b>; extui	a10, a13, 0, 16 }

80003e5c <_Mbtowcx+0x4c>:
80003e5c:	991b                                    	addi.n	a9, a9, 1
80003e5e:	57ff92f9d11e                           	{ j	80003e33 <_Mbtowcx+0x23>; addi	a4, a4, -1 }

80003e64 <_Mbtowcx+0x54>:
80003e64:	0009b2                                    	l8ui	a11, a9, 0
80003e67:	ba2935267bce                           	{ bbsi	a11, 7, 80003e73 <_Mbtowcx+0x63>; or	a10, a11, a11 }
80003e6d:	feb856                                    	bnez	a8, 80003e5c <_Mbtowcx+0x4c>
80003e70:	0045c6                                    	j	80003f8b <_Mbtowcx+0x17b>

80003e73 <_Mbtowcx+0x63>:
80003e73:	10ab60                                    	and	a10, a11, a6
80003e76:	b538b5a70a0e                           	{ beq	a10, a0, 80003e92 <_Mbtowcx+0x82>; and	a13, a11, a12 }
80003e7c:	4080e100e26dcf                               	{ bne.w15	a13, a6, 80003f00 <_Mbtowcx+0xf0>; extui	a10, a11, 0, 4 }
80003e83:	53f1b251990e                           	{ addi	a9, a9, 1; addi	a4, a4, -1 }
80003e89:	940051aa740e                           	{ beqz	a4, 80003f44 <_Mbtowcx+0x134>; movi	a8, 2 }
80003e8f:	ffeb86                                    	j	80003e41 <_Mbtowcx+0x31>

80003e92 <_Mbtowcx+0x82>:
80003e92:	452f385244fe                           	{ addi	a4, a4, -1; extui	a10, a11, 0, 5 }
80003e98:	5400d456244e                           	{ beqz	a4, 80003fde <_Mbtowcx+0x1ce>; addi	a9, a9, 1 }
80003e9e:	940e10fe9f1e                           	{ j	80003e41 <_Mbtowcx+0x31>; movi	a8, 1 }

80003ea4 <_Mbtowcx+0x94>:
	...

80003ea5 <_Mbtowcx+0x95>:
80003ea5:	0b5316                                    	beqz	a3, 80003f5e <_Mbtowcx+0x14e>
80003ea8:	f237d1                                    	l32r	a13, 80000784 (fef <XtosCoreStateSize+0x6cf>)
80003eab:	9000406b210e                           	{ s32i	a2, a1, 0; movi	a12, 0 }
80003eb1:	478076                                    	loop	a0, 80003efc <_Mbtowcx+0xec>
80003eb4:	08e416                                    	beqz	a4, 80003f46 <_Mbtowcx+0x136>
80003eb7:	b0c464b928ae                           	{ bgeui	a8, 16, 80003f00 <_Mbtowcx+0xf0>; addx4	a0, a8, a6 }
80003ebd:	0008                                    	l32i.n	a0, a0, 0
80003ebf:	5400d62bd00e                           	{ beqz	a0, 80003f00 <_Mbtowcx+0xf0>; addi	a12, a12, 1 }
80003ec5:	372dc7                                    	blt	a13, a12, 80003f00 <_Mbtowcx+0xf0>
80003ec8:	0009b2                                    	l8ui	a11, a9, 0
80003ecb:	900b00                                    	addx2	a0, a11, a0
80003ece:	001002                                    	l16ui	a0, a0, 0
80003ed1:	44e05420b00e                           	{ beqz	a0, 80003f00 <_Mbtowcx+0xf0>; extui	a8, a0, 8, 4 }
80003ed7:	4015b610f00e                           	{ bbci	a0, 15, 80003ee0 <_Mbtowcx+0xd0>; extui	a7, a0, 12, 1 }
80003edd:	0a70a0                                    	depbits	a10, a0, 0, 8

80003ee0 <_Mbtowcx+0xd0>:
80003ee0:	7428a0                                    	extui	a2, a10, 8, 8
80003ee3:	8afa20                                    	depbits	a2, a10, 8, 16
80003ee6:	93a270                                    	movnez	a10, a2, a7
80003ee9:	49ed3002e08e                           	{ bbci	a0, 14, 80003ef9 <_Mbtowcx+0xe9>; extui	a10, a10, 0, 16 }
80003eef:	6b8c                                    	beqz.n	a11, 80003ef9 <_Mbtowcx+0xe9>
80003ef1:	991b                                    	addi.n	a9, a9, 1
80003ef3:	57f1d201c02e                           	{ movi	a12, 0; addi	a4, a4, -1 }
80003ef9:	20e0d7                                    	bbsi	a0, 13, 80003f1d <_Mbtowcx+0x10d>

80003efc <_Mbtowcx+0xec>:
80003efc:	ffec46                                    	j	80003eb1 <_Mbtowcx+0xa1>

80003eff <_Mbtowcx+0xef>:
	...

80003f00 <_Mbtowcx+0xf0>:
80003f00:	f22291                                    	l32r	a9, 80000788 (800074b4 <_reent_ptr>)
80003f03:	0998                                    	l32i.n	a9, a9, 0
80003f05:	93f1c754018e                           	{ l32i	a0, a1, 4; movi	a2, -1 }
80003f0b:	740150278a2e                           	{ movi	a8, 42; l32i	a12, a1, 8 }
80003f11:	7001c06f894e                           	{ s32i	a8, a9, 0; l32i	a13, a1, 12 }
80003f17:	56027044505e                           	{ ret; addi	a1, a1, 16 }

80003f1d <_Mbtowcx+0x10d>:
80003f1d:	01b8                                    	l32i.n	a11, a1, 0
80003f1f:	1b8c                                    	beqz.n	a11, 80003f24 <_Mbtowcx+0x114>
80003f21:	005ba2                                    	s16i	a10, a11, 0

80003f24 <_Mbtowcx+0x114>:
80003f24:	035582                                    	s16i	a8, a5, 6
80003f27:	05a9                                    	s32i.n	a10, a5, 0
80003f29:	081a16                                    	beqz	a10, 80003fae <_Mbtowcx+0x19e>
80003f2c:	7002c044c10e                           	{ l32i	a12, a1, 8; l32i	a0, a1, 4 }
80003f32:	bebed4fc2dee                           	{ movi	a2, -3; sub	a13, a9, a3 }
80003f38:	b8034657d14e                           	{ l32i	a13, a1, 12; movnez	a2, a13, a13 }
80003f3e:	56027044505e                           	{ ret; addi	a1, a1, 16 }

80003f44 <_Mbtowcx+0x134>:
80003f44:	280c                                    	movi.n	a8, 2

80003f46 <_Mbtowcx+0x136>:
80003f46:	7000c06ca50e                           	{ s32i	a10, a5, 0; l32i	a0, a1, 4 }
80003f4c:	93f3c770858e                           	{ s16i	a8, a5, 6; movi	a2, -2 }
80003f52:	7003c047c14e                           	{ l32i	a12, a1, 8; l32i	a13, a1, 12 }
80003f58:	56027044505e                           	{ ret; addi	a1, a1, 16 }

80003f5e <_Mbtowcx+0x14e>:
80003f5e:	0c38                                    	l32i.n	a3, a12, 0
80003f60:	68014669350e                           	{ s32i	a3, a5, 0; l16ui	a4, a12, 4 }
80003f66:	6803c66145ce                           	{ s16i	a4, a5, 4; l16ui	a7, a12, 6 }
80003f6c:	035572                                    	s16i	a7, a5, 6
80003f6f:	0628                                    	l32i.n	a2, a6, 0
80003f71:	f20631                                    	l32r	a3, 8000078c (f00 <XtosCoreStateSize+0x5e0>)
80003f74:	7000c02c220e                           	{ l16ui	a2, a2, 0; l32i	a0, a1, 4 }
80003f7a:	74013047110e                           	{ addi	a1, a1, 16; l32i	a12, a1, 8 }
80003f80:	b503714050de                           	{ ret; and	a2, a2, a3 }

80003f86 <_Mbtowcx+0x176>:
80003f86:	00000000 a2128c00                                .....

80003f8b <_Mbtowcx+0x17b>:
80003f8b:	128c                                    	beqz.n	a2, 80003f90 <_Mbtowcx+0x180>
80003f8d:	0052a2                                    	s16i	a10, a2, 0

80003f90 <_Mbtowcx+0x180>:
80003f90:	7003c047c14e                           	{ l32i	a12, a1, 8; l32i	a13, a1, 12 }
80003f96:	ba81445401ce                           	{ l32i	a0, a1, 4; sub	a2, a9, a3 }
80003f9c:	90003052220e                           	{ addi	a2, a2, 1; movi	a8, 0 }
80003fa2:	b3834472858e                           	{ s16i	a8, a5, 6; moveqz	a2, a8, a10 }
80003fa8:	56027044505e                           	{ ret; addi	a1, a1, 16 }

80003fae <_Mbtowcx+0x19e>:
80003fae:	1108                                    	l32i.n	a0, a1, 4
80003fb0:	020c                                    	movi.n	a2, 0
80003fb2:	7003c047c14e                           	{ l32i	a12, a1, 8; l32i	a13, a1, 12 }
80003fb8:	56027044505e                           	{ ret; addi	a1, a1, 16 }

80003fbe <_Mbtowcx+0x1ae>:
80003fbe:	020c                                    	movi.n	a2, 0
80003fc0:	7002c03c3c0e                           	{ l16ui	a3, a12, 6; l32i	a0, a1, 4 }
80003fc6:	68034671350e                           	{ s16i	a3, a5, 6; l16ui	a4, a12, 4 }
80003fcc:	70024661458e                           	{ s16i	a4, a5, 4; l32i	a6, a12, 0 }
80003fd2:	7001406f650e                           	{ s32i	a6, a5, 0; l32i	a12, a1, 8 }
80003fd8:	56027044505e                           	{ ret; addi	a1, a1, 16 }

80003fde <_Mbtowcx+0x1ce>:
80003fde:	e27c                                    	movi.n	a2, -2
80003fe0:	7000c06ca50e                           	{ s32i	a10, a5, 0; l32i	a0, a1, 4 }
80003fe6:	74015007812e                           	{ movi	a8, 1; l32i	a12, a1, 8 }
80003fec:	7003c077854e                           	{ s16i	a8, a5, 6; l32i	a13, a1, 12 }
80003ff2:	56027044505e                           	{ ret; addi	a1, a1, 16 }

80003ff8 <_Mbtowc>:
80003ff8:	f1e671                                    	l32r	a7, 80000790 (80007884 <_Tls_setup__Mbstate>)
80003ffb:	0778                                    	l32i.n	a7, a7, 0
80003ffd:	e0c112                                    	addi	a1, a1, -32
80004000:	0109                                    	s32i.n	a0, a1, 0
80004002:	679c                                    	beqz.n	a7, 8000401c <_Mbtowc+0x24>
80004004:	1129                                    	s32i.n	a2, a1, 4
80004006:	2139                                    	s32i.n	a3, a1, 8
80004008:	3149                                    	s32i.n	a4, a1, 12
8000400a:	046152                                    	s32i	a5, a1, 16
8000400d:	0007c0                                    	callx0	a7
80004010:	7005c045510e                           	{ l32i	a5, a1, 16; l32i	a4, a1, 12 }
80004016:	7002c044318e                           	{ l32i	a3, a1, 8; l32i	a2, a1, 4 }
8000401c:	f1d361                                    	l32r	a6, 80000768 (80007888 <_Mbstate>)
8000401f:	ffdf05                                    	call0	80003e10 <_Mbtowcx>
80004022:	0108                                    	l32i.n	a0, a1, 0
80004024:	54427044505e                           	{ ret; addi	a1, a1, 32 }

8000402a <_Mbtowc+0x32>:
8000402a:	00000000 d9210000                                ......

80004030 <_Getpwcstate>:
80004030:	f1d921                                    	l32r	a2, 80000794 (80007ae0 <_Tls_setup__Wcstate>)
80004033:	0228                                    	l32i.n	a2, a2, 0
80004035:	f0c112                                    	addi	a1, a1, -16
80004038:	0109                                    	s32i.n	a0, a1, 0
8000403a:	002216                                    	beqz	a2, 80004040 <_Getpwcstate+0x10>
8000403d:	0002c0                                    	callx0	a2
80004040:	0108                                    	l32i.n	a0, a1, 0
80004042:	f1d521                                    	l32r	a2, 80000798 (80007ae4 <_Wcstate>)
80004045:	56027044505e                           	{ ret; addi	a1, a1, 16 }

8000404b <_Getpwcstate+0x1b>:
8000404b:	00000000 d02ebe00                                .....

80004050 <sbrk>:
80004050:	be0189d02ebe                           	{ l32r	a2, 80000788 (800074b4 <_reent_ptr>); or	a3, a2, a2 }
80004056:	f0c112                                    	addi	a1, a1, -16
80004059:	0109                                    	s32i.n	a0, a1, 0
8000405b:	70001148cdae                           	{ call0	80005790 <_sbrk_r>; l32i	a2, a2, 0 }
80004061:	0108                                    	l32i.n	a0, a1, 0
80004063:	56027044505e                           	{ ret; addi	a1, a1, 16 }

80004069 <sbrk+0x19>:
80004069:	00000000 12000000                                .......

80004070 <closeall>:
80004070:	f0c112                                    	addi	a1, a1, -16
80004073:	11c9                                    	s32i.n	a12, a1, 4
80004075:	f1efc1                                    	l32r	a12, 80000834 (80007460 <_Files>)
80004078:	31e9                                    	s32i.n	a14, a1, 12
8000407a:	9000416f018e                           	{ s32i	a0, a1, 0; movi	a14, 3 }
80004080:	5282466bd14e                           	{ s32i	a13, a1, 8; addi	a13, a12, 80 }

80004086 <closeall+0x16>:
80004086:	0c28                                    	l32i.n	a2, a12, 0
80004088:	d28c                                    	beqz.n	a2, 80004099 <closeall+0x29>
8000408a:	001202                                    	l16ui	a0, a2, 0
8000408d:	7809c1080ece                           	{ bnone	a14, a0, 80004099 <closeall+0x29>; l8ui	a3, a2, 3 }
80004093:	02e377                                    	bbsi	a3, 7, 80004099 <closeall+0x29>
80004096:	000405                                    	call0	800040d8 <fclose>
80004099:	cc4b                                    	addi.n	a12, a12, 4
8000409b:	e79cd7                                    	bne	a12, a13, 80004086 <closeall+0x16>
8000409e:	0108                                    	l32i.n	a0, a1, 0
800040a0:	11c8                                    	l32i.n	a12, a1, 4
800040a2:	7003c047d18e                           	{ l32i	a13, a1, 8; l32i	a14, a1, 12 }
800040a8:	56027044505e                           	{ ret; addi	a1, a1, 16 }

800040ae <closeall+0x3e>:
	...

800040b0 <_closeallreg>:
800040b0:	f0c112                                    	addi	a1, a1, -16
800040b3:	0109                                    	s32i.n	a0, a1, 0
800040b5:	940e119060be                           	{ call0	80002238 <_Locksyslock>; movi	a2, 2 }
800040bb:	f1df21                                    	l32r	a2, 80000838 (80004070 <closeall>)
800040be:	fe4a05                                    	call0	80002560 <_Atexit>
800040c1:	940e11906fbe                           	{ call0	80002280 <_Unlocksyslock>; movi	a2, 2 }
800040c7:	0108                                    	l32i.n	a0, a1, 0
800040c9:	56027044505e                           	{ ret; addi	a1, a1, 16 }

800040cf <_closeallreg+0x1f>:
	...

800040d8 <fclose>:
800040d8:	f0c112                                    	addi	a1, a1, -16
800040db:	026102                                    	s32i	a0, a1, 8
800040de:	0361c2                                    	s32i	a12, a1, 12
800040e1:	be3051c0b28e                           	{ beqz	a2, 800041b0 <fclose+0xd8>; or	a12, a2, a2 }
800040e7:	001202                                    	l16ui	a0, a2, 0
800040ea:	0020f0                                    	nop
800040ed:	140000                                    	extui	a0, a0, 0, 2
800040f0:	7c01d100508e                           	{ beqz	a0, 800040f9 <fclose+0x21>; l8ui	a2, a2, 3 }
800040f6:	376277                                    	bbci	a2, 7, 80004131 <fclose+0x59>

800040f9 <fclose+0x21>:
800040f9:	940e11904fbe                           	{ call0	80002238 <_Locksyslock>; movi	a2, 2 }
800040ff:	ba01160b112e                           	{ call0	80004544 <_Fofree>; or	a2, a12, a12 }
80004105:	940e11905ebe                           	{ call0	80002280 <_Unlocksyslock>; movi	a2, 2 }
8000410b:	f19f41                                    	l32r	a4, 80000788 (800074b4 <_reent_ptr>)
8000410e:	002442                                    	l32i	a4, a4, 0
80004111:	2108                                    	l32i.n	a0, a1, 8
80004113:	940e54fc2fee                           	{ movi	a2, -1; movi	a3, 9 }
80004119:	7001c06f340e                           	{ s32i	a3, a4, 0; l32i	a12, a1, 12 }
8000411f:	56027044505e                           	{ ret; addi	a1, a1, 16 }

80004125 <fclose+0x4d>:
80004125:	00000000 00000000                                ......

8000412b <fclose+0x53>:
8000412b:	00000000 272e0000                                ......

80004131 <fclose+0x59>:
80004131:	ba011603272e                           	{ call0	800041d0 <fflush>; or	a2, a12, a12 }
80004137:	006122                                    	s32i	a2, a1, 0
8000413a:	940e11903fbe                           	{ call0	80002238 <_Locksyslock>; movi	a2, 2 }
80004140:	001c52                                    	l16ui	a5, a12, 0
80004143:	79e567                                    	bbsi	a5, 6, 800041c0 <fclose+0xe8>

80004146 <fclose+0x6e>:
80004146:	030c22                                    	l8ui	a2, a12, 3
80004149:	00a032                                    	movi	a3, 0
8000414c:	016c32                                    	s32i	a3, a12, 4
8000414f:	0020f0                                    	nop
80004152:	bb411128972e                           	{ call0	80004fb0 <close>; sext	a2, a2, 7 }
80004158:	002142                                    	l32i	a4, a1, 0
8000415b:	93ffc7450c4e                           	{ l32i	a0, a12, 56; movi	a5, -1 }
80004161:	934520                                    	movnez	a4, a5, a2
80004164:	016142                                    	s32i	a4, a1, 4
80004167:	025016                                    	beqz	a0, 80004190 <fclose+0xb8>
8000416a:	be054098300e                           	{ nop; or	a2, a0, a0 }
80004170:	0020f0                                    	nop
80004173:	0016c5                                    	call0	800042e0 <remove>
80004176:	012162                                    	l32i	a6, a1, 4
80004179:	97fbdf8522fe                           	{ or	a8, a2, a2; movi	a7, -1 }
8000417f:	936780                                    	movnez	a6, a7, a8
80004182:	016162                                    	s32i	a6, a1, 4
80004185:	743f1698dabe                           	{ call0	800028f0 <free>; l32i	a2, a12, 56 }
8000418b:	00a092                                    	movi	a9, 0
8000418e:	ec99                                    	s32i.n	a9, a12, 56

80004190 <fclose+0xb8>:
80004190:	ba011603ec2e                           	{ call0	80004544 <_Fofree>; or	a2, a12, a12 }
80004196:	940e11903abe                           	{ call0	80002280 <_Unlocksyslock>; movi	a2, 2 }
8000419c:	2108                                    	l32i.n	a0, a1, 8
8000419e:	7002c054c18e                           	{ l32i	a12, a1, 12; l32i	a2, a1, 4 }
800041a4:	56027044505e                           	{ ret; addi	a1, a1, 16 }

800041aa <fclose+0xd2>:
800041aa:	00000000 c18e0000                                ......

800041b0 <fclose+0xd8>:
800041b0:	93f3c754c18e                           	{ l32i	a12, a1, 12; movi	a2, -1 }
800041b6:	56027044505e                           	{ ret; addi	a1, a1, 16 }

800041bc <fclose+0xe4>:
800041bc:	00000000                                ....

800041c0 <fclose+0xe8>:
800041c0:	740e9698cbbe                           	{ call0	800028f0 <free>; l32i	a2, a12, 4 }
800041c6:	ffdf06                                    	j	80004146 <fclose+0x6e>

800041c9 <fclose+0xf1>:
800041c9:	00000000 12000000                                .......

800041d0 <fflush>:
800041d0:	f0c112                                    	addi	a1, a1, -16
800041d3:	21d9                                    	s32i.n	a13, a1, 8
800041d5:	31e9                                    	s32i.n	a14, a1, 12
800041d7:	0109                                    	s32i.n	a0, a1, 0
800041d9:	11c9                                    	s32i.n	a12, a1, 4
800041db:	be305188128e                           	{ beqz	a2, 80004270 <fflush+0xa0>; or	a12, a2, a2 }
800041e1:	001222                                    	l16ui	a2, a2, 0
800041e4:	7862d7                                    	bbci	a2, 13, 80004260 <fflush+0x90>
800041e7:	7002c6530c4e                           	{ l32i	a0, a12, 12; l32i	a13, a12, 4 }
800041ed:	4abd07                                    	bgeu	a13, a0, 8000423b <fflush+0x6b>

800041f0 <fflush+0x20>:
800041f0:	030c22                                    	l8ui	a2, a12, 3
800041f3:	be0fde57d07e                           	{ sub	a4, a0, a13; or	a3, a13, a13 }
800041f9:	0020f0                                    	nop
800041fc:	bb411128802e                           	{ call0	80005000 <write>; sext	a2, a2, 7 }
80004202:	488372ae0c328f                               	{ blti.w15	a2, 1, 800042b0 <fflush+0xe0>; add	a13, a13, a2 }
80004209:	3c08                                    	l32i.n	a0, a12, 12
8000420b:	e13d07                                    	bltu	a13, a0, 800041f0 <fflush+0x20>
8000420e:	f18b31                                    	l32r	a3, 8000083c (dfff <xthals_release_major+0xb11f>)
80004211:	68004650dc8e                           	{ l32i	a13, a12, 4; l16ui	a2, a12, 0 }
80004217:	7002407cdc0e                           	{ s32i	a13, a12, 12; l32i	a0, a1, 0 }
8000421d:	7005c07fdc8e                           	{ s32i	a13, a12, 20; l32i	a14, a1, 12 }
80004223:	b10bc178dcce                           	{ s32i	a13, a12, 44; and	a3, a2, a3 }
80004229:	90024040d18e                           	{ l32i	a13, a1, 8; movi	a2, 0 }
8000422f:	7000c0673c0e                           	{ s16i	a3, a12, 0; l32i	a12, a1, 4 }
80004235:	56027044505e                           	{ ret; addi	a1, a1, 16 }

8000423b <fflush+0x6b>:
8000423b:	f18031                                    	l32r	a3, 8000083c (dfff <xthals_release_major+0xb11f>)
8000423e:	3cd9                                    	s32i.n	a13, a12, 12
80004240:	5cd9                                    	s32i.n	a13, a12, 20
80004242:	bcd9                                    	s32i.n	a13, a12, 44
80004244:	70014047014e                           	{ l32i	a0, a1, 0; l32i	a13, a1, 8 }
8000424a:	b501d10020ee                           	{ movi	a2, 0; and	a3, a2, a3 }
80004250:	7000c0673c0e                           	{ s16i	a3, a12, 0; l32i	a12, a1, 4 }
80004256:	56027044505e                           	{ ret; addi	a1, a1, 16 }

8000425c <fflush+0x8c>:
8000425c:	00000000                                ....

80004260 <fflush+0x90>:
80004260:	90004050c18e                           	{ l32i	a12, a1, 4; movi	a2, 0 }
80004266:	56027044505e                           	{ ret; addi	a1, a1, 16 }

8000426c <fflush+0x9c>:
8000426c:	00000000                                ....

80004270 <fflush+0xa0>:
80004270:	0020f0                                    	nop
80004273:	940e1178f1be                           	{ call0	80002238 <_Locksyslock>; movi	a2, 2 }
80004279:	f16ec1                                    	l32r	a12, 80000834 (80007460 <_Files>)
8000427c:	94003043ec6e                           	{ addi	a14, a12, 80; movi	a13, 0 }

80004282 <fflush+0xb2>:
80004282:	002c22                                    	l32i	a2, a12, 0
80004285:	008216                                    	beqz	a2, 80004291 <fflush+0xc1>
80004288:	fff445                                    	call0	800041d0 <fflush>
8000428b:	ffaf42                                    	movi	a4, -1
8000428e:	a3d420                                    	movltz	a13, a4, a2
80004291:	cc4b                                    	addi.n	a12, a12, 4
80004293:	eb9ce7                                    	bne	a12, a14, 80004282 <fflush+0xb2>
80004296:	940e1178fabe                           	{ call0	80002280 <_Unlocksyslock>; movi	a2, 2 }
8000429c:	0108                                    	l32i.n	a0, a1, 0
8000429e:	740bd827ddbe                           	{ or	a2, a13, a13; l32i	a14, a1, 12 }
800042a4:	70014057c14e                           	{ l32i	a12, a1, 4; l32i	a13, a1, 8 }
800042aa:	56027044505e                           	{ ret; addi	a1, a1, 16 }

800042b0 <fflush+0xe0>:
800042b0:	f27c                                    	movi.n	a2, -1
800042b2:	70014047014e                           	{ l32i	a0, a1, 0; l32i	a13, a1, 8 }
800042b8:	680046517c4e                           	{ l32i	a7, a12, 4; l16ui	a5, a12, 0 }
800042be:	7003c07f7c8e                           	{ s32i	a7, a12, 12; l32i	a14, a1, 12 }
800042c4:	904440797c8e                           	{ s32i	a7, a12, 20; movi	a6, 0x200 }
800042ca:	ba1ac27d7c8e                           	{ s32i	a7, a12, 44; or	a5, a5, a6 }
800042d0:	7000c0675c0e                           	{ s16i	a5, a12, 0; l32i	a12, a1, 4 }
800042d6:	56027044505e                           	{ ret; addi	a1, a1, 16 }

800042dc <fflush+0x10c>:
800042dc:	00000000                                ....

800042e0 <remove>:
800042e0:	f0c112                                    	addi	a1, a1, -16
800042e3:	006102                                    	s32i	a0, a1, 0
800042e6:	0161c2                                    	s32i	a12, a1, 4
800042e9:	ba30112839ae                           	{ call0	80004fd0 <rmdir>; or	a12, a2, a2 }
800042ef:	7400500c720e                           	{ beqz	a2, 8000430a <remove+0x2a>; l32i	a0, a1, 0 }
800042f5:	ba01162b3a2e                           	{ call0	80004fe0 <unlink>; or	a2, a12, a12 }
800042fb:	002102                                    	l32i	a0, a1, 0
800042fe:	0121c2                                    	l32i	a12, a1, 4
80004301:	56027044505e                           	{ ret; addi	a1, a1, 16 }

80004307 <remove+0x27>:
80004307:	000000                                        ...

8000430a <remove+0x2a>:
8000430a:	90004050c18e                           	{ l32i	a12, a1, 4; movi	a2, 0 }
80004310:	56027044505e                           	{ ret; addi	a1, a1, 16 }

80004316 <remove+0x36>:
	...

80004320 <_Dtest>:
80004320:	f14831                                    	l32r	a3, 80000840 (7ff0 <xthals_release_major+0x5110>)
80004323:	031252                                    	l16ui	a5, a2, 6
80004326:	f14771                                    	l32r	a7, 80000844 (ffff7fff <_memmap_cacheattr_unused_mask+0xe80ff>)
80004329:	021282                                    	l16ui	a8, a2, 4
8000432c:	b51132ec35ce                           	{ bnall	a5, a3, 80004340 <_Dtest+0x20>; and	a6, a5, a3 }
80004332:	344050                                    	extui	a4, a5, 0, 4
80004335:	24ac                                    	beqz.n	a4, 8000435b <_Dtest+0x3b>

80004337 <_Dtest+0x17>:
80004337:	94027140509e                           	{ ret; movi	a2, 2 }

8000433d <_Dtest+0x1d>:
8000433d:	000000                                        ...

80004340 <_Dtest+0x20>:
80004340:	93ffb77a75ce                           	{ bany	a5, a7, 80004353 <_Dtest+0x33>; movi	a11, -2 }
80004346:	98cc                                    	bnez.n	a8, 80004353 <_Dtest+0x33>
80004348:	011292                                    	l16ui	a9, a2, 2
8000434b:	6800510249ae                           	{ bnez	a9, 80004353 <_Dtest+0x33>; l16ui	a10, a2, 0 }
80004351:	ea9c                                    	beqz.n	a10, 80004373 <_Dtest+0x53>
80004353:	f27c                                    	movi.n	a2, -1
80004355:	b7837545509e                           	{ ret; moveqz	a2, a11, a6 }

8000435b <_Dtest+0x3b>:
8000435b:	021232                                    	l16ui	a3, a2, 4
8000435e:	fd5356                                    	bnez	a3, 80004337 <_Dtest+0x17>
80004361:	011242                                    	l16ui	a4, a2, 2
80004364:	fcf456                                    	bnez	a4, 80004337 <_Dtest+0x17>
80004367:	001252                                    	l16ui	a5, a2, 0
8000436a:	fc9556                                    	bnez	a5, 80004337 <_Dtest+0x17>
8000436d:	94027044509e                           	{ ret; movi	a2, 1 }

80004373 <_Dtest+0x53>:
80004373:	94027040509e                           	{ ret; movi	a2, 0 }

80004379 <_Dtest+0x59>:
80004379:	000000                                        ...

8000437c <_Plsw>:
8000437c:	f00d                                    	ret.n

8000437e <_Plsw+0x2>:
	...

80004380 <_Pmsw>:
80004380:	54137140509e                           	{ ret; addi	a2, a2, 6 }

80004386 <_Pmsw+0x6>:
	...

80004390 <_Dunscale>:
80004390:	f0c112                                    	addi	a1, a1, -16
80004393:	11c9                                    	s32i.n	a12, a1, 4
80004395:	ba32413c33ce                           	{ l16ui	a3, a3, 6; or	a12, a3, a3 }
8000439b:	96fbdf65223e                           	{ or	a6, a2, a2; movi	a4, 0x7ff }
800043a1:	4881426801ce                           	{ s32i	a0, a1, 0; extui	a2, a3, 4, 11 }
800043a7:	900c30a0421e                           	{ beq	a2, a4, 800043d7 <_Dunscale+0x47>; movi	a0, 0 }
800043ad:	7004600c322e                           	{ blti	a2, 1, 800043f5 <_Dunscale+0x65>; l32i	a0, a1, 0 }
800043b3:	f12571                                    	l32r	a7, 80000848 (ffff800f <_memmap_cacheattr_unused_mask+0xe810f>)
800043b6:	f12581                                    	l32r	a8, 8000084c (3fe0 <xthals_release_major+0x1100>)
800043b9:	b51dd10552ee                           	{ movi	a5, 0xfffffc02; and	a7, a3, a7 }
800043bf:	b49ad969877e                           	{ or	a7, a7, a8; add	a5, a2, a5 }
800043c5:	93f3c7747c8e                           	{ s16i	a7, a12, 6; movi	a2, -1 }
800043cb:	7000c067560e                           	{ s16i	a5, a6, 0; l32i	a12, a1, 4 }
800043d1:	56027044505e                           	{ ret; addi	a1, a1, 16 }

800043d7 <_Dunscale+0x47>:
800043d7:	005602                                    	s16i	a0, a6, 0
800043da:	031c82                                    	l16ui	a8, a12, 6
800043dd:	9006298080ae                           	{ extui	a8, a8, 0, 4; movi	a2, 2 }
800043e3:	6c01564ac88e                           	{ beqz	a8, 80004443 <_Dunscale+0xb3>; l16ui	a10, a12, 4 }

800043e9 <_Dunscale+0x59>:
800043e9:	0108                                    	l32i.n	a0, a1, 0
800043eb:	11c8                                    	l32i.n	a12, a1, 4
800043ed:	56027044505e                           	{ ret; addi	a1, a1, 16 }

800043f3 <_Dunscale+0x63>:
	...

800043f5 <_Dunscale+0x65>:
800043f5:	2169                                    	s32i.n	a6, a1, 8
800043f7:	ba01162bb62e                           	{ call0	800052d0 <_Dnorm>; or	a2, a12, a12 }
800043fd:	7409601d328e                           	{ blti	a2, 1, 8000441a <_Dunscale+0x8a>; l32i	a6, a1, 8 }
80004403:	0108                                    	l32i.n	a0, a1, 0
80004405:	94005002206e                           	{ movi	a2, 0; movi	a9, 0 }
8000440b:	7000c067960e                           	{ s16i	a9, a6, 0; l32i	a12, a1, 4 }
80004411:	56027044505e                           	{ ret; addi	a1, a1, 16 }

80004417 <_Dunscale+0x87>:
80004417:	000000                                        ...

8000441a <_Dunscale+0x8a>:
8000441a:	f10b71                                    	l32r	a7, 80000848 (ffff800f <_memmap_cacheattr_unused_mask+0xe810f>)
8000441d:	031c32                                    	l16ui	a3, a12, 6
80004420:	f10b81                                    	l32r	a8, 8000084c (3fe0 <xthals_release_major+0x1100>)
80004423:	0108                                    	l32i.n	a0, a1, 0
80004425:	b51dd10552ee                           	{ movi	a5, 0xfffffc02; and	a7, a3, a7 }
8000442b:	b49ad969877e                           	{ or	a7, a7, a8; add	a5, a2, a5 }
80004431:	93f3c7747c8e                           	{ s16i	a7, a12, 6; movi	a2, -1 }
80004437:	7000c067560e                           	{ s16i	a5, a6, 0; l32i	a12, a1, 4 }
8000443d:	56027044505e                           	{ ret; addi	a1, a1, 16 }

80004443 <_Dunscale+0xb3>:
80004443:	fa2a56                                    	bnez	a10, 800043e9 <_Dunscale+0x59>
80004446:	011cb2                                    	l16ui	a11, a12, 2
80004449:	f9cb56                                    	bnez	a11, 800043e9 <_Dunscale+0x59>
8000444c:	001c02                                    	l16ui	a0, a12, 0
8000444f:	f96056                                    	bnez	a0, 800043e9 <_Dunscale+0x59>
80004452:	0108                                    	l32i.n	a0, a1, 0
80004454:	90004054c18e                           	{ l32i	a12, a1, 4; movi	a2, 1 }
8000445a:	56027044505e                           	{ ret; addi	a1, a1, 16 }

80004460 <_Feraise>:
80004460:	f0c112                                    	addi	a1, a1, -16
80004463:	0109                                    	s32i.n	a0, a1, 0
80004465:	9000407cc10e                           	{ s32i	a12, a1, 4; movi	a0, 1 }
8000446b:	940a5bc022be                           	{ or	a12, a2, a2; movi	a2, 6 }
80004471:	ba0c5e202c3e                           	{ and	a2, a12, a2; or	a0, a12, a0 }
80004477:	93c020                                    	movnez	a12, a0, a2
8000447a:	ba01162b082e                           	{ call0	8000509c <feraiseexcept>; or	a2, a12, a12 }
80004480:	f0c221                                    	l32r	a2, 80000788 (800074b4 <_reent_ptr>)
80004483:	900437304cde                           	{ bbsi	a12, 4, 800044ac <_Feraise+0x4c>; movi	a3, 14 }
80004489:	700c307cc30e                           	{ bany	a3, a12, 8000449a <_Feraise+0x3a>; l32i	a0, a1, 0 }
8000448f:	11c8                                    	l32i.n	a12, a1, 4
80004491:	56027044505e                           	{ ret; addi	a1, a1, 16 }

80004497 <_Feraise+0x37>:
80004497:	000000                                        ...

8000449a <_Feraise+0x3a>:
8000449a:	0258                                    	l32i.n	a5, a2, 0
8000449c:	0108                                    	l32i.n	a0, a1, 0
8000449e:	242c                                    	movi.n	a4, 34
800044a0:	7000c06f450e                           	{ s32i	a4, a5, 0; l32i	a12, a1, 4 }
800044a6:	56027044505e                           	{ ret; addi	a1, a1, 16 }

800044ac <_Feraise+0x4c>:
800044ac:	0278                                    	l32i.n	a7, a2, 0
800044ae:	0108                                    	l32i.n	a0, a1, 0
800044b0:	162c                                    	movi.n	a6, 33
800044b2:	7000c06f670e                           	{ s32i	a6, a7, 0; l32i	a12, a1, 4 }
800044b8:	56027044505e                           	{ ret; addi	a1, a1, 16 }

800044be <_Feraise+0x5e>:
	...

800044c0 <_Fofind>:
800044c0:	f0c112                                    	addi	a1, a1, -16
800044c3:	21d9                                    	s32i.n	a13, a1, 8
800044c5:	0161c2                                    	s32i	a12, a1, 4
800044c8:	f0dbc1                                    	l32r	a12, 80000834 (80007460 <_Files>)
800044cb:	9000c268010e                           	{ s32i	a0, a1, 0; movi	a0, 20 }
800044d1:	9400409b104e                           	{ loopgtz	a0, 800044e6 <_Fofind+0x26>; movi	a13, 0 }
800044d7:	0c28                                    	l32i.n	a2, a12, 0
800044d9:	929c                                    	beqz.n	a2, 800044f6 <_Fofind+0x36>
800044db:	001232                                    	l16ui	a3, a2, 0
800044de:	dd1b                                    	addi.n	a13, a13, 1
800044e0:	5410562bc30e                           	{ beqz	a3, 80004520 <_Fofind+0x60>; addi	a12, a12, 4 }

800044e6 <_Fofind+0x26>:
800044e6:	0108                                    	l32i.n	a0, a1, 0
800044e8:	020c                                    	movi.n	a2, 0
800044ea:	70014057c14e                           	{ l32i	a12, a1, 4; l32i	a13, a1, 8 }
800044f0:	56027044505e                           	{ ret; addi	a1, a1, 16 }

800044f6 <_Fofind+0x36>:
800044f6:	824c                                    	movi.n	a2, 72
800044f8:	90001024cdee                           	{ call0	80005030 <calloc>; movi	a3, 1 }
800044fe:	94205029320e                           	{ beqz	a2, 80004535 <_Fofind+0x75>; movi	a4, 128 }
80004504:	7000406c2c0e                           	{ s32i	a2, a12, 0; l32i	a0, a1, 0 }
8000450a:	7002c087d20e                           	{ s8i	a13, a2, 2; l32i	a12, a1, 4 }
80004510:	70014067424e                           	{ s16i	a4, a2, 0; l32i	a13, a1, 8 }
80004516:	56027044505e                           	{ ret; addi	a1, a1, 16 }

8000451c <_Fofind+0x5c>:
8000451c:	000000                                        ...

8000451f <_Fofind+0x5f>:
	...

80004520 <_Fofind+0x60>:
80004520:	70004054c10e                           	{ l32i	a12, a1, 4; l32i	a0, a1, 0 }
80004526:	f0ca51                                    	l32r	a5, 80000850 (ff7f <xthals_release_major+0xd09f>)
80004529:	70014067524e                           	{ s16i	a5, a2, 0; l32i	a13, a1, 8 }
8000452f:	56027044505e                           	{ ret; addi	a1, a1, 16 }

80004535 <_Fofind+0x75>:
80004535:	0108                                    	l32i.n	a0, a1, 0
80004537:	70014057c14e                           	{ l32i	a12, a1, 4; l32i	a13, a1, 8 }
8000453d:	56027044505e                           	{ ret; addi	a1, a1, 16 }

80004543 <_Fofind+0x83>:
	...

80004544 <_Fofree>:
80004544:	f0c112                                    	addi	a1, a1, -16
80004547:	68004168010e                           	{ s32i	a0, a1, 0; l16ui	a0, a2, 0 }
8000454d:	00a052                                    	movi	a5, 0
80004550:	9002b20070de                           	{ bbci	a0, 7, 80004576 <_Fofree+0x32>; movi	a3, 20 }
80004556:	f0b701                                    	l32r	a0, 80000834 (80007460 <_Files>)
80004559:	06a376                                    	loopgtz	a3, 80004563 <_Fofree+0x1f>
8000455c:	0048                                    	l32i.n	a4, a0, 0
8000455e:	0f1427                                    	beq	a4, a2, 80004571 <_Fofree+0x2d>
80004561:	004b                                    	addi.n	a0, a0, 4

80004563 <_Fofree+0x1f>:
80004563:	fe38c5                                    	call0	800028f0 <free>
80004566:	0108                                    	l32i.n	a0, a1, 0
80004568:	56027044505e                           	{ ret; addi	a1, a1, 16 }

8000456e <_Fofree+0x2a>:
8000456e:	000000                                        ...

80004571 <_Fofree+0x2d>:
80004571:	0059                                    	s32i.n	a5, a0, 0
80004573:	fffb06                                    	j	80004563 <_Fofree+0x1f>

80004576 <_Fofree+0x32>:
80004576:	50904162520e                           	{ s16i	a5, a2, 0; addi	a8, a2, 68 }
8000457c:	1289                                    	s32i.n	a8, a2, 4
8000457e:	3289                                    	s32i.n	a8, a2, 12
80004580:	4289                                    	s32i.n	a8, a2, 16
80004582:	a289                                    	s32i.n	a8, a2, 40
80004584:	5289                                    	s32i.n	a8, a2, 20
80004586:	700a407c820e                           	{ s32i	a8, a2, 44; l32i	a0, a1, 0 }
8000458c:	5056416982ce                           	{ s32i	a8, a2, 24; addi	a7, a2, 36 }
80004592:	93f7c77d728e                           	{ s32i	a7, a2, 28; movi	a6, -1 }
80004598:	034262                                    	s8i	a6, a2, 3
8000459b:	56027044505e                           	{ ret; addi	a1, a1, 16 }

800045a1 <_Fofree+0x5d>:
	...

800045b0 <_Genld>:
800045b0:	d0c112                                    	addi	a1, a1, -48
800045b3:	0861e2                                    	s32i	a14, a1, 32
800045b6:	0a6122                                    	s32i	a2, a1, 40
800045b9:	0b6142                                    	s32i	a4, a1, 44
800045bc:	056102                                    	s32i	a0, a1, 20
800045bf:	0661c2                                    	s32i	a12, a1, 24
800045c2:	ba384379f18e                           	{ s32i	a15, a1, 36; or	a12, a6, a6 }
800045c8:	41f7c078d1ce                           	{ s32i	a13, a1, 28; extui	a15, a3, 0, 8 }
800045ce:	bb709226fc2e                           	{ call0	800051c0 <localeconv>; sext	a13, a5, 15 }
800045d4:	b2e8                                    	l32i.n	a14, a2, 44
800045d6:	66a022                                    	movi	a2, 102
800045d9:	8acc001f1b3d8f                               	{ blti.w15	a13, 1, 800048a4 <_Genld+0x2f4>; l8ui	a14, a14, 0 }

800045e0 <_Genld+0x30>:
800045e0:	a2001203822f4f                               	{ beq.w15	a15, a2, 80004804 <_Genld+0x254>; movi	a9, 70 }
800045e7:	a1c00230829fcf                               	{ beq.w15	a15, a9, 800047d7 <_Genld+0x227>; movi	a11, 0 }
800045ee:	94105365a76e                           	{ movi	a10, 103; movi	a5, 71 }
800045f4:	a1c0112894afcf                               	{ beq.w15	a15, a10, 800047c3 <_Genld+0x213>; movi	a3, 97 }
800045fb:	e1c40014805f8f                               	{ beq.w15	a15, a5, 800047c3 <_Genld+0x213>; nop }

80004602 <_Genld+0x52>:
80004602:	638b71af853f4f                               	{ beq.w15	a15, a3, 80004990 <_Genld+0x3e0>; addi	a5, a15, -65 }
80004609:	045c                                    	movi.n	a4, 80
8000460b:	83f450                                    	moveqz	a15, a4, a5

8000460e <_Genld+0x5e>:
8000460e:	a108                                    	l32i.n	a0, a1, 40
80004610:	701bc05021ce                           	{ l32i	a2, a1, 44; l32i	a3, a0, 28 }
80004616:	042052                                    	l32i	a5, a0, 16
80004619:	78003150438e                           	{ addi	a4, a3, 1; l8ui	a2, a2, 0 }
8000461f:	b087c17d404e                           	{ s32i	a4, a0, 28; add	a3, a3, a5 }
80004625:	004322                                    	s8i	a2, a3, 0
80004628:	0c2002                                    	l32i	a0, a0, 48
8000462b:	8b0821381d304f                               	{ blti.w15	a0, 1, 8000493e <_Genld+0x38e>; l32i	a5, a1, 40 }

80004632 <_Genld+0x82>:
80004632:	0a2102                                    	l32i	a0, a1, 40
80004635:	072022                                    	l32i	a2, a0, 28
80004638:	042032                                    	l32i	a3, a0, 16
8000463b:	421b                                    	addi.n	a4, a2, 1
8000463d:	b087417840ce                           	{ s32i	a4, a0, 28; add	a2, a2, a3 }
80004643:	0042e2                                    	s8i	a14, a2, 0
80004646:	c008                                    	l32i.n	a0, a0, 48

80004648 <_Genld+0x98>:
80004648:	7413e20d305e                           	{ blti	a0, 1, 8000467e <_Genld+0xce>; l32i	a5, a5, 28 }
8000464e:	a128                                    	l32i.n	a2, a1, 40
80004650:	dd0b                                    	addi.n	a13, a13, -1
80004652:	7025f0dc8dde                           	{ sext	a13, a13, 15; l32i	a3, a1, 44 }
80004658:	b374c043224e                           	{ l32i	a2, a2, 16; min	a13, a0, a13 }
8000465e:	23dd80                                    	sext	a13, a13, 15
80004661:	540ad944ddfe                           	{ or	a4, a13, a13; addi	a3, a3, 1 }
80004667:	b0811189166e                           	{ call0	80006ac0 <memcpy>; add	a2, a2, a5 }
8000466d:	a138                                    	l32i.n	a3, a1, 40
8000466f:	c368                                    	l32i.n	a6, a3, 48
80004671:	7358                                    	l32i.n	a5, a3, 28
80004673:	c066d0                                    	sub	a6, a6, a13
80004676:	b098c26f634e                           	{ s32i	a6, a3, 32; add	a5, a5, a13 }
8000467c:	7359                                    	s32i.n	a5, a3, 28

8000467e <_Genld+0xce>:
8000467e:	0a2132                                    	l32i	a3, a1, 40
80004681:	042332                                    	l32i	a3, a3, 16
80004684:	9008582b53be                           	{ add	a3, a3, a5; movi	a14, 0 }
8000468a:	90014585f34e                           	{ s8i	a15, a3, 0; movi	a5, 43 }
80004690:	540151d4cc1e                           	{ bltz	a12, 80004860 <_Genld+0x2b0>; addi	a0, a3, 2 }
80004696:	014352                                    	s8i	a5, a3, 1
80004699:	0b6102                                    	s32i	a0, a1, 44
8000469c:	e9c40064183c8f                               	{ blti.w15	a12, 1, 80004879 <_Genld+0x2c9>; nop }

800046a3 <_Genld+0xf3>:
800046a3:	ba34c06c014e                           	{ s32i	a0, a1, 16; or	a13, a1, a1 }

800046a9 <_Genld+0xf9>:
800046a9:	202cc0                                    	or	a2, a12, a12
800046ac:	90001588a4ee                           	{ call0	80006d40 <div>; movi	a3, 10 }
800046b2:	ee1b                                    	addi.n	a14, a14, 1
800046b4:	bb7041823d0e                           	{ s8i	a3, a13, 0; sext	a12, a2, 15 }
800046ba:	500aee1f1c7e                           	{ bgei	a12, 1, 800046a9 <_Genld+0xf9>; addi	a13, a13, 1 }
800046c0:	122ee6                                    	bgei	a14, 2, 800046d6 <_Genld+0x126>
800046c3:	65a062                                    	movi	a6, 101
800046c6:	e2c40034806f8f                               	{ beq.w15	a15, a6, 80004996 <_Genld+0x3e6>; nop }
800046cd:	574c                                    	movi.n	a7, 69
800046cf:	e2c4000c907f8f                               	{ beq.w15	a15, a7, 80004996 <_Genld+0x3e6>; nop }

800046d6 <_Genld+0x126>:
800046d6:	1b4e16                                    	beqz	a14, 8000488e <_Genld+0x2de>
800046d9:	e8840034083e8f                               	{ blti.w15	a14, 1, 80004769 <_Genld+0x1b9>; nop }

800046e0 <_Genld+0x130>:
800046e0:	b0b4af80e06e                           	{ extui	a8, a14, 0, 3; add	a13, a14, a1 }
800046e6:	b445418f188e                           	{ loopgtz	a8, 800046fe <_Genld+0x14e>; srai	a2, a14, 3 }
800046ec:	dd0b                                    	addi.n	a13, a13, -1
800046ee:	000da2                                    	l8ui	a10, a13, 0
800046f1:	b198                                    	l32i.n	a9, a1, 44
800046f3:	30caa2                                    	addi	a10, a10, 48
800046f6:	5000c486a94e                           	{ s8i	a10, a9, 0; addi	a9, a9, 1 }
800046fc:	b199                                    	s32i.n	a9, a1, 44
800046fe:	7025c09c12fe                           	{ loopgtz	a2, 80004767 <_Genld+0x1b7>; l32i	a3, a1, 44 }
80004704:	57ff3e552d3e                           	{ addi	a2, a13, -1; addi	a4, a13, -2 }
8000470a:	57fc3e555dbe                           	{ addi	a5, a13, -3; addi	a6, a13, -4 }
80004710:	57eb3e567d3e                           	{ addi	a7, a13, -5; addi	a8, a13, -6 }
80004716:	53e0c64e224e                           	{ l8ui	a2, a2, 0; addi	a9, a13, -7 }
8000471c:	53e0464f444e                           	{ l8ui	a4, a4, 0; addi	a13, a13, -8 }
80004722:	000552                                    	l8ui	a5, a5, 0
80004725:	7c003341229e                           	{ addi	a2, a2, 48; l8ui	a6, a6, 0 }
8000472b:	7c00334544de                           	{ addi	a4, a4, 48; l8ui	a7, a7, 0 }
80004731:	7c003442551e                           	{ addi	a5, a5, 48; l8ui	a8, a8, 0 }
80004737:	78004484238e                           	{ s8i	a2, a3, 0; l8ui	a2, a9, 0 }
8000473d:	52404391430e                           	{ s8i	a4, a3, 1; addi	a4, a6, 48 }
80004743:	52424385534e                           	{ s8i	a5, a3, 2; addi	a5, a7, 48 }
80004749:	78024695430e                           	{ s8i	a4, a3, 3; l8ui	a4, a13, 0 }
8000474f:	52444481534e                           	{ s8i	a5, a3, 4; addi	a5, a8, 48 }
80004755:	52444190538e                           	{ s8i	a5, a3, 5; addi	a2, a2, 48 }
8000475b:	52464280238e                           	{ s8i	a2, a3, 6; addi	a2, a4, 48 }
80004761:	5026419423ce                           	{ s8i	a2, a3, 7; addi	a3, a3, 8 }

80004767 <_Genld+0x1b7>:
80004767:	b139                                    	s32i.n	a3, a1, 44

80004769 <_Genld+0x1b9>:
80004769:	a138                                    	l32i.n	a3, a1, 40
8000476b:	70164155634e                           	{ l32i	a6, a3, 28; l32i	a5, a3, 16 }
80004771:	0b2142                                    	l32i	a4, a1, 44
80004774:	805560                                    	add	a5, a5, a6
80004777:	c04450                                    	sub	a4, a4, a5
8000477a:	6a39417c43ce                           	{ s32i	a4, a3, 36; l16ui	a3, a3, 60 }

80004780 <_Genld+0x1d0>:
80004780:	7410d00c742e                           	{ movi	a7, 20; l32i	a0, a1, 20 }
80004786:	701d586f733e                           	{ and	a7, a3, a7; l32i	a12, a1, 24 }
8000478c:	7017e0bf575e                           	{ bnei	a7, 16, 800047b7 <_Genld+0x207>; l32i	a13, a1, 28 }
80004792:	a138                                    	l32i.n	a3, a1, 40
80004794:	8348                                    	l32i.n	a4, a3, 32
80004796:	7016c155838e                           	{ l32i	a8, a3, 28; l32i	a6, a3, 20 }
8000479c:	702ac145734e                           	{ l32i	a7, a3, 40; l32i	a5, a3, 36 }
800047a2:	7039596486fe                           	{ add	a6, a6, a8; l32i	a3, a3, 56 }
800047a8:	b0985a4975be                           	{ add	a5, a5, a7; add	a4, a4, a6 }
800047ae:	445a                                    	add.n	a4, a4, a5
800047b0:	e1440234c0348f                               	{ blt.w15	a4, a3, 80004920 <_Genld+0x370>; nop }
800047b7:	70284057f18e                           	{ l32i	a15, a1, 36; l32i	a14, a1, 32 }
800047bd:	56427044505e                           	{ ret; addi	a1, a1, 48 }

800047c3 <_Genld+0x213>:
800047c3:	c07c                                    	movi.n	a0, -4
800047c5:	e1840014c00c8f                               	{ blt.w15	a12, a0, 8000494d <_Genld+0x39d>; nop }
800047cc:	a108                                    	l32i.n	a0, a1, 40
800047ce:	c008                                    	l32i.n	a0, a0, 48
800047d0:	e144027cb00c8f                               	{ bge.w15	a12, a0, 80004953 <_Genld+0x3a3>; nop }

800047d7 <_Genld+0x227>:
800047d7:	cc1b                                    	addi.n	a12, a12, 1
800047d9:	bb7c36b29f1e                           	{ beq	a15, a9, 8000480a <_Genld+0x25a>; sext	a12, a12, 15 }
800047df:	a108                                    	l32i.n	a0, a1, 40
800047e1:	1e10f2                                    	l16ui	a15, a0, 60
800047e4:	703c30303f0e                           	{ bbsi	a15, 3, 800047f5 <_Genld+0x245>; l32i	a0, a0, 48 }
800047ea:	07ad07                                    	bge	a13, a0, 800047f5 <_Genld+0x245>
800047ed:	a128                                    	l32i.n	a2, a1, 40
800047ef:	ba0c466fd24e                           	{ s32i	a13, a2, 48; or	a0, a13, a13 }
800047f5:	a148                                    	l32i.n	a4, a1, 40
800047f7:	c030c0                                    	sub	a3, a0, a12
800047fa:	c439                                    	s32i.n	a3, a4, 48
800047fc:	00a3d6                                    	bgez	a3, 8000480a <_Genld+0x25a>
800047ff:	c4b9                                    	s32i.n	a11, a4, 48
80004801:	000146                                    	j	8000480a <_Genld+0x25a>

80004804 <_Genld+0x254>:
80004804:	01ccc2                                    	addi	a12, a12, 1
80004807:	23cc80                                    	sext	a12, a12, 15
8000480a:	0a2102                                    	l32i	a0, a1, 40
8000480d:	042052                                    	l32i	a5, a0, 16
80004810:	898811c8083c0f                               	{ blti.w15	a12, 1, 800049a6 <_Genld+0x3f6>; l32i	a0, a0, 28 }
80004817:	0dfd                                    	mov.n	a15, a13
80004819:	4083414ab4cd0f                               	{ bge.w15	a13, a12, 800048b0 <_Genld+0x300>; add	a2, a5, a0 }
80004820:	0d4d                                    	mov.n	a4, a13
80004822:	70219084a7ee                           	{ call0	80006ac0 <memcpy>; l32i	a3, a1, 44 }
80004828:	a128                                    	l32i.n	a2, a1, 40
8000482a:	7258                                    	l32i.n	a5, a2, 28
8000482c:	ba9d464302ce                           	{ l32i	a0, a2, 48; sub	a6, a12, a15 }
80004832:	b098c26f62ce                           	{ s32i	a6, a2, 32; add	a5, a5, a15 }
80004838:	7259                                    	s32i.n	a5, a2, 28
8000483a:	e9c4021c18308f                               	{ blti.w15	a0, 1, 80004a25 <_Genld+0x475>; nop }

80004841 <_Genld+0x291>:
80004841:	a188                                    	l32i.n	a8, a1, 40
80004843:	4898                                    	l32i.n	a9, a8, 16
80004845:	995a                                    	add.n	a9, a9, a5
80004847:	0049e2                                    	s8i	a14, a9, 0
8000484a:	9878                                    	l32i.n	a7, a8, 36
8000484c:	70303450770e                           	{ addi	a7, a7, 1; l32i	a0, a8, 48 }
80004852:	6a39447878ce                           	{ s32i	a7, a8, 36; l16ui	a3, a8, 60 }

80004858 <_Genld+0x2a8>:
80004858:	a1a8                                    	l32i.n	a10, a1, 40
8000485a:	aa09                                    	s32i.n	a0, a10, 40
8000485c:	ffc806                                    	j	80004780 <_Genld+0x1d0>

8000485f <_Genld+0x2af>:
	...

80004860 <_Genld+0x2b0>:
80004860:	ce305027dd2e                           	{ movi	a13, 45; neg	a12, a12 }
80004866:	50014194d30e                           	{ s8i	a13, a3, 1; addi	a0, a3, 2 }
8000486c:	bb7a467a010e                           	{ s32i	a0, a1, 44; sext	a12, a12, 15 }
80004872:	ee340e34181c8f                               	{ bgei.w15	a12, 1, 800046a3 <_Genld+0xf3>; nop }

80004879 <_Genld+0x2c9>:
80004879:	65a0e2                                    	movi	a14, 101
8000487c:	e184006480ef8f                               	{ beq.w15	a15, a14, 80004a18 <_Genld+0x468>; nop }
80004883:	524c                                    	movi.n	a2, 69
80004885:	e184003c902f8f                               	{ beq.w15	a15, a2, 80004a18 <_Genld+0x468>; nop }

8000488c <_Genld+0x2dc>:
8000488c:	0e0c                                    	movi.n	a14, 0

8000488e <_Genld+0x2de>:
8000488e:	b138                                    	l32i.n	a3, a1, 44
80004890:	043c                                    	movi.n	a4, 48
80004892:	5000c18443ce                           	{ s8i	a4, a3, 0; addi	a3, a3, 1 }
80004898:	b139                                    	s32i.n	a3, a1, 44
8000489a:	ee740c0c081e8f                               	{ bgei.w15	a14, 1, 800046e0 <_Genld+0x130>; nop }
800048a1:	ffb106                                    	j	80004769 <_Genld+0x1b9>

800048a4 <_Genld+0x2f4>:
800048a4:	efec51                                    	l32r	a5, 80000854 (80000680 <_Zero+0xd0>)
800048a7:	b159                                    	s32i.n	a5, a1, 44
800048a9:	940e10df335e                           	{ j	800045e0 <_Genld+0x30>; movi	a13, 1 }

800048af <_Genld+0x2ff>:
	...

800048b0 <_Genld+0x300>:
800048b0:	0b2132                                    	l32i	a3, a1, 44
800048b3:	ba101683832e                           	{ call0	80006ac0 <memcpy>; or	a4, a12, a12 }
800048b9:	0a2172                                    	l32i	a7, a1, 40
800048bc:	072762                                    	l32i	a6, a7, 28
800048bf:	c708                                    	l32i.n	a0, a7, 48
800048c1:	bab8de676c3e                           	{ add	a6, a12, a6; sub	a13, a13, a12 }
800048c7:	bb76c67e670e                           	{ s32i	a6, a7, 28; sext	a13, a13, 15 }
800048cd:	a94f128319308f                               	{ blti.w15	a0, 1, 80004a32 <_Genld+0x482>; or	a5, a6, a6 }

800048d4 <_Genld+0x324>:
800048d4:	a108                                    	l32i.n	a0, a1, 40
800048d6:	4028                                    	l32i.n	a2, a0, 16
800048d8:	361b                                    	addi.n	a3, a6, 1
800048da:	b0874378308e                           	{ s32i	a3, a0, 28; add	a2, a6, a2 }
800048e0:	0042e2                                    	s8i	a14, a2, 0
800048e3:	70364050500e                           	{ l32i	a5, a0, 28; l32i	a0, a0, 48 }

800048e9 <_Genld+0x339>:
800048e9:	0a2122                                    	l32i	a2, a1, 40
800048ec:	0b2132                                    	l32i	a3, a1, 44
800048ef:	b374c043224e                           	{ l32i	a2, a2, 16; min	a13, a0, a13 }
800048f5:	23dd80                                    	sext	a13, a13, 15
800048f8:	b48bde40ddfe                           	{ or	a4, a13, a13; add	a3, a12, a3 }
800048fe:	b0811181706e                           	{ call0	80006ac0 <memcpy>; add	a2, a2, a5 }
80004904:	0a2132                                    	l32i	a3, a1, 40
80004907:	7358                                    	l32i.n	a5, a3, 28
80004909:	c348                                    	l32i.n	a4, a3, 48
8000490b:	55da                                    	add.n	a5, a5, a13
8000490d:	ba96427b534e                           	{ s32i	a5, a3, 28; sub	a4, a4, a13 }
80004913:	8349                                    	s32i.n	a4, a3, 32
80004915:	6e3f11f467de                           	{ j	80004780 <_Genld+0x1d0>; l16ui	a3, a3, 60 }

8000491b <_Genld+0x36b>:
8000491b:	00000000 45c1ce00                                .....

80004920 <_Genld+0x370>:
80004920:	70274045c1ce                           	{ l32i	a12, a1, 24; l32i	a7, a1, 40 }
80004926:	7016c054d10e                           	{ l32i	a13, a1, 28; l32i	a0, a1, 20 }
8000492c:	742e587743be                           	{ sub	a6, a3, a4; l32i	a14, a1, 32 }
80004932:	7026c06f67ce                           	{ s32i	a6, a7, 24; l32i	a15, a1, 36 }
80004938:	56427044505e                           	{ ret; addi	a1, a1, 48 }

8000493e <_Genld+0x38e>:
8000493e:	a188                                    	l32i.n	a8, a1, 40
80004940:	1e1882                                    	l16ui	a8, a8, 60
80004943:	e5340c0410388f                               	{ bbci.w15	a8, 3, 80004648 <_Genld+0x98>; nop }
8000494a:	ff3906                                    	j	80004632 <_Genld+0x82>

8000494d <_Genld+0x39d>:
8000494d:	059fa7                                    	bne	a15, a10, 80004956 <_Genld+0x3a6>
80004950:	000246                                    	j	8000495d <_Genld+0x3ad>

80004953 <_Genld+0x3a3>:
80004953:	0a1fa7                                    	beq	a15, a10, 80004961 <_Genld+0x3b1>

80004956 <_Genld+0x3a6>:
80004956:	e4b40e24e05f8f                               	{ bne.w15	a15, a5, 80004602 <_Genld+0x52>; nop }

8000495d <_Genld+0x3ad>:
8000495d:	a108                                    	l32i.n	a0, a1, 40
8000495f:	c008                                    	l32i.n	a0, a0, 48

80004961 <_Genld+0x3b1>:
80004961:	0fad07                                    	bge	a13, a0, 80004974 <_Genld+0x3c4>
80004964:	a128                                    	l32i.n	a2, a1, 40
80004966:	1e1222                                    	l16ui	a2, a2, 60
80004969:	07e237                                    	bbsi	a2, 3, 80004974 <_Genld+0x3c4>
8000496c:	a138                                    	l32i.n	a3, a1, 40
8000496e:	ba0c466fd34e                           	{ s32i	a13, a3, 48; or	a0, a13, a13 }
80004974:	a158                                    	l32i.n	a5, a1, 40
80004976:	400b                                    	addi.n	a4, a0, -1
80004978:	c549                                    	s32i.n	a4, a5, 48
8000497a:	0cd496                                    	bltz	a4, 80004a4b <_Genld+0x49b>

8000497d <_Genld+0x3cd>:
8000497d:	65a062                                    	movi	a6, 101
80004980:	5720d745f5ee                           	{ movi	a15, 69; addi	a7, a15, -103 }
80004986:	b7bf93d184de                           	{ j	8000460e <_Genld+0x5e>; moveqz	a15, a6, a7 }

8000498c <_Genld+0x3dc>:
8000498c:	00000000                                ....

80004990 <_Genld+0x3e0>:
80004990:	941f90d37ade                           	{ j	8000460e <_Genld+0x5e>; movi	a15, 112 }

80004996 <_Genld+0x3e6>:
80004996:	4188                                    	l32i.n	a8, a1, 16
80004998:	093c                                    	movi.n	a9, 48
8000499a:	5000c482980e                           	{ s8i	a9, a8, 0; addi	a8, a8, 1 }
800049a0:	b189                                    	s32i.n	a8, a1, 44
800049a2:	ff4c06                                    	j	800046d6 <_Genld+0x126>

800049a5 <_Genld+0x3f5>:
	...

800049a6 <_Genld+0x3f6>:
800049a6:	401b                                    	addi.n	a4, a0, 1
800049a8:	b08bc244010e                           	{ l32i	a0, a1, 40; add	a3, a5, a0 }
800049ae:	9007c078408e                           	{ s32i	a4, a0, 28; movi	a2, 48 }
800049b4:	004322                                    	s8i	a2, a3, 0
800049b7:	c008                                    	l32i.n	a0, a0, 48
800049b9:	e884000c18308f                               	{ blti.w15	a0, 1, 80004a40 <_Genld+0x490>; nop }

800049c0 <_Genld+0x410>:
800049c0:	a108                                    	l32i.n	a0, a1, 40
800049c2:	7028                                    	l32i.n	a2, a0, 28
800049c4:	4038                                    	l32i.n	a3, a0, 16
800049c6:	421b                                    	addi.n	a4, a2, 1
800049c8:	b087417840ce                           	{ s32i	a4, a0, 28; add	a2, a2, a3 }
800049ce:	0042e2                                    	s8i	a14, a2, 0
800049d1:	c008                                    	l32i.n	a0, a0, 48

800049d3 <_Genld+0x423>:
800049d3:	6050c0                                    	neg	a5, a12
800049d6:	08a057                                    	bge	a0, a5, 800049e2 <_Genld+0x432>
800049d9:	60c000                                    	neg	a12, a0
800049dc:	23cc80                                    	sext	a12, a12, 15
800049df:	6050c0                                    	neg	a5, a12

800049e2 <_Genld+0x432>:
800049e2:	a148                                    	l32i.n	a4, a1, 40
800049e4:	ec0a                                    	add.n	a14, a12, a0
800049e6:	b378c76b544e                           	{ s32i	a5, a4, 32; min	a13, a14, a13 }
800049ec:	70164250348e                           	{ l32i	a3, a4, 28; l32i	a2, a4, 16 }
800049f2:	bb7cc66ee40e                           	{ s32i	a14, a4, 48; sext	a13, a13, 15 }
800049f8:	94d9                                    	s32i.n	a13, a4, 36
800049fa:	b08b415031ce                           	{ l32i	a3, a1, 44; add	a2, a2, a3 }
80004a00:	ba1016872f6e                           	{ call0	80006ac0 <memcpy>; or	a4, a13, a13 }
80004a06:	0a2132                                    	l32i	a3, a1, 40
80004a09:	0c2342                                    	l32i	a4, a3, 48
80004a0c:	c044d0                                    	sub	a4, a4, a13
80004a0f:	0a6342                                    	s32i	a4, a3, 40
80004a12:	6e3f11dc6ade                           	{ j	80004780 <_Genld+0x1d0>; l16ui	a3, a3, 60 }

80004a18 <_Genld+0x468>:
80004a18:	063c                                    	movi.n	a6, 48
80004a1a:	5000c081604e                           	{ s8i	a6, a0, 0; addi	a5, a0, 1 }
80004a20:	b159                                    	s32i.n	a5, a1, 44
80004a22:	ff9986                                    	j	8000488c <_Genld+0x2dc>

80004a25 <_Genld+0x475>:
80004a25:	1e1232                                    	l16ui	a3, a2, 60
80004a28:	e6340e3400338f                               	{ bbci.w15	a3, 3, 80004858 <_Genld+0x2a8>; nop }
80004a2f:	ff8386                                    	j	80004841 <_Genld+0x291>

80004a32 <_Genld+0x482>:
80004a32:	1e1742                                    	l16ui	a4, a7, 60
80004a35:	e6b40e4400348f                               	{ bbci.w15	a4, 3, 800048e9 <_Genld+0x339>; nop }
80004a3c:	ffa506                                    	j	800048d4 <_Genld+0x324>

80004a3f <_Genld+0x48f>:
	...

80004a40 <_Genld+0x490>:
80004a40:	a158                                    	l32i.n	a5, a1, 40
80004a42:	1e1552                                    	l16ui	a5, a5, 60
80004a45:	8a6537                                    	bbci	a5, 3, 800049d3 <_Genld+0x423>
80004a48:	ffdd06                                    	j	800049c0 <_Genld+0x410>

80004a4b <_Genld+0x49b>:
80004a4b:	c5b9                                    	s32i.n	a11, a5, 48
80004a4d:	ffcb06                                    	j	8000497d <_Genld+0x3cd>

80004a50 <_LXp_addh>:
80004a50:	90c112                                    	addi	a1, a1, -112
80004a53:	e1d9                                    	s32i.n	a13, a1, 56
80004a55:	1061f2                                    	s32i	a15, a1, 64
80004a58:	c0c0a8f0515e                           	{ pdx_sv_v_i	v30, a1, 80; nop }
80004a5e:	c0c0a800014e                           	{ pdx_ss_64_i	v0, a1, 0; nop }
80004a64:	0d61c2                                    	s32i	a12, a1, 52
80004a67:	0c6102                                    	s32i	a0, a1, 48
80004a6a:	901f4478e10e                           	{ s32i	a14, a1, 60; movi	a0, 104 }
80004a70:	ba37590001ae                           	{ pdx_ss_64_x	v0, a1, a0; or	a14, a2, a2 }
80004a76:	be30516413ce                           	{ beqz	a3, 80004adb <_LXp_addh+0x8b>; or	a12, a3, a3 }
80004a7c:	08c122                                    	addi	a2, a1, 8
80004a7f:	be0f90b4f47e                           	{ call0	80003650 <_LDunscale>; or	a3, a1, a1 }
80004a85:	c887733809320f                               	{ blti.w15	a2, 1, 80004b37 <_LXp_addh+0xe7>; const.d	v30, 0 }
80004a8c:	e884000c30028f                               	{ beqi.w15	a2, 2, 80004b13 <_LXp_addh+0xc3>; nop }
80004a93:	be0f179b2bbe                           	{ call0	80002f40 <_LDtest>; or	a2, a14, a14 }
80004a99:	e844025c08328f                               	{ blti.w15	a2, 1, 80004b13 <_LXp_addh+0xc3>; nop }
80004aa0:	372226                                    	beqi	a2, 2, 80004adb <_LXp_addh+0x8b>
80004aa3:	54ee109c2dbe                           	{ call0	80002f58 <_LPmsw>; addi	a2, a1, 104 }
80004aa9:	02dd                                    	mov.n	a13, a2
80004aab:	be0f179b2bbe                           	{ call0	80002f58 <_LPmsw>; or	a2, a14, a14 }
80004ab1:	ef6951                                    	l32r	a5, 80000858 (8000 <xthals_release_major+0x5120>)
80004ab4:	680041293d0e                           	{ l16ui	a3, a13, 0; l16ui	a4, a2, 0 }
80004aba:	b10dd945547e                           	{ and	a4, a4, a5; and	a3, a3, a5 }
80004ac0:	171347                                    	beq	a3, a4, 80004adb <_LXp_addh+0x8b>
80004ac3:	940e90f067be                           	{ call0	80004460 <_Feraise>; movi	a2, 16 }
80004ac9:	ef6451                                    	l32r	a5, 8000085c (800004b0 <_LNan>)
80004acc:	c0c0a000055e                           	{ pdx_ls_64_i	v0, a5, 0; nop }
80004ad2:	c0c0a8000e4e                           	{ pdx_ss_64_i	v0, a14, 0; nop }
80004ad8:	192ce6                                    	bgei	a12, 2, 80004af5 <_LXp_addh+0xa5>

80004adb <_LXp_addh+0x8b>:
80004adb:	d1c8                                    	l32i.n	a12, a1, 52
80004add:	703e4044d10e                           	{ l32i	a13, a1, 56; l32i	a0, a1, 48 }
80004ae3:	760a5827eefe                           	{ or	a2, a14, a14; l32i	a15, a1, 64 }
80004ae9:	323f4055e14e                           	{ l32i	a14, a1, 60; pdx_lv_v_i	v30, a1, 80 }
80004aef:	56c27044505e                           	{ ret; addi	a1, a1, 112 }

80004af5 <_LXp_addh+0xa5>:
80004af5:	703d4057c14e                           	{ l32i	a12, a1, 52; l32i	a13, a1, 56 }
80004afb:	720c404701ce                           	{ l32i	a0, a1, 48; l32i	a15, a1, 64 }
80004b01:	ba012ff31e8e                           	{ pdx_ss_64_i	v30, a14, 8; or	a2, a14, a14 }
80004b07:	323f4055e14e                           	{ l32i	a14, a1, 60; pdx_lv_v_i	v30, a1, 80 }
80004b0d:	56c27044505e                           	{ ret; addi	a1, a1, 112 }

80004b13 <_LXp_addh+0xc3>:
80004b13:	703cc047010e                           	{ l32i	a0, a1, 48; l32i	a12, a1, 52 }
80004b19:	74315067686e                           	{ movi	a6, 104; l32i	a13, a1, 56 }
80004b1f:	7606580f61de                           	{ pdx_ls_64_x	v1, a1, a6; l32i	a15, a1, 64 }
80004b25:	363b5825ee7e                           	{ or	a2, a14, a14; pdx_lv_v_i	v30, a1, 80 }
80004b2b:	7031a80f0e8e                           	{ pdx_ss_64_i	v1, a14, 0; l32i	a14, a1, 60 }
80004b31:	56c27044505e                           	{ ret; addi	a1, a1, 112 }

80004b37 <_LXp_addh+0xe7>:
80004b37:	fa02d6                                    	bgez	a2, 80004adb <_LXp_addh+0x8b>
80004b3a:	9d1ca6                                    	blti	a12, 1, 80004adb <_LXp_addh+0x8b>
80004b3d:	900e0850983e                           	{ l32r	a9, 80000860 (800 <CS_SA_cp1+0x2b0>); movi	a0, 0 }
80004b43:	53fbc66a01ce                           	{ s32i	a0, a1, 40; addi	a11, a12, -1 }
80004b49:	b2e9466bb18e                           	{ s32i	a11, a1, 32; addx8	a10, a12, a14 }
80004b4f:	91a9                                    	s32i.n	a10, a1, 36
80004b51:	9006407b91ce                           	{ s32i	a9, a1, 28; movi	a15, 0 }
80004b57:	ba3ac77bf18e                           	{ s32i	a15, a1, 44; or	a13, a14, a14 }
80004b5d:	9000100336ce                           	{ j	80004b97 <_LXp_addh+0x147>; movi	a15, 0 }

80004b63 <_LXp_addh+0x113>:
80004b63:	00000000 0d5e0000                                ......

80004b69 <_LXp_addh+0x119>:
80004b69:	c0c0a0000d5e                           	{ pdx_ls_64_i	v0, a13, 0; nop }
80004b6f:	076102                                    	s32i	a0, a1, 28

80004b72 <_LXp_addh+0x122>:
80004b72:	50202804018e                           	{ pdx_ss_64_i	v0, a1, 0; addi	a2, a1, 8 }
80004b78:	be0f90b4b57e                           	{ call0	80003650 <_LDunscale>; or	a3, a1, a1 }
80004b7e:	0b2122                                    	l32i	a2, a1, 44
80004b81:	0020f0                                    	nop
80004b84:	08c232                                    	addi	a3, a2, 8
80004b87:	0a6132                                    	s32i	a3, a1, 40
80004b8a:	502a467f314e                           	{ s32i	a3, a1, 44; addi	a13, a13, 8 }

80004b90 <_LXp_addh+0x140>:
80004b90:	e7740c1cb0cf8f                               	{ bge.w15	a15, a12, 80004adb <_LXp_addh+0x8b>; nop }

80004b97 <_LXp_addh+0x147>:
80004b97:	c0c0a0200d5e                           	{ pdx_ls_64_i	v2, a13, 0; nop }
80004b9d:	52202824218e                           	{ pdx_ss_64_i	v2, a1, 16; addi	a2, a1, 24 }
80004ba3:	560e10b4abfe                           	{ call0	80003650 <_LDunscale>; addi	a3, a1, 16 }
80004ba9:	ef340e3c08128f                               	{ bgei.w15	a2, 1, 80004adb <_LXp_addh+0x8b>; nop }
80004bb0:	641250ecc20e                           	{ beqz	a2, 80004eb0 <_LXp_addh+0x460>; l16si	a0, a1, 8 }
80004bb6:	0c9122                                    	l16si	a2, a1, 24
80004bb9:	97f153093a2e                           	{ movi	a3, 26; movi	a4, -26 }
80004bbf:	be805160582e                           	{ movi	a5, 104; sub	a0, a2, a0 }
80004bc5:	a18230cd046e                           	{ blt	a4, a0, 80004c0b <_LXp_addh+0x1bb>; pdx_ls_64_x	v0, a1, a5 }
80004bcb:	d0c3ec0060502f                               	{ nop; nop; oeq.d	vb0, v0, v30 }
80004bd2:	c4caf028005e                           	{ pdx_movbr_b	b0, vb0; nop }
80004bd8:	2f1076                                    	bt	b0, 80004c0b <_LXp_addh+0x1bb>
80004bdb:	702030550fce                           	{ addi	a0, a15, 1; l32i	a7, a1, 32 }
80004be1:	414f4340a3c08f                               	{ bge.w15	a0, a12, 80004d55 <_LXp_addh+0x305>; addx8	a2, a0, a14 }
80004be8:	c0c0a028025e                           	{ pdx_ls_64_i	v3, a2, 0; nop }
80004bee:	d0c3ec206050ef                               	{ nop; nop; oeq.d	vb1, v3, v30 }
80004bf5:	c4caf028115e                           	{ pdx_movbr_b	b1, vb1; nop }
80004bfb:	7258200160618f                               	{ bt	b1, 80004c05 <_LXp_addh+0x1b5>; addi	a2, a2, 8 }
80004c02:	00b786                                    	j	80004ee4 <_LXp_addh+0x494>
80004c05:	005306                                    	j	80004d55 <_LXp_addh+0x305>

80004c08 <_LXp_addh+0x1b8>:
80004c08:	000000                                        ...

80004c0b <_LXp_addh+0x1bb>:
80004c0b:	272037                                    	blt	a0, a3, 80004c36 <_LXp_addh+0x1e6>
80004c0e:	d0c3ec4060502f                               	{ nop; nop; oeq.d	vb2, v0, v30 }
80004c15:	c4caf028225e                           	{ pdx_movbr_b	b2, vb2; nop }
80004c1b:	925821906d620f                               	{ bt	b2, 80004c36 <_LXp_addh+0x1e6>; l32i	a4, a1, 44 }
80004c22:	50264279214e                           	{ s32i	a2, a1, 28; addi	a5, a4, 8 }
80004c28:	a159                                    	s32i.n	a5, a1, 40
80004c2a:	500ac77f51ce                           	{ s32i	a5, a1, 44; addi	a15, a15, 1 }
80004c30:	542e16ff5c5e                           	{ j	80004b90 <_LXp_addh+0x140>; addi	a13, a13, 8 }

80004c36 <_LXp_addh+0x1e6>:
80004c36:	c0c0a0400d5e                           	{ pdx_ls_64_i	v4, a13, 0; nop }
80004c3c:	90c00d6561502f                               	{ nop; nop; add.d	v0, v4, v0 }
80004c43:	d0c3ec6060502f                               	{ nop; nop; oeq.d	vb3, v0, v30 }
80004c4a:	c4caf028335e                           	{ pdx_movbr_b	b3, vb3; nop }
80004c50:	b108                                    	l32i.n	a0, a1, 44
80004c52:	ba012f070dce                           	{ pdx_ss_64_i	v0, a13, 0; or	a2, a15, a15 }
80004c58:	5253405003538f                               	{ bf	b3, 80004cac <_LXp_addh+0x25c>; add	a0, a0, a14 }
80004c5f:	008b                                    	addi.n	a0, a0, 8
80004c61:	50009100228e                           	{ j	80004c87 <_LXp_addh+0x237>; addi	a2, a2, 1 }

80004c67 <_LXp_addh+0x217>:
80004c67:	c0c0a048005e                           	{ pdx_ls_64_i	v5, a0, 0; nop }
80004c6d:	d0c3ec8061506f                               	{ nop; nop; oeq.d	vb4, v5, v30 }
80004c74:	c4caf028445e                           	{ pdx_movbr_b	b4, vb4; nop }
80004c7a:	540ea948f08e                           	{ pdx_ss_64_i	v5, a0, -8; addi	a2, a2, 1 }
80004c80:	7258200060640f                               	{ bt	b4, 80004c8a <_LXp_addh+0x23a>; addi	a0, a0, 8 }

80004c87 <_LXp_addh+0x237>:
80004c87:	dc22c7                                    	blt	a2, a12, 80004c67 <_LXp_addh+0x217>

80004c8a <_LXp_addh+0x23a>:
80004c8a:	092122                                    	l32i	a2, a1, 36
80004c8d:	c4cea8f0f24e                           	{ pdx_ss_64_i	v30, a2, -8; nop }
80004c93:	c0c0a0000d5e                           	{ pdx_ls_64_i	v0, a13, 0; nop }
80004c99:	d0c3eca060502f                               	{ nop; nop; oeq.d	vb5, v0, v30 }
80004ca0:	c4caf028555e                           	{ pdx_movbr_b	b5, vb5; nop }
80004ca6:	020576                                    	bf	b5, 80004cac <_LXp_addh+0x25c>
80004ca9:	ff8b86                                    	j	80004adb <_LXp_addh+0x8b>

80004cac <_LXp_addh+0x25c>:
80004cac:	68a032                                    	movi	a3, 104
80004caf:	5026580431ae                           	{ pdx_ss_64_x	v0, a1, a3; addi	a2, a1, 8 }
80004cb5:	54ee10b466fe                           	{ call0	80003650 <_LDunscale>; addi	a3, a1, 104 }
80004cbb:	072102                                    	l32i	a0, a1, 28
80004cbe:	049122                                    	l16si	a2, a1, 8
80004cc1:	e6c042                                    	addi	a4, a0, -26
80004cc4:	e104023cd0248f                               	{ blt.w15	a4, a2, 80004df7 <_LXp_addh+0x3a7>; nop }
80004ccb:	01cff2                                    	addi	a15, a15, 1
80004cce:	e6340c2490cf8f                               	{ beq.w15	a15, a12, 80004adb <_LXp_addh+0x8b>; nop }
80004cd5:	c0c0a0600d5e                           	{ pdx_ls_64_i	v6, a13, 0; nop }
80004cdb:	52202864d18e                           	{ pdx_ss_64_i	v6, a1, 104; addi	a2, a1, 24 }
80004ce1:	be0f96b75b7e                           	{ call0	80003650 <_LDunscale>; or	a3, a13, a13 }
80004ce7:	202dd0                                    	or	a2, a13, a13
80004cea:	90009500a1ee                           	{ call0	80004f70 <_LDint>; movi	a3, 26 }
80004cf0:	202dd0                                    	or	a2, a13, a13
80004cf3:	60301004a3ee                           	{ call0	80004f80 <_LDscale>; l16si	a3, a1, 24 }
80004cf9:	24205664682e                           	{ movi	a6, 104; pdx_ls_64_i	v8, a13, 0 }
80004cff:	c4c6d868615e                           	{ pdx_ls_64_x	v7, a1, a6; nop }
80004d05:	90c08dc56150ef                               	{ nop; nop; sub.d	v0, v7, v8 }
80004d0c:	d0c3ecc060502f                               	{ nop; nop; oeq.d	vb6, v0, v30 }
80004d13:	c4caf028665e                           	{ pdx_movbr_b	b6, vb6; nop }
80004d19:	c0c6d800616e                           	{ pdx_ss_64_x	v0, a1, a6; nop }
80004d1f:	9250300064560f                               	{ bf	b6, 80004d29 <_LXp_addh+0x2d9>; l16si	a0, a1, 24 }
80004d26:	ff8fc6                                    	j	80004b69 <_LXp_addh+0x119>
80004d29:	076102                                    	s32i	a0, a1, 28
80004d2c:	ff9086                                    	j	80004b72 <_LXp_addh+0x122>

80004d2f <_LXp_addh+0x2df>:
80004d2f:	00000000 5e000000                                ......

80004d35 <_LXp_addh+0x2e5>:
	...

80004d36 <_LXp_addh+0x2e6>:
80004d36:	c0c0a088025e                           	{ pdx_ls_64_i	v9, a2, 0; nop }
80004d3c:	d0c3ece062506f                               	{ nop; nop; oeq.d	vb7, v9, v30 }
80004d43:	c4caf028775e                           	{ pdx_movbr_b	b7, vb7; nop }
80004d49:	7258200900678f                               	{ bt	b7, 80004d55 <_LXp_addh+0x305>; addi	a2, a2, 8 }

80004d50 <_LXp_addh+0x300>:
80004d50:	001b                                    	addi.n	a0, a0, 1
80004d52:	e020c7                                    	blt	a0, a12, 80004d36 <_LXp_addh+0x2e6>
80004d55:	baa8b6a8700e                           	{ bge	a0, a7, 80004d61 <_LXp_addh+0x311>; sub	a9, a12, a0 }
80004d5b:	50009000070e                           	{ j	80004d66 <_LXp_addh+0x316>; addi	a0, a0, 1 }

80004d61 <_LXp_addh+0x311>:
80004d61:	800b                                    	addi.n	a8, a0, -1
80004d63:	830890                                    	moveqz	a0, a8, a9

80004d66 <_LXp_addh+0x316>:
80004d66:	7eaf07                                    	bge	a15, a0, 80004de8 <_LXp_addh+0x398>
80004d69:	b6ce583bf0be                           	{ sub	a3, a0, a15; addx8	a0, a0, a14 }
80004d6f:	44a9384000fe                           	{ addi	a0, a0, -8; extui	a10, a3, 0, 3 }
80004d75:	0020f0                                    	nop
80004d78:	f03d                                    	nop.n
80004d7a:	b04f418c1ace                           	{ loopgtz	a10, 80004d8c <_LXp_addh+0x33c>; srai	a2, a3, 3 }
80004d80:	c4c2d8a0f06e                           	{ pdx_ls_64_ip	v10, a0, -8; nop }
80004d86:	c0c0a8a0204e                           	{ pdx_ss_64_i	v10, a0, 16; nop }

80004d8c <_LXp_addh+0x33c>:
80004d8c:	f03d                                    	nop.n
80004d8e:	4da276                                    	loopgtz	a2, 80004ddf <_LXp_addh+0x38f>
80004d91:	c4c2d800e06e                           	{ pdx_ls_64_ip	v0, a0, -16; nop }
80004d97:	c0c0a008105e                           	{ pdx_ls_64_i	v1, a0, 8; nop }
80004d9d:	c0c0a800304e                           	{ pdx_ss_64_i	v0, a0, 24; nop }

80004da3 <_LXp_addh+0x353>:
80004da3:	a940280b208e                           	{ pdx_ss_64_i	v1, a0, 16; pdx_ls_64_ip	v0, a0, -16 }
80004da9:	c0c0a008105e                           	{ pdx_ls_64_i	v1, a0, 8; nop }
80004daf:	c0c0a800304e                           	{ pdx_ss_64_i	v0, a0, 24; nop }
80004db5:	a940280b208e                           	{ pdx_ss_64_i	v1, a0, 16; pdx_ls_64_ip	v0, a0, -16 }
80004dbb:	c0c0a008105e                           	{ pdx_ls_64_i	v1, a0, 8; nop }
80004dc1:	c0c0a800304e                           	{ pdx_ss_64_i	v0, a0, 24; nop }
80004dc7:	a940280b208e                           	{ pdx_ss_64_i	v1, a0, 16; pdx_ls_64_ip	v0, a0, -16 }
80004dcd:	c0c0a008105e                           	{ pdx_ls_64_i	v1, a0, 8; nop }
80004dd3:	c0c0a800304e                           	{ pdx_ss_64_i	v0, a0, 24; nop }
80004dd9:	c0c0a808204e                           	{ pdx_ss_64_i	v1, a0, 16; nop }

80004ddf <_LXp_addh+0x38f>:
80004ddf:	68a022                                    	movi	a2, 104
80004de2:	c4c6d800215e                           	{ pdx_ls_64_x	v0, a1, a2; nop }

80004de8 <_LXp_addh+0x398>:
80004de8:	90112c000dce                           	{ pdx_ss_64_i	v0, a13, 0; movi	a3, 104 }
80004dee:	c0c6d8f0316e                           	{ pdx_ss_64_x	v30, a1, a3; nop }
80004df4:	ff6606                                    	j	80004b90 <_LXp_addh+0x140>

80004df7 <_LXp_addh+0x3a7>:
80004df7:	c03200                                    	sub	a3, a2, a0
80004dfa:	5229314421fe                           	{ addi	a2, a1, 104; addi	a3, a3, 26 }
80004e00:	bb4191065b2e                           	{ call0	80004f70 <_LDint>; sext	a3, a3, 15 }
80004e06:	049132                                    	l16si	a3, a1, 8
80004e09:	50e010045dae                           	{ call0	80004f80 <_LDscale>; addi	a2, a1, 104 }
80004e0f:	24305664382e                           	{ movi	a3, 104; pdx_ls_64_i	v12, a13, 0 }
80004e15:	c4c6d8c8315e                           	{ pdx_ls_64_x	v13, a1, a3; nop }
80004e1b:	90d6ddc563502f                               	{ nop; nop; sub.d	v11, v12, v13 }
80004e22:	d543e1005231ef                               	{ l32i	a3, a1, 44; nop; oeq.d	vb8, v11, v30 }
80004e29:	c4caf028885e                           	{ pdx_movbr_b	b8, vb8; nop }
80004e2f:	74293844433e                           	{ addi	a4, a3, -8; l32i	a0, a1, 40 }
80004e35:	53ea467f414e                           	{ s32i	a4, a1, 44; addi	a13, a13, -8 }
80004e3b:	ba012faf1dce                           	{ pdx_ss_64_i	v11, a13, 8; or	a2, a15, a15 }
80004e41:	5253403843588f                               	{ bf	b8, 80004e81 <_LXp_addh+0x431>; add	a0, a0, a14 }
80004e48:	008b                                    	addi.n	a0, a0, 8
80004e4a:	50009100288e                           	{ j	80004e76 <_LXp_addh+0x426>; addi	a2, a2, 1 }

80004e50 <_LXp_addh+0x400>:
80004e50:	00000000 005e0000                                ......

80004e56 <_LXp_addh+0x406>:
80004e56:	c0c0a0e0005e                           	{ pdx_ls_64_i	v14, a0, 0; nop }
80004e5c:	d0c3ed206350af                               	{ nop; nop; oeq.d	vb9, v14, v30 }
80004e63:	c4caf028995e                           	{ pdx_movbr_b	b9, vb9; nop }
80004e69:	540ea9e0f08e                           	{ pdx_ss_64_i	v14, a0, -8; addi	a2, a2, 1 }
80004e6f:	7258200060690f                               	{ bt	b9, 80004e79 <_LXp_addh+0x429>; addi	a0, a0, 8 }

80004e76 <_LXp_addh+0x426>:
80004e76:	dc22c7                                    	blt	a2, a12, 80004e56 <_LXp_addh+0x406>

80004e79 <_LXp_addh+0x429>:
80004e79:	9128                                    	l32i.n	a2, a1, 36
80004e7b:	c4cea8f0f24e                           	{ pdx_ss_64_i	v30, a2, -8; nop }

80004e81 <_LXp_addh+0x431>:
80004e81:	53fbc76f41ce                           	{ s32i	a4, a1, 40; addi	a15, a15, -1 }
80004e87:	6fcc                                    	bnez.n	a15, 80004e91 <_LXp_addh+0x441>
80004e89:	ee7551                                    	l32r	a5, 80000860 (800 <CS_SA_cp1+0x2b0>)
80004e8c:	7159                                    	s32i.n	a5, a1, 28
80004e8e:	ff3f86                                    	j	80004b90 <_LXp_addh+0x140>

80004e91 <_LXp_addh+0x441>:
80004e91:	c4cea0e8fd5e                           	{ pdx_ls_64_i	v15, a13, -8; nop }
80004e97:	522028ec018e                           	{ pdx_ss_64_i	v15, a1, 0; addi	a2, a1, 24 }
80004e9d:	be0f909cec7e                           	{ call0	80003650 <_LDunscale>; or	a3, a1, a1 }
80004ea3:	0c9162                                    	l16si	a6, a1, 24
80004ea6:	7169                                    	s32i.n	a6, a1, 28
80004ea8:	ff3906                                    	j	80004b90 <_LXp_addh+0x140>

80004eab <_LXp_addh+0x45b>:
80004eab:	000000                                        ...

80004eae <_LXp_addh+0x45e>:
	...

80004eb0 <_LXp_addh+0x460>:
80004eb0:	68a082                                    	movi	a8, 104
80004eb3:	c4c6d810815e                           	{ pdx_ls_64_x	v16, a1, a8; nop }
80004eb9:	5000af150dce                           	{ pdx_ss_64_i	v16, a13, 0; addi	a7, a15, 1 }
80004ebf:	e4340c64a0c78f                               	{ bge.w15	a7, a12, 80004adb <_LXp_addh+0x8b>; nop }
80004ec6:	7430c047f10e                           	{ l32i	a15, a1, 64; l32i	a12, a1, 52 }
80004ecc:	703028f41d0e                           	{ pdx_ss_64_i	v30, a13, 8; l32i	a0, a1, 48 }
80004ed2:	ba0f4743d18e                           	{ l32i	a13, a1, 56; or	a2, a14, a14 }
80004ed8:	7031a0f751ae                           	{ pdx_lv_v_i	v30, a1, 80; l32i	a14, a1, 60 }
80004ede:	56c27044505e                           	{ ret; addi	a1, a1, 112 }

80004ee4 <_LXp_addh+0x494>:
80004ee4:	ff9a06                                    	j	80004d50 <_LXp_addh+0x300>

80004ee7 <_LXp_addh+0x497>:
	...

80004ef0 <_LXp_addx>:
80004ef0:	d0c112                                    	addi	a1, a1, -48
80004ef3:	11c9                                    	s32i.n	a12, a1, 4
80004ef5:	41f9                                    	s32i.n	a15, a1, 16
80004ef7:	0109                                    	s32i.n	a0, a1, 0
80004ef9:	21d9                                    	s32i.n	a13, a1, 8
80004efb:	ba32c178e18e                           	{ s32i	a14, a1, 12; or	a13, a2, a2 }
80004f01:	ba3129f421de                           	{ pdx_sv_v_i	v30, a1, 32; or	a14, a3, a3 }
80004f07:	bbf56009352e                           	{ blti	a5, 1, 80004f4f <_LXp_addx+0x5f>; const.d	v30, 0 }
80004f0d:	c0c0a000045e                           	{ pdx_ls_64_i	v0, a4, 0; nop }
80004f13:	d0c3ec0060502f                               	{ nop; nop; oeq.d	vb0, v0, v30 }
80004f1a:	c4caf028005e                           	{ pdx_movbr_b	b0, vb0; nop }
80004f20:	20c440                                    	or	a12, a4, a4
80004f23:	525f71aa05600f                               	{ bt	b0, 80004f4f <_LXp_addx+0x5f>; addx8	a15, a5, a4 }

80004f2a <_LXp_addx+0x3a>:
80004f2a:	203ee0                                    	or	a3, a14, a14
80004f2d:	be0f16f7c87e                           	{ call0	80004a50 <_LXp_addh>; or	a2, a13, a13 }
80004f33:	08ccc2                                    	addi	a12, a12, 8
80004f36:	15bcf7                                    	bgeu	a12, a15, 80004f4f <_LXp_addx+0x5f>
80004f39:	c0c0a0000c5e                           	{ pdx_ls_64_i	v0, a12, 0; nop }
80004f3f:	d0c3ec2060502f                               	{ nop; nop; oeq.d	vb1, v0, v30 }
80004f46:	c4caf028115e                           	{ pdx_movbr_b	b1, vb1; nop }
80004f4c:	da0176                                    	bf	b1, 80004f2a <_LXp_addx+0x3a>
80004f4f:	0121c2                                    	l32i	a12, a1, 4
80004f52:	70024054e10e                           	{ l32i	a14, a1, 12; l32i	a0, a1, 0 }
80004f58:	741a5827ddfe                           	{ or	a2, a13, a13; l32i	a15, a1, 16 }
80004f5e:	32334044d18e                           	{ l32i	a13, a1, 8; pdx_lv_v_i	v30, a1, 32 }
80004f64:	56427044505e                           	{ ret; addi	a1, a1, 48 }

80004f6a <_LXp_addx+0x7a>:
80004f6a:	00000000 c1120000                                ......

80004f70 <_LDint>:
80004f70:	f0c112                                    	addi	a1, a1, -16
80004f73:	0109                                    	s32i.n	a0, a1, 0
80004f75:	002685                                    	call0	800051e0 <_Dint>
80004f78:	0108                                    	l32i.n	a0, a1, 0
80004f7a:	56027044505e                           	{ ret; addi	a1, a1, 16 }

80004f80 <_LDscale>:
80004f80:	f0c112                                    	addi	a1, a1, -16
80004f83:	0109                                    	s32i.n	a0, a1, 0
80004f85:	90001201032e                           	{ call0	80004f94 <_LDscalex>; movi	a4, 4 }
80004f8b:	0108                                    	l32i.n	a0, a1, 0
80004f8d:	56027044505e                           	{ ret; addi	a1, a1, 16 }

80004f93 <_LDscale+0x13>:
	...

80004f94 <_LDscalex>:
80004f94:	f0c112                                    	addi	a1, a1, -16
80004f97:	006102                                    	s32i	a0, a1, 0
80004f9a:	004685                                    	call0	80005404 <_Dscalex>
80004f9d:	0108                                    	l32i.n	a0, a1, 0
80004f9f:	56027044505e                           	{ ret; addi	a1, a1, 16 }

80004fa5 <_LDscalex+0x11>:
	...

80004fb0 <close>:
80004fb0:	ba0d89f826be                           	{ l32r	a2, 80000788 (800074b4 <_reent_ptr>); or	a3, a2, a2 }
80004fb6:	f0c112                                    	addi	a1, a1, -16
80004fb9:	0109                                    	s32i.n	a0, a1, 0
80004fbb:	7000116865ae                           	{ call0	80006d50 <_close_r>; l32i	a2, a2, 0 }
80004fc1:	0108                                    	l32i.n	a0, a1, 0
80004fc3:	56027044505e                           	{ ret; addi	a1, a1, 16 }

80004fc9 <close+0x19>:
80004fc9:	00000000 31000000                                .......

80004fd0 <rmdir>:
80004fd0:	edee31                                    	l32r	a3, 80000788 (800074b4 <_reent_ptr>)
80004fd3:	0338                                    	l32i.n	a3, a3, 0
80004fd5:	120c                                    	movi.n	a2, 1
80004fd7:	0329                                    	s32i.n	a2, a3, 0
80004fd9:	97f3f744509e                           	{ ret; movi	a2, -1 }

80004fdf <rmdir+0xf>:
	...

80004fe0 <unlink>:
80004fe0:	ba0d89f02abe                           	{ l32r	a2, 80000788 (800074b4 <_reent_ptr>); or	a3, a2, a2 }
80004fe6:	f0c112                                    	addi	a1, a1, -16
80004fe9:	0109                                    	s32i.n	a0, a1, 0
80004feb:	7000116861ae                           	{ call0	80006d70 <_unlink_r>; l32i	a2, a2, 0 }
80004ff1:	0108                                    	l32i.n	a0, a1, 0
80004ff3:	56027044505e                           	{ ret; addi	a1, a1, 16 }

80004ff9 <unlink+0x19>:
80004ff9:	00000000 7d000000                                .......

80005000 <write>:
80005000:	037d                                    	mov.n	a7, a3
80005002:	ba0d89f021be                           	{ l32r	a2, 80000788 (800074b4 <_reent_ptr>); or	a3, a2, a2 }
80005008:	57ca584c447e                           	{ or	a5, a4, a4; addi	a1, a1, -16 }
8000500e:	ba10436d01ce                           	{ s32i	a0, a1, 0; or	a4, a7, a7 }
80005014:	700011685eae                           	{ call0	80006d90 <_write_r>; l32i	a2, a2, 0 }
8000501a:	0108                                    	l32i.n	a0, a1, 0
8000501c:	56027044505e                           	{ ret; addi	a1, a1, 16 }

80005022 <write+0x22>:
	...

80005030 <calloc>:
80005030:	f0c112                                    	addi	a1, a1, -16
80005033:	2109                                    	s32i.n	a0, a1, 8
80005035:	97f1d70c220e                           	{ beqz	a2, 8000504b <calloc+0x1b>; movi	a0, -1 }
8000503b:	c20020                                    	quou	a0, a0, a2
8000503e:	09b037                                    	bgeu	a0, a3, 8000504b <calloc+0x1b>
80005041:	2108                                    	l32i.n	a0, a1, 8
80005043:	020c                                    	movi.n	a2, 0
80005045:	56027044505e                           	{ ret; addi	a1, a1, 16 }

8000504b <calloc+0x1b>:
8000504b:	822230                                    	mull	a2, a2, a3
8000504e:	016122                                    	s32i	a2, a1, 4
80005051:	fdafc5                                    	call0	80002b50 <malloc>
80005054:	006122                                    	s32i	a2, a1, 0
80005057:	7401500cc20e                           	{ beqz	a2, 80005077 <calloc+0x47>; l32i	a0, a1, 8 }
8000505d:	00a032                                    	movi	a3, 0
80005060:	0020f0                                    	nop
80005063:	70009065ee2e                           	{ call0	80006c1c <memset>; l32i	a4, a1, 4 }
80005069:	0108                                    	l32i.n	a0, a1, 0
8000506b:	ba034040010e                           	{ l32i	a0, a1, 8; or	a2, a0, a0 }
80005071:	56027044505e                           	{ ret; addi	a1, a1, 16 }

80005077 <calloc+0x47>:
80005077:	56027044505e                           	{ ret; addi	a1, a1, 16 }

8000507d <calloc+0x4d>:
8000507d:	000000                                        ...

80005080 <_Fegetstat>:
80005080:	e32e90                                    	rur.fsr	a2
80005083:	f00d                                    	ret.n

80005085 <_Fegetstat+0x5>:
80005085:	000000                                        ...

80005088 <_Fesetstat>:
80005088:	e34e90                                    	rur.fsr	a4
8000508b:	f57c                                    	movi.n	a5, -1
8000508d:	305350                                    	xor	a5, a3, a5
80005090:	104450                                    	and	a4, a4, a5
80005093:	202240                                    	or	a2, a2, a4
80005096:	f3e920                                    	wur.fsr	a2
80005099:	f00d                                    	ret.n

8000509b <_Fesetstat+0x13>:
	...

8000509c <feraiseexcept>:
8000509c:	f0c112                                    	addi	a1, a1, -16
8000509f:	0109                                    	s32i.n	a0, a1, 0
800050a1:	41304078c18e                           	{ s32i	a12, a1, 4; extui	a12, a2, 0, 5 }
800050a7:	0c9c                                    	beqz.n	a12, 800050bb <feraiseexcept+0x1f>
800050a9:	112c90                                    	slli	a2, a12, 7
800050ac:	940e10f8f6fe                           	{ call0	80005088 <_Fesetstat>; movi	a3, 0 }
800050b2:	410720                                    	srli	a0, a2, 7
800050b5:	b50136680c0e                           	{ bany	a12, a0, 800050c9 <feraiseexcept+0x2d>; and	a2, a12, a0 }
800050bb:	0108                                    	l32i.n	a0, a1, 0
800050bd:	90004050c18e                           	{ l32i	a12, a1, 4; movi	a2, 0 }
800050c3:	56027044505e                           	{ ret; addi	a1, a1, 16 }

800050c9 <feraiseexcept+0x2d>:
800050c9:	70009007052e                           	{ call0	800050e0 <_Force_raise>; l32i	a12, a1, 4 }
800050cf:	0108                                    	l32i.n	a0, a1, 0
800050d1:	020c                                    	movi.n	a2, 0
800050d3:	56027044505e                           	{ ret; addi	a1, a1, 16 }

800050d9 <feraiseexcept+0x3d>:
800050d9:	00000000 7e000000                                .......

800050e0 <_Force_raise>:
800050e0:	51cc08f4417e                           	{ l32r	a4, 80000864 (7f7fffff <_memmap_cacheattr_bp_allvalid+0x3b3bbbbb>); addi	a1, a1, -32 }
800050e6:	90064069014e                           	{ s32i	a0, a1, 24; movi	a5, 0 }
800050ec:	3159                                    	s32i.n	a5, a1, 12
800050ee:	9000406d414e                           	{ s32i	a4, a1, 0; movi	a5, 1 }
800050f4:	026152                                    	s32i	a5, a1, 8
800050f7:	ed8d31                                    	l32r	a3, 8000072c (7fffffff <_memmap_cacheattr_bp_allvalid+0x3bbbbbbb>)
800050fa:	0020c0                                    	memw
800050fd:	046132                                    	s32i	a3, a1, 16
80005100:	edda01                                    	l32r	a0, 80000868 (7f800000 <_memmap_cacheattr_bp_allvalid+0x3b3bbbbc>)
80005103:	10112044018e                           	{ pdx_ls_32_i	v4, a1, 0; pdx_ls_32_i	v6, a1, 8 }
80005109:	b9c55019f37e                           	{ const.s	v3, 1; const.s	v2, 0 }
8000510f:	bdc8f10d055e                           	{ wfr	v5, a0; const.s	v1, 3 }
80005115:	1a8076                                    	loop	a0, 80005133 <_Force_raise+0x53>
80005118:	100250                                    	and	a0, a2, a5
8000511b:	611026                                    	beqi	a0, 1, 80005180 <_Force_raise+0xa0>
8000511e:	552026                                    	beqi	a0, 2, 80005177 <_Force_raise+0x97>
80005121:	4b4026                                    	beqi	a0, 4, 80005170 <_Force_raise+0x90>
80005124:	308026                                    	beqi	a0, 8, 80005158 <_Force_raise+0x78>
80005127:	0bb026                                    	beqi	a0, 16, 80005136 <_Force_raise+0x56>

8000512a <_Force_raise+0x4a>:
8000512a:	aed0d20f60ee                           	{ movi	a6, 16; slli	a5, a5, 1 }
80005130:	6d2657                                    	blt	a6, a5, 800051a1 <_Force_raise+0xc1>

80005133 <_Force_raise+0x53>:
80005133:	fff786                                    	j	80005115 <_Force_raise+0x35>

80005136 <_Force_raise+0x56>:
80005136:	0020c0                                    	memw
80005139:	c0c0a048517e                           	{ pdx_ss_32_i	v5, a1, 20; nop }
8000513f:	0020c0                                    	memw
80005142:	c0c0a068514e                           	{ pdx_ls_32_i	v7, a1, 20; nop }
80005148:	d0c47dc060506f                               	{ nop; nop; trunc.s	v0, v7, 1 }
8000514f:	0020c0                                    	memw
80005152:	140e10fdd45e                           	{ j	8000512a <_Force_raise+0x4a>; pdx_ls_32_i	v0, a1, 20 }

80005158 <_Force_raise+0x78>:
80005158:	c0c4d020e07e                           	{ pdx_mov_v	v0, v2; nop }
8000515e:	0157bedc8ae3010f802245c27af9c83f 	{ j	8000512a <_Force_raise+0x4a>; nop; mkdadj.s	v0, v3; nop }

8000516e <_Force_raise+0x8e>:
	...

80005170 <_Force_raise+0x90>:
80005170:	88c04ee5f9b62f                               	{ j	8000512a <_Force_raise+0x4a>; nop; add.s	v0, v4, v4 }

80005177 <_Force_raise+0x97>:
80005177:	44266e80f8af5f                               	{ j	8000512a <_Force_raise+0x4a>; nop; nop; mul.s	v0, v6, v1 }

8000517e <_Force_raise+0x9e>:
	...

80005180 <_Force_raise+0xa0>:
80005180:	0020c0                                    	memw
80005183:	4178                                    	l32i.n	a7, a1, 16
80005185:	469070                                    	wfr	v9, a7
80005188:	d0c49d6860502f                               	{ nop; nop; float.s	v8, v9, 0 }
8000518f:	0020c0                                    	memw
80005192:	c0c0a080517e                           	{ pdx_ss_32_i	v8, a1, 20; nop }
80005198:	0020c0                                    	memw
8000519b:	140e10fd8b5e                           	{ j	8000512a <_Force_raise+0x4a>; pdx_ls_32_i	v0, a1, 20 }

800051a1 <_Force_raise+0xc1>:
800051a1:	6108                                    	l32i.n	a0, a1, 24
800051a3:	0157bc3e6ae05107800505c0808c203f 	{ ret; addi	a1, a1, 32; cvtd.s	v0, v0; nop }

800051b3 <_Force_raise+0xd3>:
	...

800051b4 <fesetenv>:
800051b4:	0238                                    	l32i.n	a3, a2, 0
800051b6:	020c                                    	movi.n	a2, 0
800051b8:	f3e830                                    	wur.fcr	a3
800051bb:	f3e930                                    	wur.fsr	a3
800051be:	f00d                                    	ret.n

800051c0 <localeconv>:
800051c0:	edab21                                    	l32r	a2, 8000086c (80007b28 <_Tls_setup__Locale>)
800051c3:	0228                                    	l32i.n	a2, a2, 0
800051c5:	f0c112                                    	addi	a1, a1, -16
800051c8:	0109                                    	s32i.n	a0, a1, 0
800051ca:	002216                                    	beqz	a2, 800051d0 <localeconv+0x10>
800051cd:	0002c0                                    	callx0	a2
800051d0:	0108                                    	l32i.n	a0, a1, 0
800051d2:	eda721                                    	l32r	a2, 80000870 (800074dc <_Locale>)
800051d5:	56027044505e                           	{ ret; addi	a1, a1, 16 }

800051db <localeconv+0x1b>:
800051db:	00000000 03128200                                .....

800051e0 <_Dint>:
800051e0:	031282                                    	l16ui	a8, a2, 6
800051e3:	ba1d099848be                           	{ l32r	a4, 80000844 (ffff7fff <_memmap_cacheattr_unused_mask+0xe80ff>); or	a6, a2, a2 }
800051e9:	4c97d2fa2f2e                           	{ movi	a2, 0x7ff; extui	a7, a8, 4, 11 }
800051ef:	4080e2b882270f                               	{ beq.w15	a7, a2, 800052a1 <_Dint+0xc1>; extui	a9, a8, 0, 4 }
800051f6:	088847                                    	bany	a8, a4, 80005202 <_Dint+0x22>
800051f9:	021652                                    	l16ui	a5, a6, 4
800051fc:	6c00d3a2958e                           	{ beqz	a5, 800052a9 <_Dint+0xc9>; l16ui	a10, a6, 2 }

80005202 <_Dint+0x22>:
80005202:	b494512d33ee                           	{ movi	a3, 0x433; add	a4, a3, a7 }
80005208:	c03340                                    	sub	a3, a3, a4
8000520b:	9005f279835e                           	{ sext	a7, a3, 15; movi	a5, 52 }
80005211:	a880007018378f                               	{ blti.w15	a7, 1, 800052b2 <_Dint+0xd2>; movi	a2, 0 }
80005218:	44c7b0d875de                           	{ blt	a5, a7, 80005253 <_Dint+0x73>; extui	a3, a3, 0, 4 }
8000521e:	ed9541                                    	l32r	a4, 80000874 (80000510 <sub$34290_13_8>)
80005221:	215470                                    	srai	a5, a7, 4
80005224:	a09540                                    	addx4	a9, a5, a4
80005227:	0998                                    	l32i.n	a9, a9, 0
80005229:	10c442                                    	addi	a4, a4, 16
8000522c:	b2a8dc3d43be                           	{ addx2	a3, a3, a4; addx2	a9, a9, a6 }
80005232:	6800442e330e                           	{ l16ui	a3, a3, 0; l16ui	a8, a9, 0 }
80005238:	103380                                    	and	a3, a3, a8
8000523b:	308830                                    	xor	a8, a8, a3
8000523e:	005982                                    	s16i	a8, a9, 0
80005241:	263526                                    	beqi	a5, 3, 8000526b <_Dint+0x8b>
80005244:	2c2526                                    	beqi	a5, 2, 80005274 <_Dint+0x94>
80005247:	93f5e71e05ae                           	{ beqi	a5, 1, 80005290 <_Dint+0xb0>; movi	a10, -1 }
8000524d:	bc03754050de                           	{ ret; movnez	a2, a10, a3 }

80005253 <_Dint+0x73>:
80005253:	ed81b1                                    	l32r	a11, 80000858 (8000 <xthals_release_major+0x5120>)
80005256:	025622                                    	s16i	a2, a6, 4
80005259:	015622                                    	s16i	a2, a6, 2
8000525c:	b121c46226ce                           	{ s16i	a2, a6, 0; and	a11, a8, a11 }
80005262:	0356b2                                    	s16i	a11, a6, 6
80005265:	97f3f744509e                           	{ ret; movi	a2, -1 }

8000526b <_Dint+0x8b>:
8000526b:	021642                                    	l16ui	a4, a6, 4
8000526e:	ba03c26026ce                           	{ s16i	a2, a6, 4; or	a3, a4, a3 }

80005274 <_Dint+0x94>:
80005274:	011652                                    	l16ui	a5, a6, 2
80005277:	001682                                    	l16ui	a8, a6, 0
8000527a:	f77c                                    	movi.n	a7, -1
8000527c:	ba01c27426ce                           	{ s16i	a2, a6, 2; or	a3, a5, a3 }
80005282:	ba20446026ce                           	{ s16i	a2, a6, 0; or	a8, a8, a3 }
80005288:	bc037346501e                           	{ ret; movnez	a2, a7, a8 }

8000528e <_Dint+0xae>:
	...

80005290 <_Dint+0xb0>:
80005290:	001682                                    	l16ui	a8, a6, 0
80005293:	f77c                                    	movi.n	a7, -1
80005295:	ba20446026ce                           	{ s16i	a2, a6, 0; or	a8, a8, a3 }
8000529b:	bc037346501e                           	{ ret; movnez	a2, a7, a8 }

800052a1 <_Dint+0xc1>:
800052a1:	399c                                    	beqz.n	a9, 800052b8 <_Dint+0xd8>

800052a3 <_Dint+0xc3>:
800052a3:	94027140509e                           	{ ret; movi	a2, 2 }

800052a9 <_Dint+0xc9>:
800052a9:	f55a56                                    	bnez	a10, 80005202 <_Dint+0x22>
800052ac:	0016b2                                    	l16ui	a11, a6, 0
800052af:	f4fb56                                    	bnez	a11, 80005202 <_Dint+0x22>

800052b2 <_Dint+0xd2>:
800052b2:	94027040509e                           	{ ret; movi	a2, 0 }

800052b8 <_Dint+0xd8>:
800052b8:	021622                                    	l16ui	a2, a6, 4
800052bb:	fe4256                                    	bnez	a2, 800052a3 <_Dint+0xc3>
800052be:	011632                                    	l16ui	a3, a6, 2
800052c1:	fde356                                    	bnez	a3, 800052a3 <_Dint+0xc3>
800052c4:	001642                                    	l16ui	a4, a6, 0
800052c7:	fd8456                                    	bnez	a4, 800052a3 <_Dint+0xc3>
800052ca:	94027044509e                           	{ ret; movi	a2, 1 }

800052d0 <_Dnorm>:
800052d0:	53c2403c824e                           	{ l16ui	a8, a2, 6; addi	a1, a1, -16 }
800052d6:	ed6091                                    	l32r	a9, 80000858 (8000 <xthals_release_major+0x5120>)
800052d9:	40d0c06a010e                           	{ s32i	a0, a1, 0; extui	a5, a8, 0, 4 }
800052df:	035252                                    	s16i	a5, a2, 6
800052e2:	b52054aa254e                           	{ beqz	a5, 80005398 <_Dnorm+0xc8>; and	a8, a8, a9 }
800052e8:	140c                                    	movi.n	a4, 1

800052ea <_Dnorm+0x1a>:
800052ea:	4cb5f6                                    	bgeui	a5, 16, 8000533a <_Dnorm+0x6a>
800052ed:	001262                                    	l16ui	a6, a2, 0
800052f0:	3e8076                                    	loop	a0, 80005332 <_Dnorm+0x62>
800052f3:	6801412a92ce                           	{ l16ui	a9, a2, 0; l16ui	a11, a2, 4 }
800052f9:	011272                                    	l16ui	a7, a2, 2
800052fc:	b98fdfb5f5ae                           	{ slli	a10, a5, 1; srli	a3, a6, 15 }
80005302:	aad77407bfde                           	{ srli	a0, a11, 15; slli	a6, a9, 1 }
80005308:	aad7f38f7fde                           	{ srli	a9, a7, 15; slli	a7, a7, 1 }
8000530e:	040a586a37be                           	{ or	a7, a7, a3; depbits	a10, a0, 0, 1 }
80005314:	09c2c576a24e                           	{ s16i	a10, a2, 6; depbits	a9, a11, 1, 16 }
8000531a:	6803c161924e                           	{ s16i	a9, a2, 4; l16ui	a5, a2, 6 }
80005320:	49d14071728e                           	{ s16i	a7, a2, 2; extui	a6, a6, 0, 16 }
80005326:	53f1c261620e                           	{ s16i	a6, a2, 0; addi	a4, a4, -1 }
8000532c:	bb5a62aa250e                           	{ bgeui	a5, 16, 8000533a <_Dnorm+0x6a>; sext	a4, a4, 15 }

80005332 <_Dnorm+0x62>:
80005332:	ffee86                                    	j	800052f0 <_Dnorm+0x20>

80005335 <_Dnorm+0x65>:
80005335:	00000000 42c5b600                                .....

8000533a <_Dnorm+0x6a>:
8000533a:	42c5b6                                    	bltui	a5, 32, 80005380 <_Dnorm+0xb0>
8000533d:	388076                                    	loop	a0, 80005379 <_Dnorm+0xa9>
80005340:	6801413a02ce                           	{ l16ui	a0, a2, 2; l16ui	a11, a2, 4 }
80005346:	6802413a328e                           	{ l16ui	a3, a2, 6; l16ui	a10, a2, 0 }
8000534c:	116510                                    	slli	a6, a5, 15
8000534f:	b997f08cb11e                           	{ srli	a9, a11, 1; srli	a7, a0, 1 }
80005355:	b996f0a4a1de                           	{ srli	a10, a10, 1; srli	a5, a3, 1 }
8000535b:	09f3c072528e                           	{ s16i	a5, a2, 6; depbits	a10, a0, 15, 16 }
80005361:	09f1c565a2ce                           	{ s16i	a10, a2, 0; depbits	a7, a11, 15, 16 }
80005367:	09804475728e                           	{ s16i	a7, a2, 2; depbits	a6, a9, 0, 15 }
8000536d:	5002c261620e                           	{ s16i	a6, a2, 4; addi	a4, a4, 1 }
80005373:	bb5862d2450e                           	{ bltui	a5, 32, 80005380 <_Dnorm+0xb0>; sext	a4, a4, 15 }

80005379 <_Dnorm+0xa9>:
80005379:	fff006                                    	j	8000533d <_Dnorm+0x6d>

8000537c <_Dnorm+0xac>:
8000537c:	00000000                                ....

80005380 <_Dnorm+0xb0>:
80005380:	40e1c041014e                           	{ l32i	a0, a1, 0; extui	a11, a5, 0, 4 }
80005386:	20b8b0                                    	or	a11, a8, a11
80005389:	ba034271b20e                           	{ s16i	a11, a2, 6; or	a2, a4, a4 }
8000538f:	56027044505e                           	{ ret; addi	a1, a1, 16 }

80005395 <_Dnorm+0xc5>:
80005395:	000000                                        ...

80005398 <_Dnorm+0xc8>:
80005398:	021202                                    	l16ui	a0, a2, 4
8000539b:	e0ac                                    	beqz.n	a0, 800053cd <_Dnorm+0xfd>
8000539d:	001262                                    	l16ui	a6, a2, 0

800053a0 <_Dnorm+0xd0>:
800053a0:	9400500141ee                           	{ movi	a4, 1; movi	a7, 0 }
800053a6:	208076                                    	loop	a0, 800053ca <_Dnorm+0xfa>
800053a9:	005272                                    	s16i	a7, a2, 0
800053ac:	68014139924e                           	{ l16ui	a9, a2, 2; l16ui	a5, a2, 4 }
800053b2:	53c24261920e                           	{ s16i	a9, a2, 4; addi	a4, a4, -16 }
800053b8:	bb504272620e                           	{ s16i	a6, a2, 2; sext	a4, a4, 15 }
800053be:	49d2c071524e                           	{ s16i	a5, a2, 6; extui	a5, a5, 0, 16 }
800053c4:	900e503125ae                           	{ bnez	a5, 800052ea <_Dnorm+0x1a>; movi	a6, 0 }

800053ca <_Dnorm+0xfa>:
800053ca:	fff606                                    	j	800053a6 <_Dnorm+0xd6>

800053cd <_Dnorm+0xfd>:
800053cd:	0112a2                                    	l16ui	a10, a2, 2
800053d0:	680e51d1caae                           	{ bnez	a10, 800053a0 <_Dnorm+0xd0>; l16ui	a6, a2, 0 }
800053d6:	fc6656                                    	bnez	a6, 800053a0 <_Dnorm+0xd0>
800053d9:	0108                                    	l32i.n	a0, a1, 0
800053db:	20b850                                    	or	a11, a8, a5
800053de:	90024074b28e                           	{ s16i	a11, a2, 6; movi	a2, 1 }
800053e4:	56027044505e                           	{ ret; addi	a1, a1, 16 }

800053ea <_Dnorm+0x11a>:
800053ea:	00000000 c1120000                                ......

800053f0 <_Dscale>:
800053f0:	f0c112                                    	addi	a1, a1, -16
800053f3:	0109                                    	s32i.n	a0, a1, 0
800053f5:	90001201032e                           	{ call0	80005404 <_Dscalex>; movi	a4, 4 }
800053fb:	0108                                    	l32i.n	a0, a1, 0
800053fd:	56027044505e                           	{ ret; addi	a1, a1, 16 }

80005403 <_Dscale+0x13>:
	...

80005404 <_Dscalex>:
80005404:	e0c112                                    	addi	a1, a1, -32
80005407:	016142                                    	s32i	a4, a1, 4
8000540a:	6803c179c18e                           	{ s32i	a12, a1, 12; l16ui	a6, a2, 6 }
80005410:	026102                                    	s32i	a0, a1, 8
80005413:	92f5c76cd10e                           	{ s32i	a13, a1, 16; movi	a0, 0x7ff }
80005419:	be34a92064ae                           	{ extui	a2, a6, 4, 11; or	a13, a2, a2 }
8000541f:	a24f32419402cf                               	{ beq.w15	a2, a0, 80005694 <_Dscalex+0x290>; or	a12, a3, a3 }
80005426:	286216                                    	beqz	a2, 800056b0 <_Dscalex+0x2ac>

80005429 <_Dscalex+0x25>:
80005429:	ba89e0183c8e                           	{ blti	a12, 1, 80005436 <_Dscalex+0x32>; sub	a3, a0, a2 }
8000542f:	e2040244b03c8f                               	{ bge.w15	a12, a3, 80005664 <_Dscalex+0x260>; nop }
80005436:	ca1c081488be                           	{ l32r	a8, 80000858 (8000 <xthals_release_major+0x5120>); neg	a4, a2 }
8000543c:	42034009d3c40f                               	{ blt.w15	a4, a12, 80005643 <_Dscalex+0x23f>; add	a0, a2, a12 }
80005443:	57f1d00870ee                           	{ movi	a7, 16; addi	a3, a0, -1 }
80005449:	00cc5b8186fe                           	{ and	a8, a6, a8; depbits	a7, a6, 0, 4 }
8000544f:	49d1406981ce                           	{ s32i	a8, a1, 0; extui	a6, a7, 0, 16 }
80005455:	93f245716d4e                           	{ s16i	a6, a13, 6; movi	a5, -54 }
8000545b:	a1c00010a235cf                               	{ bge.w15	a5, a3, 80005623 <_Dscalex+0x21f>; movi	a11, 0 }
80005462:	bb50d1bed31e                           	{ bgez	a3, 80005623 <_Dscalex+0x21f>; sext	a5, a3, 15 }
80005468:	97f1d002c16e                           	{ movi	a12, 1; movi	a9, -16 }
8000546e:	c24781ecc459cf                               	{ blt.w15	a9, a5, 800056cc <_Dscalex+0x2c8>; neg	a3, a3 }
80005475:	213430                                    	srai	a3, a3, 4
80005478:	5333c0                                    	max	a3, a3, a12
8000547b:	ba142da630ee                           	{ extui	a10, a3, 0, 3; or	a4, a11, a11 }
80005481:	b048419c1ade                           	{ loopgtz	a10, 800054ae <_Dscalex+0xaa>; srai	a0, a3, 3 }
80005487:	035db2                                    	s16i	a11, a13, 6
8000548a:	b81046297d0e                           	{ l16ui	a7, a13, 0; movnez	a4, a12, a4 }
80005490:	6801463e8d4e                           	{ l16ui	a8, a13, 2; l16ui	a9, a13, 4 }
80005496:	520042759d4e                           	{ s16i	a9, a13, 2; addi	a5, a5, 16 }
8000549c:	bb50c2668d0e                           	{ s16i	a8, a13, 0; sext	a5, a5, 15 }
800054a2:	ba13c3656d0e                           	{ s16i	a6, a13, 4; or	a7, a7, a4 }
800054a8:	940e284170ae                           	{ extui	a4, a7, 0, 16; movi	a6, 0 }
800054ae:	95a076                                    	loopgtz	a0, 80005547 <_Dscalex+0x143>
800054b1:	6801462c0d8e                           	{ l16ui	a0, a13, 0; l16ui	a2, a13, 4 }
800054b7:	b81046393d0e                           	{ l16ui	a3, a13, 2; movnez	a4, a12, a4 }
800054bd:	52024275bd4e                           	{ s16i	a11, a13, 6; addi	a5, a5, 16 }
800054c3:	940e286960ae                           	{ extui	a7, a6, 0, 16; movi	a6, 0 }
800054c9:	94005002806e                           	{ movi	a8, 0; movi	a9, 0 }
800054cf:	bf5ada06403e                           	{ or	a0, a0, a4; sext	a5, a5, 15 }
800054d5:	4dcfa82030ae                           	{ extui	a2, a3, 0, 16; extui	a3, a2, 0, 16 }
800054db:	49d240606d0e                           	{ s16i	a6, a13, 4; extui	a4, a0, 0, 16 }
800054e1:	b81046718d0e                           	{ s16i	a8, a13, 2; movnez	a4, a12, a4 }
800054e7:	ba0041619d0e                           	{ s16i	a9, a13, 0; or	a0, a2, a4 }
800054ed:	940e284100ae                           	{ extui	a4, a0, 0, 16; movi	a6, 0 }
800054f3:	bc103641050e                           	{ addi	a0, a5, 16; movnez	a4, a12, a4 }
800054f9:	ba057115801e                           	{ sext	a0, a0, 15; or	a2, a3, a4 }
800054ff:	4dd03040008e                           	{ addi	a0, a0, 16; extui	a4, a2, 0, 16 }
80005505:	b8147611801e                           	{ sext	a0, a0, 15; movnez	a4, a12, a4 }
8000550b:	560a580047be                           	{ or	a0, a7, a4; addi	a2, a0, 16 }
80005511:	49d47010821e                           	{ sext	a0, a2, 15; extui	a4, a0, 0, 16 }
80005517:	560458404c3e                           	{ movnez	a4, a12, a4; addi	a0, a0, 16 }
8000551d:	49d47011801e                           	{ sext	a0, a0, 15; extui	a4, a4, 0, 16 }
80005523:	560458404c3e                           	{ movnez	a4, a12, a4; addi	a0, a0, 16 }
80005529:	49d47011801e                           	{ sext	a0, a0, 15; extui	a4, a4, 0, 16 }
8000552f:	560458404c3e                           	{ movnez	a4, a12, a4; addi	a0, a0, 16 }
80005535:	49d47011801e                           	{ sext	a0, a0, 15; extui	a4, a4, 0, 16 }
8000553b:	560458404c3e                           	{ movnez	a4, a12, a4; addi	a0, a0, 16 }
80005541:	49d47059801e                           	{ sext	a5, a0, 15; extui	a4, a4, 0, 16 }

80005547 <_Dscalex+0x143>:
80005547:	600050                                    	neg	a0, a5
8000554a:	230080                                    	sext	a0, a0, 15
8000554d:	05c016                                    	beqz	a0, 800055ad <_Dscalex+0x1a9>

80005550 <_Dscalex+0x14c>:
80005550:	031d72                                    	l16ui	a7, a13, 6
80005553:	6802462e2dce                           	{ l16ui	a2, a13, 4; l16ui	a11, a13, 0 }
80005559:	6c00d60ea02e                           	{ movi	a10, 16; l16ui	a8, a13, 2 }
8000555f:	940e58b50a7e                           	{ sub	a10, a10, a0; movi	a5, 1 }
80005565:	bc10429d3a0e                           	{ ssl	a10; movnez	a4, a5, a4 }
8000556b:	bdc1f5d6f81e                           	{ sll	a12, a8; sll	a3, a11 }
80005571:	be03c29830ce                           	{ ssr	a0; or	a3, a4, a3 }
80005577:	cc21c19a3ace                           	{ ssl	a10; sra	a11, a11 }
8000557d:	bdead9aacb3e                           	{ or	a11, a11, a12; sll	a9, a2 }
80005583:	c080c060bd4e                           	{ s16i	a11, a13, 0; ssr	a0 }
80005589:	cc20419a3a0e                           	{ ssl	a10; sra	a8, a8 }
8000558f:	bddadb82983e                           	{ or	a8, a8, a9; sll	a5, a6 }
80005595:	c080c0708d4e                           	{ s16i	a8, a13, 2; ssr	a0 }
8000559b:	cc15713122de                           	{ sra	a2, a2; sra	a6, a7 }
800055a1:	ba0341716d4e                           	{ s16i	a6, a13, 6; or	a2, a2, a5 }
800055a7:	49d240602dce                           	{ s16i	a2, a13, 4; extui	a4, a3, 0, 16 }

800055ad <_Dscalex+0x1a9>:
800055ad:	7000402d3dce                           	{ l16ui	a3, a13, 0; l32i	a7, a1, 0 }
800055b3:	1188                                    	l32i.n	a8, a1, 4
800055b5:	190c                                    	movi.n	a9, 1
800055b7:	540ad96467fe                           	{ or	a6, a7, a6; addi	a3, a3, 1 }
800055bd:	4ddd3841a8be                           	{ addi	a10, a8, -4; extui	a6, a6, 0, 16 }
800055c3:	b3a244766d8e                           	{ s16i	a6, a13, 6; moveqz	a8, a9, a10 }
800055c9:	4dc1d02804ce                           	{ beqz	a4, 800055fd <_Dscalex+0x1f9>; extui	a3, a3, 0, 16 }
800055cf:	a8ac                                    	beqz.n	a8, 800055fd <_Dscalex+0x1f9>
800055d1:	e904026420088f                               	{ beqi.w15	a8, 2, 8000570d <_Dscalex+0x309>; nop }
800055d8:	e944001428088f                               	{ beqi.w15	a8, 3, 80005720 <_Dscalex+0x31c>; nop }
800055df:	ec9e01                                    	l32r	a0, 80000858 (8000 <xthals_release_major+0x5120>)
800055e2:	e0c4027cb8408f                               	{ bltu.w15	a0, a4, 800056e5 <_Dscalex+0x2e1>; nop }
800055e9:	ec9b21                                    	l32r	a2, 80000858 (8000 <xthals_release_major+0x5120>)
800055ec:	e0c4022c90248f                               	{ beq.w15	a4, a2, 800056db <_Dscalex+0x2d7>; nop }

800055f3 <_Dscalex+0x1ef>:
800055f3:	000c                                    	movi.n	a0, 0

800055f5 <_Dscalex+0x1f1>:
800055f5:	408c                                    	beqz.n	a0, 800055fd <_Dscalex+0x1f9>

800055f7 <_Dscalex+0x1f3>:
800055f7:	005d32                                    	s16i	a3, a13, 0
800055fa:	13b316                                    	beqz	a3, 80005739 <_Dscalex+0x335>

800055fd <_Dscalex+0x1f9>:
800055fd:	0148                                    	l32i.n	a4, a1, 0
800055ff:	740f50fc2f2e                           	{ movi	a2, -1; l32i	a0, a1, 8 }
80005605:	7403c007640e                           	{ bne	a4, a6, 8000561b <_Dscalex+0x217>; l32i	a12, a1, 12 }
8000560b:	021d52                                    	l16ui	a5, a13, 4
8000560e:	95cc                                    	bnez.n	a5, 8000561b <_Dscalex+0x217>
80005610:	011d62                                    	l16ui	a6, a13, 2
80005613:	46cc                                    	bnez.n	a6, 8000561b <_Dscalex+0x217>
80005615:	001d72                                    	l16ui	a7, a13, 0
80005618:	09d716                                    	beqz	a7, 800056b9 <_Dscalex+0x2b5>
8000561b:	41d8                                    	l32i.n	a13, a1, 16
8000561d:	54427044505e                           	{ ret; addi	a1, a1, 32 }

80005623 <_Dscalex+0x21f>:
80005623:	020c                                    	movi.n	a2, 0
80005625:	7003c067bd0e                           	{ s16i	a11, a13, 4; l32i	a12, a1, 12 }
8000562b:	70014074bd0e                           	{ s16i	a11, a13, 2; l32i	a0, a1, 8 }
80005631:	70004066bd0e                           	{ s16i	a11, a13, 0; l32i	a8, a1, 0 }
80005637:	701240778d4e                           	{ s16i	a8, a13, 6; l32i	a13, a1, 16 }
8000563d:	54427044505e                           	{ ret; addi	a1, a1, 32 }

80005643 <_Dscalex+0x23f>:
80005643:	ec8191                                    	l32r	a9, 80000848 (ffff800f <_memmap_cacheattr_unused_mask+0xe810f>)
80005646:	93ffdfb4c0ae                           	{ slli	a10, a0, 4; movi	a2, -1 }
8000564c:	700d588c963e                           	{ and	a9, a6, a9; l32i	a0, a1, 8 }
80005652:	740bd88fa93e                           	{ or	a9, a9, a10; l32i	a12, a1, 12 }
80005658:	701240779d4e                           	{ s16i	a9, a13, 6; l32i	a13, a1, 16 }
8000565e:	54427044505e                           	{ ret; addi	a1, a1, 32 }

80005664 <_Dscalex+0x260>:
80005664:	ec85b1                                    	l32r	a11, 80000878 (80000560 <_Inf>)
80005667:	c0c0a0000b5e                           	{ pdx_ls_64_i	v0, a11, 0; nop }
8000566d:	d0c80c8167502f                               	{ nop; nop; neg.d	v1, v0 }
80005674:	04af60                                    	extui	a10, a6, 15, 1
80005677:	c0c4d808a05e                           	{ movnez.s	v0, v1, a10; nop }
8000567d:	2108                                    	l32i.n	a0, a1, 8
8000567f:	90024054c18e                           	{ l32i	a12, a1, 12; movi	a2, 1 }
80005685:	701028070d4e                           	{ pdx_ss_64_i	v0, a13, 0; l32i	a13, a1, 16 }
8000568b:	54427044505e                           	{ ret; addi	a1, a1, 32 }

80005691 <_Dscalex+0x28d>:
80005691:	000000                                        ...

80005694 <_Dscalex+0x290>:
80005694:	700728c4602e                           	{ extui	a12, a6, 0, 4; l32i	a0, a1, 8 }
8000569a:	94005140dc8e                           	{ beqz	a12, 800056eb <_Dscalex+0x2e7>; movi	a2, 2 }

800056a0 <_Dscalex+0x29c>:
800056a0:	70124057c14e                           	{ l32i	a12, a1, 12; l32i	a13, a1, 16 }
800056a6:	54427044505e                           	{ ret; addi	a1, a1, 32 }

800056ac <_Dscalex+0x2a8>:
800056ac:	00000000                                ....

800056b0 <_Dscalex+0x2ac>:
800056b0:	be0f16ff077e                           	{ call0	800052d0 <_Dnorm>; or	a2, a13, a13 }
800056b6:	7612a6                                    	blti	a2, 1, 80005730 <_Dscalex+0x32c>

800056b9 <_Dscalex+0x2b5>:
800056b9:	2108                                    	l32i.n	a0, a1, 8
800056bb:	020c                                    	movi.n	a2, 0
800056bd:	70124057c14e                           	{ l32i	a12, a1, 12; l32i	a13, a1, 16 }
800056c3:	54427044505e                           	{ ret; addi	a1, a1, 32 }

800056c9 <_Dscalex+0x2c5>:
800056c9:	000000                                        ...

800056cc <_Dscalex+0x2c8>:
800056cc:	600050                                    	neg	a0, a5
800056cf:	230080                                    	sext	a0, a0, 15
800056d2:	08d016                                    	beqz	a0, 80005763 <_Dscalex+0x35f>
800056d5:	be1e15f677de                           	{ j	80005550 <_Dscalex+0x14c>; or	a4, a11, a11 }

800056db <_Dscalex+0x2d7>:
800056db:	001d22                                    	l16ui	a2, a13, 0
800056de:	e7340c4410028f                               	{ bbci.w15	a2, 0, 800055f3 <_Dscalex+0x1ef>; nop }

800056e5 <_Dscalex+0x2e1>:
800056e5:	940e10fc0c1e                           	{ j	800055f5 <_Dscalex+0x1f1>; movi	a0, 1 }

800056eb <_Dscalex+0x2e7>:
800056eb:	021d32                                    	l16ui	a3, a13, 4
800056ee:	fae356                                    	bnez	a3, 800056a0 <_Dscalex+0x29c>
800056f1:	011d42                                    	l16ui	a4, a13, 2
800056f4:	fa8456                                    	bnez	a4, 800056a0 <_Dscalex+0x29c>
800056f7:	001d52                                    	l16ui	a5, a13, 0
800056fa:	fa2556                                    	bnez	a5, 800056a0 <_Dscalex+0x29c>
800056fd:	2108                                    	l32i.n	a0, a1, 8
800056ff:	120c                                    	movi.n	a2, 1
80005701:	70124057c14e                           	{ l32i	a12, a1, 12; l32i	a13, a1, 16 }
80005707:	54427044505e                           	{ ret; addi	a1, a1, 32 }

8000570d <_Dscalex+0x309>:
8000570d:	0188                                    	l32i.n	a8, a1, 0
8000570f:	94005000712e                           	{ movi	a7, 1; movi	a0, 0 }
80005715:	b3801306100e                           	{ j	80005729 <_Dscalex+0x325>; moveqz	a0, a7, a8 }

8000571b <_Dscalex+0x317>:
8000571b:	00000000 0591ee00                                .....

80005720 <_Dscalex+0x31c>:
80005720:	be00530591ee                           	{ movi	a9, 1; or	a0, a7, a7 }
80005726:	930970                                    	movnez	a0, a9, a7

80005729 <_Dscalex+0x325>:
80005729:	eca056                                    	bnez	a0, 800055f7 <_Dscalex+0x1f3>
8000572c:	ffb346                                    	j	800055fd <_Dscalex+0x1f9>

8000572f <_Dscalex+0x32b>:
	...

80005730 <_Dscalex+0x32c>:
80005730:	ffa702                                    	movi	a0, 0x7ff
80005733:	6c0f96d5f29e                           	{ j	80005429 <_Dscalex+0x25>; l16ui	a6, a13, 6 }

80005739 <_Dscalex+0x335>:
80005739:	011da2                                    	l16ui	a10, a13, 2
8000573c:	aa1b                                    	addi.n	a10, a10, 1
8000573e:	f4a0a0                                    	extui	a10, a10, 0, 16
80005741:	015da2                                    	s16i	a10, a13, 2
80005744:	eb5a56                                    	bnez	a10, 800055fd <_Dscalex+0x1f9>
80005747:	021db2                                    	l16ui	a11, a13, 4
8000574a:	bb1b                                    	addi.n	a11, a11, 1
8000574c:	f4b0b0                                    	extui	a11, a11, 0, 16
8000574f:	025db2                                    	s16i	a11, a13, 4
80005752:	680fd6a57bae                           	{ bnez	a11, 800055fd <_Dscalex+0x1f9>; l16ui	a6, a13, 6 }
80005758:	661b                                    	addi.n	a6, a6, 1
8000575a:	f46060                                    	extui	a6, a6, 0, 16
8000575d:	035d62                                    	s16i	a6, a13, 6
80005760:	ffa646                                    	j	800055fd <_Dscalex+0x1f9>

80005763 <_Dscalex+0x35f>:
80005763:	206860                                    	or	a6, a8, a6
80005766:	f46060                                    	extui	a6, a6, 0, 16
80005769:	035d62                                    	s16i	a6, a13, 6
8000576c:	ffa346                                    	j	800055fd <_Dscalex+0x1f9>

8000576f <_Dscalex+0x36b>:
	...

80005770 <_exit>:
80005770:	f0c112                                    	addi	a1, a1, -16
80005773:	006122                                    	s32i	a2, a1, 0
80005776:	016102                                    	s32i	a0, a1, 4
80005779:	016a45                                    	call0	80006e20 <xthal_dcache_all_writeback>
8000577c:	002132                                    	l32i	a3, a1, 0
8000577f:	0020d0                                    	extw
80005782:	1108                                    	l32i.n	a0, a1, 4
80005784:	120c                                    	movi.n	a2, 1
80005786:	005100                                    	simcall
80005789:	56027044505e                           	{ ret; addi	a1, a1, 16 }

8000578f <_exit+0x1f>:
	...

80005790 <_sbrk_r>:
80005790:	ec3b71                                    	l32r	a7, 8000087c (80007b2c <heap_end$8693_1_3>)
80005793:	ec3b41                                    	l32r	a4, 80000880 (8000752c <os_flag_144>)
80005796:	ec3ba1                                    	l32r	a10, 80000884 (800089a8 <_bss_end>)
80005799:	70004345448e                           	{ l32i	a4, a4, 0; l32i	a6, a7, 0 }
8000579f:	900a0ed25e7e                           	{ l32r	a5, 800006d8 (90000000 <__stack>); movi	a9, 12 }
800057a5:	b391550974ae                           	{ bnez	a4, 800057c0 <_sbrk_r+0x30>; moveqz	a6, a10, a6 }
800057ab:	018d                                    	mov.n	a8, a1
800057ad:	b481b3d05ace                           	{ bgeu	a10, a5, 800057c2 <_sbrk_r+0x32>; add	a3, a6, a3 }
800057b3:	0bb837                                    	bgeu	a8, a3, 800057c2 <_sbrk_r+0x32>

800057b6 <_sbrk_r+0x26>:
800057b6:	0769                                    	s32i.n	a6, a7, 0
800057b8:	0299                                    	s32i.n	a9, a2, 0
800057ba:	97f3f744509e                           	{ ret; movi	a2, -1 }

800057c0 <_sbrk_r+0x30>:
800057c0:	363a                                    	add.n	a3, a6, a3

800057c2 <_sbrk_r+0x32>:
800057c2:	ec3181                                    	l32r	a8, 80000888 (90000000 <__stack>)
800057c5:	edb387                                    	bgeu	a3, a8, 800057b6 <_sbrk_r+0x26>
800057c8:	0739                                    	s32i.n	a3, a7, 0
800057ca:	be037341509e                           	{ ret; or	a2, a6, a6 }

800057d0 <_xtos_core_shutoff_nw>:
800057d0:	ec2f51                                    	l32r	a5, 8000088c (800058c8 <_xtos_core_save_nw>)
800057d3:	00bd                                    	mov.n	a11, a0
800057d5:	0002c6                                    	j	800057e4 <_xtos_core_shutoff+0xc>

800057d8 <_xtos_core_shutoff>:
800057d8:	ec2e51                                    	l32r	a5, 80000890 (80005860 <_xtos_core_save_entry>)
800057db:	ec2eb1                                    	l32r	a11, 80000894 (800057e1 <_xtos_core_shutoff+0x9>)
800057de:	000086                                    	j	800057e4 <_xtos_core_shutoff+0xc>

800057e1 <_xtos_core_shutoff+0x9>:
800057e1:	f00d                                    	ret.n

800057e3 <_xtos_core_shutoff+0xb>:
	...

800057e4 <_xtos_core_shutoff+0xc>:
800057e4:	ec2d31                                    	l32r	a3, 80000898 (103024 <_DoubleExceptionVector_text_end+0x2a7c>)
800057e7:	406330                                    	rer	a3, a3
800057ea:	0ee347                                    	bbsi	a3, 4, 800057fc <_xtos_core_shutoff+0x24>
800057ed:	130c                                    	movi.n	a3, 1
800057ef:	202230                                    	or	a2, a2, a3
800057f2:	ec2a31                                    	l32r	a3, 8000089c (80007b30 <_xtos_pso_savearea>)
800057f5:	ec2a41                                    	l32r	a4, 800008a0 (80005804 <_xtos_core_shutoff_aftersave>)
800057f8:	0005a0                                    	jx	a5

800057fb <_xtos_core_shutoff+0x23>:
	...

800057fc <_xtos_core_shutoff+0x24>:
800057fc:	120c                                    	movi.n	a2, 1
800057fe:	000ba0                                    	jx	a11

80005801 <_xtos_core_shutoff+0x29>:
80005801:	000000                                        ...

80005804 <_xtos_core_shutoff_aftersave>:
80005804:	ec2841                                    	l32r	a4, 800008a4 (103020 <_DoubleExceptionVector_text_end+0x2a78>)
80005807:	406470                                    	rer	a7, a4
8000580a:	01a062                                    	movi	a6, 1
8000580d:	207760                                    	or	a7, a7, a6
80005810:	407470                                    	wer	a7, a4
80005813:	002000                                    	isync
80005816:	0020d0                                    	extw
80005819:	ec1f41                                    	l32r	a4, 80000898 (103024 <_DoubleExceptionVector_text_end+0x2a7c>)
8000581c:	02a022                                    	movi	a2, 2
8000581f:	406460                                    	rer	a6, a4
80005822:	0fe647                                    	bbsi	a6, 4, 80005835 <_xtos_core_shutoff_aftersave+0x31>
80005825:	ec2021                                    	l32r	a2, 800008a8 (0 <_Level2HandlerLabel>)
80005828:	004216                                    	beqz	a2, 80005830 <_xtos_core_shutoff_aftersave+0x2c>
8000582b:	0002c0                                    	callx0	a2
8000582e:	32cc                                    	bnez.n	a2, 80005835 <_xtos_core_shutoff_aftersave+0x31>

80005830 <_xtos_core_shutoff_aftersave+0x2c>:
80005830:	007f00                                    	waiti	15
80005833:	320c                                    	movi.n	a2, 3

80005835 <_xtos_core_shutoff_aftersave+0x31>:
80005835:	1308                                    	l32i.n	a0, a3, 4
80005837:	ec1b41                                    	l32r	a4, 800008a4 (103020 <_DoubleExceptionVector_text_end+0x2a78>)
8000583a:	132352                                    	l32i	a5, a3, 76
8000583d:	407450                                    	wer	a5, a4
80005840:	0865c7                                    	bbci	a5, 12, 8000584c <_xtos_core_shutoff_aftersave+0x48>
80005843:	ec1571                                    	l32r	a7, 80000898 (103024 <_DoubleExceptionVector_text_end+0x2a7c>)

80005846 <_xtos_core_shutoff_aftersave+0x42>:
80005846:	406760                                    	rer	a6, a7
80005849:	f966c7                                    	bbci	a6, 12, 80005846 <_xtos_core_shutoff_aftersave+0x42>

8000584c <_xtos_core_shutoff_aftersave+0x48>:
8000584c:	302352                                    	l32i	a5, a3, 192
8000584f:	136150                                    	wsr.memctl	a5
80005852:	0329                                    	s32i.n	a2, a3, 0
80005854:	007342                                    	dhwb	a3, 0
80005857:	f00d                                    	ret.n

80005859 <_xtos_core_shutoff_aftersave+0x55>:
80005859:	00000000 06000000                                .......

80005860 <_xtos_core_save_entry>:
80005860:	000006                                    	j	80005864 <_xtos_core_save>

80005863 <_xtos_core_save_entry+0x3>:
	...

80005864 <_xtos_core_save>:
80005864:	3309                                    	s32i.n	a0, a3, 12
80005866:	4319                                    	s32i.n	a1, a3, 16
80005868:	5329                                    	s32i.n	a2, a3, 20
8000586a:	7349                                    	s32i.n	a4, a3, 28
8000586c:	f3c9                                    	s32i.n	a12, a3, 60
8000586e:	1063d2                                    	s32i	a13, a3, 64
80005871:	1163e2                                    	s32i	a14, a3, 68
80005874:	1263f2                                    	s32i	a15, a3, 72
80005877:	000146                                    	j	80005880 <_xtos_core_save+0x1c>

8000587a <_xtos_core_save+0x16>:
8000587a:	00000000 6f400000                                ......

80005880 <_xtos_core_save+0x1c>:
80005880:	006f40                                    	rsil	a4, 15
80005883:	166342                                    	s32i	a4, a3, 88
80005886:	ec0941                                    	l32r	a4, 800008ac (0 <_Level2HandlerLabel>)
80005889:	249c                                    	beqz.n	a4, 8000589f <_xtos_core_save+0x3b>
8000588b:	03dd                                    	mov.n	a13, a3
8000588d:	02cd                                    	mov.n	a12, a2
8000588f:	28c332                                    	addi	a3, a3, 40
80005892:	05d332                                    	addmi	a3, a3, 0x500
80005895:	ec0501                                    	l32r	a0, 800008ac (0 <_Level2HandlerLabel>)
80005898:	0000c0                                    	callx0	a0
8000589b:	0d3d                                    	mov.n	a3, a13
8000589d:	0c2d                                    	mov.n	a2, a12

8000589f <_xtos_core_save+0x3b>:
8000589f:	03ea50                                    	rsr.ccount	a5
800058a2:	03e260                                    	rsr.interrupt	a6
800058a5:	356362                                    	s32i	a6, a3, 212
800058a8:	316352                                    	s32i	a5, a3, 196
800058ab:	000885                                    	call0	80005934 <_xtos_core_save_common>
800058ae:	3308                                    	l32i.n	a0, a3, 12
800058b0:	4318                                    	l32i.n	a1, a3, 16
800058b2:	f3c8                                    	l32i.n	a12, a3, 60
800058b4:	1023d2                                    	l32i	a13, a3, 64
800058b7:	1123e2                                    	l32i	a14, a3, 68
800058ba:	1223f2                                    	l32i	a15, a3, 72
800058bd:	162342                                    	l32i	a4, a3, 88
800058c0:	13e640                                    	wsr.ps	a4
800058c3:	002010                                    	rsync
800058c6:	f00d                                    	ret.n

800058c8 <_xtos_core_save_nw>:
800058c8:	3309                                    	s32i.n	a0, a3, 12
800058ca:	4319                                    	s32i.n	a1, a3, 16
800058cc:	5329                                    	s32i.n	a2, a3, 20
800058ce:	7349                                    	s32i.n	a4, a3, 28
800058d0:	8359                                    	s32i.n	a5, a3, 32
800058d2:	9369                                    	s32i.n	a6, a3, 36
800058d4:	a379                                    	s32i.n	a7, a3, 40
800058d6:	000186                                    	j	800058e0 <_xtos_core_save_nw+0x18>

800058d9 <_xtos_core_save_nw+0x11>:
800058d9:	00000000 40000000                                .......

800058e0 <_xtos_core_save_nw+0x18>:
800058e0:	006f40                                    	rsil	a4, 15
800058e3:	166342                                    	s32i	a4, a3, 88
800058e6:	03ea50                                    	rsr.ccount	a5
800058e9:	03e260                                    	rsr.interrupt	a6
800058ec:	356362                                    	s32i	a6, a3, 212
800058ef:	316352                                    	s32i	a5, a3, 196
800058f2:	b389                                    	s32i.n	a8, a3, 44
800058f4:	c399                                    	s32i.n	a9, a3, 48
800058f6:	d3a9                                    	s32i.n	a10, a3, 52
800058f8:	e3b9                                    	s32i.n	a11, a3, 56
800058fa:	f3c9                                    	s32i.n	a12, a3, 60
800058fc:	1063d2                                    	s32i	a13, a3, 64
800058ff:	1163e2                                    	s32i	a14, a3, 68
80005902:	1263f2                                    	s32i	a15, a3, 72
80005905:	010c                                    	movi.n	a1, 0
80005907:	0002c5                                    	call0	80005934 <_xtos_core_save_common>
8000590a:	b388                                    	l32i.n	a8, a3, 44
8000590c:	c398                                    	l32i.n	a9, a3, 48
8000590e:	d3a8                                    	l32i.n	a10, a3, 52
80005910:	e3b8                                    	l32i.n	a11, a3, 56
80005912:	f3c8                                    	l32i.n	a12, a3, 60
80005914:	1023d2                                    	l32i	a13, a3, 64
80005917:	1123e2                                    	l32i	a14, a3, 68
8000591a:	1223f2                                    	l32i	a15, a3, 72
8000591d:	3308                                    	l32i.n	a0, a3, 12
8000591f:	4318                                    	l32i.n	a1, a3, 16
80005921:	7348                                    	l32i.n	a4, a3, 28
80005923:	8358                                    	l32i.n	a5, a3, 32
80005925:	9368                                    	l32i.n	a6, a3, 36
80005927:	162372                                    	l32i	a7, a3, 88
8000592a:	13e670                                    	wsr.ps	a7
8000592d:	002010                                    	rsync
80005930:	a378                                    	l32i.n	a7, a3, 40
80005932:	f00d                                    	ret.n

80005934 <_xtos_core_save_common>:
80005934:	03f050                                    	rsr.ccompare0	a5
80005937:	326352                                    	s32i	a5, a3, 200
8000593a:	03f150                                    	rsr.ccompare1	a5
8000593d:	336352                                    	s32i	a5, a3, 204
80005940:	1309                                    	s32i.n	a0, a3, 4
80005942:	03b150                                    	rsr.epc1	a5
80005945:	156352                                    	s32i	a5, a3, 84
80005948:	03d150                                    	rsr.excsave1	a5
8000594b:	176352                                    	s32i	a5, a3, 92
8000594e:	03c050                                    	rsr.depc	a5
80005951:	186352                                    	s32i	a5, a3, 96
80005954:	030350                                    	rsr.sar	a5
80005957:	146352                                    	s32i	a5, a3, 80
8000595a:	ebd241                                    	l32r	a4, 800008a4 (103020 <_DoubleExceptionVector_text_end+0x2a78>)
8000595d:	00a162                                    	movi	a6, 0x100
80005960:	406470                                    	rer	a7, a4
80005963:	136372                                    	s32i	a7, a3, 76
80005966:	176207                                    	bbci	a2, 0, 80005981 <_xtos_core_save_common+0x4d>
80005969:	205760                                    	or	a5, a7, a6
8000596c:	305560                                    	xor	a5, a5, a6
8000596f:	106260                                    	and	a6, a2, a6
80005972:	205560                                    	or	a5, a5, a6
80005975:	ebce61                                    	l32r	a6, 800008b0 (ffffefff <_memmap_cacheattr_unused_mask+0xef0ff>)
80005978:	206260                                    	or	a6, a2, a6
8000597b:	106560                                    	and	a6, a5, a6
8000597e:	407460                                    	wer	a6, a4

80005981 <_xtos_core_save_common+0x4d>:
80005981:	03b250                                    	rsr.epc2	a5
80005984:	196352                                    	s32i	a5, a3, 100
80005987:	03c250                                    	rsr.eps2	a5
8000598a:	1f6352                                    	s32i	a5, a3, 124
8000598d:	03d250                                    	rsr.excsave2	a5
80005990:	256352                                    	s32i	a5, a3, 148
80005993:	03b350                                    	rsr.epc3	a5
80005996:	1a6352                                    	s32i	a5, a3, 104
80005999:	03c350                                    	rsr.eps3	a5
8000599c:	206352                                    	s32i	a5, a3, 128
8000599f:	03d350                                    	rsr.excsave3	a5
800059a2:	266352                                    	s32i	a5, a3, 152
800059a5:	03b450                                    	rsr.epc4	a5
800059a8:	1b6352                                    	s32i	a5, a3, 108
800059ab:	03c450                                    	rsr.eps4	a5
800059ae:	216352                                    	s32i	a5, a3, 132
800059b1:	03d450                                    	rsr.excsave4	a5
800059b4:	276352                                    	s32i	a5, a3, 156
800059b7:	03b550                                    	rsr.epc5	a5
800059ba:	1c6352                                    	s32i	a5, a3, 112
800059bd:	03c550                                    	rsr.eps5	a5
800059c0:	226352                                    	s32i	a5, a3, 136
800059c3:	03d550                                    	rsr.excsave5	a5
800059c6:	286352                                    	s32i	a5, a3, 160
800059c9:	03b650                                    	rsr.epc6	a5
800059cc:	1d6352                                    	s32i	a5, a3, 116
800059cf:	03c650                                    	rsr.eps6	a5
800059d2:	236352                                    	s32i	a5, a3, 140
800059d5:	03d650                                    	rsr.excsave6	a5
800059d8:	296352                                    	s32i	a5, a3, 164
800059db:	03b750                                    	rsr.epc7	a5
800059de:	1e6352                                    	s32i	a5, a3, 120
800059e1:	03c750                                    	rsr.eps7	a5
800059e4:	246352                                    	s32i	a5, a3, 144
800059e7:	03d750                                    	rsr.excsave7	a5
800059ea:	2a6352                                    	s32i	a5, a3, 168
800059ed:	030050                                    	rsr.lbeg	a5
800059f0:	2c6352                                    	s32i	a5, a3, 176
800059f3:	030150                                    	rsr.lend	a5
800059f6:	2d6352                                    	s32i	a5, a3, 180
800059f9:	030250                                    	rsr.lcount	a5
800059fc:	2b6352                                    	s32i	a5, a3, 172
800059ff:	03e750                                    	rsr.vecbase	a5
80005a02:	2e6352                                    	s32i	a5, a3, 184
80005a05:	050c                                    	movi.n	a5, 0
80005a07:	612850                                    	xsr.prefctl	a5
80005a0a:	2f6352                                    	s32i	a5, a3, 188
80005a0d:	036150                                    	rsr.memctl	a5
80005a10:	306352                                    	s32i	a5, a3, 192
80005a13:	03e450                                    	rsr.intenable	a5
80005a16:	346352                                    	s32i	a5, a3, 208
80005a19:	03ec50                                    	rsr.icount	a5
80005a1c:	366352                                    	s32i	a5, a3, 216
80005a1f:	03ed50                                    	rsr.icountlevel	a5
80005a22:	376352                                    	s32i	a5, a3, 220
80005a25:	03e950                                    	rsr.debugcause	a5
80005a28:	386352                                    	s32i	a5, a3, 224
80005a2b:	036050                                    	rsr.ibreakenable	a5
80005a2e:	3f6352                                    	s32i	a5, a3, 252
80005a31:	038050                                    	rsr.ibreaka0	a5
80005a34:	3d6352                                    	s32i	a5, a3, 244
80005a37:	038150                                    	rsr.ibreaka1	a5
80005a3a:	3e6352                                    	s32i	a5, a3, 248
80005a3d:	03a050                                    	rsr.dbreakc0	a5
80005a40:	396352                                    	s32i	a5, a3, 228
80005a43:	039050                                    	rsr.dbreaka0	a5
80005a46:	3b6352                                    	s32i	a5, a3, 236
80005a49:	03a150                                    	rsr.dbreakc1	a5
80005a4c:	3a6352                                    	s32i	a5, a3, 232
80005a4f:	039150                                    	rsr.dbreaka1	a5
80005a52:	3c6352                                    	s32i	a5, a3, 240
80005a55:	03f450                                    	rsr.misc0	a5
80005a58:	406352                                    	s32i	a5, a3, 0x100
80005a5b:	03f550                                    	rsr.misc1	a5
80005a5e:	416352                                    	s32i	a5, a3, 0x104
80005a61:	036a50                                    	rsr.mepc	a5
80005a64:	426352                                    	s32i	a5, a3, 0x108
80005a67:	036b50                                    	rsr.meps	a5
80005a6a:	436352                                    	s32i	a5, a3, 0x10c
80005a6d:	036c50                                    	rsr.mesave	a5
80005a70:	446352                                    	s32i	a5, a3, 0x110
80005a73:	036d50                                    	rsr.mesr	a5
80005a76:	456352                                    	s32i	a5, a3, 0x114
80005a79:	036e50                                    	rsr.mecr	a5
80005a7c:	466352                                    	s32i	a5, a3, 0x118
80005a7f:	036f50                                    	rsr.mevaddr	a5
80005a82:	476352                                    	s32i	a5, a3, 0x11c
80005a85:	40c342                                    	addi	a4, a3, 64
80005a88:	05d442                                    	addmi	a4, a4, 0x500
80005a8b:	e35e70                                    	rur.threadptr	a5
80005a8e:	0459                                    	s32i.n	a5, a4, 0
80005a90:	030450                                    	rsr.br	a5
80005a93:	1459                                    	s32i.n	a5, a4, 4
80005a95:	03e050                                    	rsr.cpenable	a5
80005a98:	486352                                    	s32i	a5, a3, 0x120
80005a9b:	f67c                                    	movi.n	a6, -1
80005a9d:	13e060                                    	wsr.cpenable	a6
80005aa0:	002010                                    	rsync
80005aa3:	10c442                                    	addi	a4, a4, 16
80005aa6:	0157bede8ae0010785e105c0cd81363f 	{ pdx_movau32_c_l	a6, c0; nop; nop; nop }
80005ab6:	0157bede8ae0010785e105c0cd81253f 	{ pdx_movau32_c_h	a5, c0; nop; nop; nop }
80005ac6:	2469                                    	s32i.n	a6, a4, 8
80005ac8:	3459                                    	s32i.n	a5, a4, 12
80005aca:	0157bedeaae0010785e105c0cd81363f 	{ pdx_movau32_c_l	a6, c1; nop; nop; nop }
80005ada:	0157bedeaae0010785e105c0cd81253f 	{ pdx_movau32_c_h	a5, c1; nop; nop; nop }
80005aea:	4469                                    	s32i.n	a6, a4, 16
80005aec:	5459                                    	s32i.n	a5, a4, 20
80005aee:	0157bedecae0010785e105c0cd81363f 	{ pdx_movau32_c_l	a6, c2; nop; nop; nop }
80005afe:	0157bedecae0010785e105c0cd81253f 	{ pdx_movau32_c_h	a5, c2; nop; nop; nop }
80005b0e:	6469                                    	s32i.n	a6, a4, 24
80005b10:	7459                                    	s32i.n	a5, a4, 28
80005b12:	0157bedeeae0010785e105c0cd81363f 	{ pdx_movau32_c_l	a6, c3; nop; nop; nop }
80005b22:	0157bedeeae0010785e105c0cd81253f 	{ pdx_movau32_c_h	a5, c3; nop; nop; nop }
80005b32:	8469                                    	s32i.n	a6, a4, 32
80005b34:	9459                                    	s32i.n	a5, a4, 36
80005b36:	0157bede8ae0010285e045c0cd01343f 	{ pdx_s_align_i	u0, a4, 48; nop; nop; nop }
80005b46:	0157bede8ae0010285e045c2cd01443f 	{ pdx_s_align_i	u1, a4, 64; nop; nop; nop }
80005b56:	0157bede8ae0010285e045c4cd01543f 	{ pdx_s_align_i	u2, a4, 80; nop; nop; nop }
80005b66:	0157bede8ae0010285e045c6cd01643f 	{ pdx_s_align_i	u3, a4, 96; nop; nop; nop }
80005b76:	0157bede8ae0010285e045c8cd01743f 	{ pdx_s_align_i	u4, a4, 112; nop; nop; nop }
80005b86:	0157bede8ae0010285e045cacd01843f 	{ pdx_s_align_i	u5, a4, 128; nop; nop; nop }
80005b96:	0157bede8ae0010285e045cccd01943f 	{ pdx_s_align_i	u6, a4, 144; nop; nop; nop }
80005ba6:	0157bede8ae0010285e045cecd01a43f 	{ pdx_s_align_i	u7, a4, 160; nop; nop; nop }
80005bb6:	b0c442                                    	addi	a4, a4, -80
80005bb9:	01d442                                    	addmi	a4, a4, 0x100
80005bbc:	0157bedc8ae0010185e005cccd11043f 	{ pdx_s_b4m_i	vb0, a4, 0; nop; nop; nop }
80005bcc:	0157bedc8ae0010185e045cccd11143f 	{ pdx_s_b4m_i	vb1, a4, 2; nop; nop; nop }
80005bdc:	0157bedc8ae0010185e085cccd11243f 	{ pdx_s_b4m_i	vb2, a4, 4; nop; nop; nop }
80005bec:	0157bedc8ae0010185e0c5cccd11343f 	{ pdx_s_b4m_i	vb3, a4, 6; nop; nop; nop }
80005bfc:	0157bedc8ae0010185e105cccd11443f 	{ pdx_s_b4m_i	vb4, a4, 8; nop; nop; nop }
80005c0c:	0157bedc8ae0010185e145cccd11543f 	{ pdx_s_b4m_i	vb5, a4, 10; nop; nop; nop }
80005c1c:	0157bedc8ae0010185e185cccd11643f 	{ pdx_s_b4m_i	vb6, a4, 12; nop; nop; nop }
80005c2c:	0157bedc8ae0010185e1c5cccd11743f 	{ pdx_s_b4m_i	vb7, a4, 14; nop; nop; nop }
80005c3c:	0157bedc8ae0010185e205cccd11843f 	{ pdx_s_b4m_i	vb8, a4, 16; nop; nop; nop }
80005c4c:	0157bedc8ae0010185e245cccd11943f 	{ pdx_s_b4m_i	vb9, a4, 18; nop; nop; nop }
80005c5c:	0157bedc8ae0010185e285cccd11a43f 	{ pdx_s_b4m_i	vb10, a4, 20; nop; nop; nop }
80005c6c:	0157bedc8ae0010185e2c5cccd11b43f 	{ pdx_s_b4m_i	vb11, a4, 22; nop; nop; nop }
80005c7c:	0157bedc8ae0010185e305cccd11c43f 	{ pdx_s_b4m_i	vb12, a4, 24; nop; nop; nop }
80005c8c:	0157bedc8ae0010185e345cccd11d43f 	{ pdx_s_b4m_i	vb13, a4, 26; nop; nop; nop }
80005c9c:	0157bedc8ae0010185e385cccd11e43f 	{ pdx_s_b4m_i	vb14, a4, 28; nop; nop; nop }
80005cac:	0157bedc8ae0010185e3c5cccd11f43f 	{ pdx_s_b4m_i	vb15, a4, 30; nop; nop; nop }
80005cbc:	c0c0a800245e                           	{ pdx_sv_v_i	v0, a4, 32; nop }
80005cc2:	c0c0a808345e                           	{ pdx_sv_v_i	v1, a4, 48; nop }
80005cc8:	c0c0a820445e                           	{ pdx_sv_v_i	v2, a4, 64; nop }
80005cce:	c0c0a828545e                           	{ pdx_sv_v_i	v3, a4, 80; nop }
80005cd4:	c0c0a840645e                           	{ pdx_sv_v_i	v4, a4, 96; nop }
80005cda:	c0c0a848745e                           	{ pdx_sv_v_i	v5, a4, 112; nop }
80005ce0:	c0c0a860845e                           	{ pdx_sv_v_i	v6, a4, 128; nop }
80005ce6:	c0c0a868945e                           	{ pdx_sv_v_i	v7, a4, 144; nop }
80005cec:	c0c0a880a45e                           	{ pdx_sv_v_i	v8, a4, 160; nop }
80005cf2:	c0c0a888b45e                           	{ pdx_sv_v_i	v9, a4, 176; nop }
80005cf8:	c0c0a8a0c45e                           	{ pdx_sv_v_i	v10, a4, 192; nop }
80005cfe:	c0c0a8a8d45e                           	{ pdx_sv_v_i	v11, a4, 208; nop }
80005d04:	c0c0a8c0e45e                           	{ pdx_sv_v_i	v12, a4, 224; nop }
80005d0a:	c0c0a8c8f45e                           	{ pdx_sv_v_i	v13, a4, 240; nop }
80005d10:	c0c2a8e0045e                           	{ pdx_sv_v_i	v14, a4, 0x100; nop }
80005d16:	c0c2a8e8145e                           	{ pdx_sv_v_i	v15, a4, 0x110; nop }
80005d1c:	c0c2a810245e                           	{ pdx_sv_v_i	v16, a4, 0x120; nop }
80005d22:	c0c2a818345e                           	{ pdx_sv_v_i	v17, a4, 0x130; nop }
80005d28:	c0c2a830445e                           	{ pdx_sv_v_i	v18, a4, 0x140; nop }
80005d2e:	c0c2a838545e                           	{ pdx_sv_v_i	v19, a4, 0x150; nop }
80005d34:	c0c2a850645e                           	{ pdx_sv_v_i	v20, a4, 0x160; nop }
80005d3a:	c0c2a858745e                           	{ pdx_sv_v_i	v21, a4, 0x170; nop }
80005d40:	c0c2a870845e                           	{ pdx_sv_v_i	v22, a4, 0x180; nop }
80005d46:	c0c2a878945e                           	{ pdx_sv_v_i	v23, a4, 0x190; nop }
80005d4c:	c0c2a890a45e                           	{ pdx_sv_v_i	v24, a4, 0x1a0; nop }
80005d52:	c0c2a898b45e                           	{ pdx_sv_v_i	v25, a4, 0x1b0; nop }
80005d58:	c0c2a8b0c45e                           	{ pdx_sv_v_i	v26, a4, 0x1c0; nop }
80005d5e:	c0c2a8b8d45e                           	{ pdx_sv_v_i	v27, a4, 0x1d0; nop }
80005d64:	c0c2a8d0e45e                           	{ pdx_sv_v_i	v28, a4, 0x1e0; nop }
80005d6a:	c0c2a8d8f45e                           	{ pdx_sv_v_i	v29, a4, 0x1f0; nop }
80005d70:	01a79edea4540000006047d08009883f 	{ nop; nop; pdx_cvt32d_4mx20_l	v2, v3, wv0; nop }
80005d80:	01a79edea4140000006043d06009883f 	{ nop; nop; pdx_cvt32d_4mx20_h	v0, v1, wv0; nop }
80005d90:	c0c4a828045e                           	{ pdx_sv_v_i	v3, a4, 0x200; nop }
80005d96:	c0c4a820145e                           	{ pdx_sv_v_i	v2, a4, 0x210; nop }
80005d9c:	c0c4a808245e                           	{ pdx_sv_v_i	v1, a4, 0x220; nop }
80005da2:	c0c4a800345e                           	{ pdx_sv_v_i	v0, a4, 0x230; nop }
80005da8:	01a79edea4550000006047d08009883f 	{ nop; nop; pdx_cvt32d_4mx20_l	v2, v3, wv1; nop }
80005db8:	01a79edea4150000006043d06009883f 	{ nop; nop; pdx_cvt32d_4mx20_h	v0, v1, wv1; nop }
80005dc8:	c0c4a828445e                           	{ pdx_sv_v_i	v3, a4, 0x240; nop }
80005dce:	c0c4a820545e                           	{ pdx_sv_v_i	v2, a4, 0x250; nop }
80005dd4:	c0c4a808645e                           	{ pdx_sv_v_i	v1, a4, 0x260; nop }
80005dda:	c0c4a800745e                           	{ pdx_sv_v_i	v0, a4, 0x270; nop }
80005de0:	01a79edea4560000006047d08009883f 	{ nop; nop; pdx_cvt32d_4mx20_l	v2, v3, wv2; nop }
80005df0:	01a79edea4160000006043d06009883f 	{ nop; nop; pdx_cvt32d_4mx20_h	v0, v1, wv2; nop }
80005e00:	c0c4a828845e                           	{ pdx_sv_v_i	v3, a4, 0x280; nop }
80005e06:	c0c4a820945e                           	{ pdx_sv_v_i	v2, a4, 0x290; nop }
80005e0c:	c0c4a808a45e                           	{ pdx_sv_v_i	v1, a4, 0x2a0; nop }
80005e12:	c0c4a800b45e                           	{ pdx_sv_v_i	v0, a4, 0x2b0; nop }
80005e18:	01a79edea4570000006047d08009883f 	{ nop; nop; pdx_cvt32d_4mx20_l	v2, v3, wv3; nop }
80005e28:	01a79edea4170000006043d06009883f 	{ nop; nop; pdx_cvt32d_4mx20_h	v0, v1, wv3; nop }
80005e38:	c0c4a828c45e                           	{ pdx_sv_v_i	v3, a4, 0x2c0; nop }
80005e3e:	c0c4a820d45e                           	{ pdx_sv_v_i	v2, a4, 0x2d0; nop }
80005e44:	c0c4a808e45e                           	{ pdx_sv_v_i	v1, a4, 0x2e0; nop }
80005e4a:	c0c4a800f45e                           	{ pdx_sv_v_i	v0, a4, 0x2f0; nop }
80005e50:	ffd442                                    	addmi	a4, a4, 0xffffff00
80005e53:	50c442                                    	addi	a4, a4, 80
80005e56:	460200                                    	pdx_mov32_scf	v0
80005e59:	c0c0a000047e                           	{ pdx_ss_32_i	v0, a4, 0; nop }
80005e5f:	b0c442                                    	addi	a4, a4, -80
80005e62:	04d442                                    	addmi	a4, a4, 0x400
80005e65:	c0c0a8f0045e                           	{ pdx_sv_v_i	v30, a4, 0; nop }
80005e6b:	c0c0a8f8145e                           	{ pdx_sv_v_i	v31, a4, 16; nop }
80005e71:	24c342                                    	addi	a4, a3, 36
80005e74:	01d442                                    	addmi	a4, a4, 0x100
80005e77:	052c                                    	movi.n	a5, 32
80005e79:	b04540                                    	addx8	a4, a5, a4

80005e7c <_xtos_core_save_common+0x548>:
80005e7c:	550b                                    	addi.n	a5, a5, -1
80005e7e:	f8c442                                    	addi	a4, a4, -8
80005e81:	50b560                                    	rptlb0	a6, a5
80005e84:	0469                                    	s32i.n	a6, a4, 0
80005e86:	50f560                                    	rptlb1	a6, a5
80005e89:	1469                                    	s32i.n	a6, a4, 4
80005e8b:	fed556                                    	bnez	a5, 80005e7c <_xtos_core_save_common+0x548>
80005e8e:	036240                                    	rsr.cacheadrdis	a4
80005e91:	24c352                                    	addi	a5, a3, 36
80005e94:	05d552                                    	addmi	a5, a5, 0x500
80005e97:	0549                                    	s32i.n	a4, a5, 0
80005e99:	24c342                                    	addi	a4, a3, 36
80005e9c:	01d442                                    	addmi	a4, a4, 0x100
80005e9f:	1ca452                                    	movi	a5, 0x41c
80005ea2:	547040                                    	extui	a7, a4, 0, 6
80005ea5:	557a                                    	add.n	a5, a5, a7
80005ea7:	3fc552                                    	addi	a5, a5, 63
80005eaa:	415650                                    	srli	a5, a5, 6
80005ead:	059576                                    	loopnez	a5, 80005eb6 <_xtos_core_save_common+0x582>
80005eb0:	007442                                    	dhwb	a4, 0
80005eb3:	40c442                                    	addi	a4, a4, 64

80005eb6 <_xtos_core_save_common+0x582>:
80005eb6:	ea7f61                                    	l32r	a6, 800008b4 (b1c5afed <__stack+0x21c5afed>)
80005eb9:	1ce287                                    	bbsi	a2, 8, 80005ed9 <_xtos_core_save_common+0x5a5>
80005ebc:	ea6741                                    	l32r	a4, 80000858 (8000 <xthals_release_major+0x5120>)
80005ebf:	050c                                    	movi.n	a5, 0

80005ec1 <_xtos_core_save_common+0x58d>:
80005ec1:	047582                                    	diwb	a5, 0
80005ec4:	447582                                    	diwb	a5, 64
80005ec7:	847582                                    	diwb	a5, 128
80005eca:	c47582                                    	diwb	a5, 192
80005ecd:	01d552                                    	addmi	a5, a5, 0x100
80005ed0:	ed3547                                    	bltu	a5, a4, 80005ec1 <_xtos_core_save_common+0x58d>
80005ed3:	0020c0                                    	memw
80005ed6:	0006c6                                    	j	80005ef5 <_xtos_core_save_common+0x5c1>

80005ed9 <_xtos_core_save_common+0x5a5>:
80005ed9:	034d                                    	mov.n	a4, a3
80005edb:	40a552                                    	movi	a5, 0x540
80005ede:	547040                                    	extui	a7, a4, 0, 6
80005ee1:	557a                                    	add.n	a5, a5, a7
80005ee3:	3fc552                                    	addi	a5, a5, 63
80005ee6:	415650                                    	srli	a5, a5, 6
80005ee9:	059576                                    	loopnez	a5, 80005ef2 <_xtos_core_save_common+0x5be>
80005eec:	007442                                    	dhwb	a4, 0
80005eef:	40c442                                    	addi	a4, a4, 64

80005ef2 <_xtos_core_save_common+0x5be>:
80005ef2:	0020c0                                    	memw

80005ef5 <_xtos_core_save_common+0x5c1>:
80005ef5:	0369                                    	s32i.n	a6, a3, 0
80005ef7:	007342                                    	dhwb	a3, 0
80005efa:	7348                                    	l32i.n	a4, a3, 28
80005efc:	0020c0                                    	memw
80005eff:	148c                                    	beqz.n	a4, 80005f04 <_xtos_core_save_common+0x5d0>
80005f01:	0004a0                                    	jx	a4

80005f04 <_xtos_core_save_common+0x5d0>:
80005f04:	1308                                    	l32i.n	a0, a3, 4
80005f06:	020c                                    	movi.n	a2, 0
80005f08:	f00d                                    	ret.n

80005f0a <_xtos_core_save_common+0x5d6>:
80005f0a:	00000000 69510000                                ......

80005f10 <_xtos_core_restore>:
80005f10:	ea6951                                    	l32r	a5, 800008b4 (b1c5afed <__stack+0x21c5afed>)
80005f13:	0348                                    	l32i.n	a4, a3, 0
80005f15:	060c                                    	movi.n	a6, 0
80005f17:	089457                                    	bne	a4, a5, 80005f23 <_xtos_core_restore+0x13>
80005f1a:	006f40                                    	rsil	a4, 15
80005f1d:	13e460                                    	wsr.intenable	a6
80005f20:	000045                                    	call0	80005f28 <_xtos_core_restore_nw>

80005f23 <_xtos_core_restore+0x13>:
80005f23:	f00d                                    	ret.n

80005f25 <_xtos_core_restore+0x15>:
80005f25:	000000                                        ...

80005f28 <_xtos_core_restore_nw>:
80005f28:	1308                                    	l32i.n	a0, a3, 4
80005f2a:	141c                                    	movi.n	a4, 17
80005f2c:	13e640                                    	wsr.ps	a4
80005f2f:	002010                                    	rsync
80005f32:	142352                                    	l32i	a5, a3, 80
80005f35:	130350                                    	wsr.sar	a5
80005f38:	ea5b41                                    	l32r	a4, 800008a4 (103020 <_DoubleExceptionVector_text_end+0x2a78>)
80005f3b:	170c                                    	movi.n	a7, 1
80005f3d:	406460                                    	rer	a6, a4
80005f40:	132352                                    	l32i	a5, a3, 76
80005f43:	107760                                    	and	a7, a7, a6
80005f46:	205570                                    	or	a5, a5, a7
80005f49:	407450                                    	wer	a5, a4
80005f4c:	192352                                    	l32i	a5, a3, 100
80005f4f:	13b250                                    	wsr.epc2	a5
80005f52:	1f2352                                    	l32i	a5, a3, 124
80005f55:	13c250                                    	wsr.eps2	a5
80005f58:	252352                                    	l32i	a5, a3, 148
80005f5b:	13d250                                    	wsr.excsave2	a5
80005f5e:	1a2352                                    	l32i	a5, a3, 104
80005f61:	13b350                                    	wsr.epc3	a5
80005f64:	202352                                    	l32i	a5, a3, 128
80005f67:	13c350                                    	wsr.eps3	a5
80005f6a:	262352                                    	l32i	a5, a3, 152
80005f6d:	13d350                                    	wsr.excsave3	a5
80005f70:	1b2352                                    	l32i	a5, a3, 108
80005f73:	13b450                                    	wsr.epc4	a5
80005f76:	212352                                    	l32i	a5, a3, 132
80005f79:	13c450                                    	wsr.eps4	a5
80005f7c:	272352                                    	l32i	a5, a3, 156
80005f7f:	13d450                                    	wsr.excsave4	a5
80005f82:	1c2352                                    	l32i	a5, a3, 112
80005f85:	13b550                                    	wsr.epc5	a5
80005f88:	222352                                    	l32i	a5, a3, 136
80005f8b:	13c550                                    	wsr.eps5	a5
80005f8e:	282352                                    	l32i	a5, a3, 160
80005f91:	13d550                                    	wsr.excsave5	a5
80005f94:	1d2352                                    	l32i	a5, a3, 116
80005f97:	13b650                                    	wsr.epc6	a5
80005f9a:	232352                                    	l32i	a5, a3, 140
80005f9d:	13c650                                    	wsr.eps6	a5
80005fa0:	292352                                    	l32i	a5, a3, 164
80005fa3:	13d650                                    	wsr.excsave6	a5
80005fa6:	1e2352                                    	l32i	a5, a3, 120
80005fa9:	13b750                                    	wsr.epc7	a5
80005fac:	242352                                    	l32i	a5, a3, 144
80005faf:	13c750                                    	wsr.eps7	a5
80005fb2:	2a2352                                    	l32i	a5, a3, 168
80005fb5:	13d750                                    	wsr.excsave7	a5
80005fb8:	2c2352                                    	l32i	a5, a3, 176
80005fbb:	130050                                    	wsr.lbeg	a5
80005fbe:	2d2352                                    	l32i	a5, a3, 180
80005fc1:	130150                                    	wsr.lend	a5
80005fc4:	2b2352                                    	l32i	a5, a3, 172
80005fc7:	130250                                    	wsr.lcount	a5
80005fca:	2e2352                                    	l32i	a5, a3, 184
80005fcd:	13e750                                    	wsr.vecbase	a5
80005fd0:	2f2352                                    	l32i	a5, a3, 188
80005fd3:	132850                                    	wsr.prefctl	a5
80005fd6:	302352                                    	l32i	a5, a3, 192
80005fd9:	136150                                    	wsr.memctl	a5
80005fdc:	03ed50                                    	rsr.icountlevel	a5
80005fdf:	a5cc                                    	bnez.n	a5, 80005fed <_xtos_core_restore_nw+0xc5>
80005fe1:	362352                                    	l32i	a5, a3, 216
80005fe4:	13ec50                                    	wsr.icount	a5
80005fe7:	372352                                    	l32i	a5, a3, 220
80005fea:	13ed50                                    	wsr.icountlevel	a5

80005fed <_xtos_core_restore_nw+0xc5>:
80005fed:	036060                                    	rsr.ibreakenable	a6
80005ff0:	05dc                                    	bnez.n	a5, 80006004 <_xtos_core_restore_nw+0xdc>
80005ff2:	3d2352                                    	l32i	a5, a3, 244
80005ff5:	138050                                    	wsr.ibreaka0	a5
80005ff8:	3e2352                                    	l32i	a5, a3, 248
80005ffb:	138150                                    	wsr.ibreaka1	a5
80005ffe:	3f2352                                    	l32i	a5, a3, 252
80006001:	136050                                    	wsr.ibreakenable	a5

80006004 <_xtos_core_restore_nw+0xdc>:
80006004:	03a060                                    	rsr.dbreakc0	a6
80006007:	0ef6e7                                    	bbsi	a6, 30, 80006019 <_xtos_core_restore_nw+0xf1>
8000600a:	0bf6f7                                    	bbsi	a6, 31, 80006019 <_xtos_core_restore_nw+0xf1>
8000600d:	3b2352                                    	l32i	a5, a3, 236
80006010:	139050                                    	wsr.dbreaka0	a5
80006013:	392352                                    	l32i	a5, a3, 228
80006016:	13a050                                    	wsr.dbreakc0	a5

80006019 <_xtos_core_restore_nw+0xf1>:
80006019:	03a160                                    	rsr.dbreakc1	a6
8000601c:	0ef6e7                                    	bbsi	a6, 30, 8000602e <_xtos_core_restore_nw+0x106>
8000601f:	0bf6f7                                    	bbsi	a6, 31, 8000602e <_xtos_core_restore_nw+0x106>
80006022:	3c2352                                    	l32i	a5, a3, 240
80006025:	139150                                    	wsr.dbreaka1	a5
80006028:	3a2352                                    	l32i	a5, a3, 232
8000602b:	13a150                                    	wsr.dbreakc1	a5

8000602e <_xtos_core_restore_nw+0x106>:
8000602e:	402352                                    	l32i	a5, a3, 0x100
80006031:	13f450                                    	wsr.misc0	a5
80006034:	412352                                    	l32i	a5, a3, 0x104
80006037:	13f550                                    	wsr.misc1	a5
8000603a:	422352                                    	l32i	a5, a3, 0x108
8000603d:	136a50                                    	wsr.mepc	a5
80006040:	432352                                    	l32i	a5, a3, 0x10c
80006043:	136b50                                    	wsr.meps	a5
80006046:	442352                                    	l32i	a5, a3, 0x110
80006049:	136c50                                    	wsr.mesave	a5
8000604c:	452352                                    	l32i	a5, a3, 0x114
8000604f:	136d50                                    	wsr.mesr	a5
80006052:	462352                                    	l32i	a5, a3, 0x118
80006055:	136e50                                    	wsr.mecr	a5
80006058:	472352                                    	l32i	a5, a3, 0x11c
8000605b:	136f50                                    	wsr.mevaddr	a5
8000605e:	40c342                                    	addi	a4, a3, 64
80006061:	05d442                                    	addmi	a4, a4, 0x500
80006064:	0458                                    	l32i.n	a5, a4, 0
80006066:	f3e750                                    	wur.threadptr	a5
80006069:	1458                                    	l32i.n	a5, a4, 4
8000606b:	130450                                    	wsr.br	a5
8000606e:	f67c                                    	movi.n	a6, -1
80006070:	13e060                                    	wsr.cpenable	a6
80006073:	002010                                    	rsync
80006076:	10c442                                    	addi	a4, a4, 16
80006079:	c0c0a000044e                           	{ pdx_ls_32_i	v0, a4, 0; nop }
8000607f:	460100                                    	pdx_movscf_32	v0
80006082:	2468                                    	l32i.n	a6, a4, 8
80006084:	3458                                    	l32i.n	a5, a4, 12
80006086:	c4c2f000655e                           	{ pdx_movc_au32d	c0, a5, a6; nop }
8000608c:	4468                                    	l32i.n	a6, a4, 16
8000608e:	5458                                    	l32i.n	a5, a4, 20
80006090:	c4c2f008655e                           	{ pdx_movc_au32d	c1, a5, a6; nop }
80006096:	6468                                    	l32i.n	a6, a4, 24
80006098:	7458                                    	l32i.n	a5, a4, 28
8000609a:	c4c2f020655e                           	{ pdx_movc_au32d	c2, a5, a6; nop }
800060a0:	8468                                    	l32i.n	a6, a4, 32
800060a2:	9458                                    	l32i.n	a5, a4, 36
800060a4:	c4c2f028655e                           	{ pdx_movc_au32d	c3, a5, a6; nop }
800060aa:	0157bede8ae0010785e105c0cd01343f 	{ pdx_l_align_i	u0, a4, 48; nop; nop; nop }
800060ba:	0157bede8ae0010785e105c0cd09443f 	{ pdx_l_align_i	u1, a4, 64; nop; nop; nop }
800060ca:	0157bede8ae0010785e105c0cd21543f 	{ pdx_l_align_i	u2, a4, 80; nop; nop; nop }
800060da:	0157bede8ae0010785e105c0cd29643f 	{ pdx_l_align_i	u3, a4, 96; nop; nop; nop }
800060ea:	0157bede8ae0010785e105c0cd41743f 	{ pdx_l_align_i	u4, a4, 112; nop; nop; nop }
800060fa:	0157bede8ae0010785e105c0cd49843f 	{ pdx_l_align_i	u5, a4, 128; nop; nop; nop }
8000610a:	0157bede8ae0010785e105c0cd61943f 	{ pdx_l_align_i	u6, a4, 144; nop; nop; nop }
8000611a:	0157bede8ae0010785e105c0cd69a43f 	{ pdx_l_align_i	u7, a4, 160; nop; nop; nop }
8000612a:	b0c442                                    	addi	a4, a4, -80
8000612d:	01d442                                    	addmi	a4, a4, 0x100
80006130:	0157bedc8ae0010185e005cccd01043f 	{ pdx_l_b4m_i	vb0, a4, 0; nop; nop; nop }
80006140:	0157bedc8ae0010185e045cccd01143f 	{ pdx_l_b4m_i	vb1, a4, 2; nop; nop; nop }
80006150:	0157bedc8ae0010185e085cccd01243f 	{ pdx_l_b4m_i	vb2, a4, 4; nop; nop; nop }
80006160:	0157bedc8ae0010185e0c5cccd01343f 	{ pdx_l_b4m_i	vb3, a4, 6; nop; nop; nop }
80006170:	0157bedc8ae0010185e105cccd01443f 	{ pdx_l_b4m_i	vb4, a4, 8; nop; nop; nop }
80006180:	0157bedc8ae0010185e145cccd01543f 	{ pdx_l_b4m_i	vb5, a4, 10; nop; nop; nop }
80006190:	0157bedc8ae0010185e185cccd01643f 	{ pdx_l_b4m_i	vb6, a4, 12; nop; nop; nop }
800061a0:	0157bedc8ae0010185e1c5cccd01743f 	{ pdx_l_b4m_i	vb7, a4, 14; nop; nop; nop }
800061b0:	0157bedc8ae0010185e205cccd01843f 	{ pdx_l_b4m_i	vb8, a4, 16; nop; nop; nop }
800061c0:	0157bedc8ae0010185e245cccd01943f 	{ pdx_l_b4m_i	vb9, a4, 18; nop; nop; nop }
800061d0:	0157bedc8ae0010185e285cccd01a43f 	{ pdx_l_b4m_i	vb10, a4, 20; nop; nop; nop }
800061e0:	0157bedc8ae0010185e2c5cccd01b43f 	{ pdx_l_b4m_i	vb11, a4, 22; nop; nop; nop }
800061f0:	0157bedc8ae0010185e305cccd01c43f 	{ pdx_l_b4m_i	vb12, a4, 24; nop; nop; nop }
80006200:	0157bedc8ae0010185e345cccd01d43f 	{ pdx_l_b4m_i	vb13, a4, 26; nop; nop; nop }
80006210:	0157bedc8ae0010185e385cccd01e43f 	{ pdx_l_b4m_i	vb14, a4, 28; nop; nop; nop }
80006220:	0157bedc8ae0010185e3c5cccd01f43f 	{ pdx_l_b4m_i	vb15, a4, 30; nop; nop; nop }
80006230:	02d442                                    	addmi	a4, a4, 0x200
80006233:	c0c0a028046e                           	{ pdx_lv_v_i	v3, a4, 0; nop }
80006239:	c0c0a020146e                           	{ pdx_lv_v_i	v2, a4, 16; nop }
8000623f:	c0c0a008246e                           	{ pdx_lv_v_i	v1, a4, 32; nop }
80006245:	c0c0a000346e                           	{ pdx_lv_v_i	v0, a4, 48; nop }
8000624b:	0157bedeaae2010080e045c04c09883f 	{ nop; nop; pdx_cvt20_mx32d_l	wv0, v2, v3; nop }
8000625b:	0157bedeaae00100806045c04809883f 	{ nop; nop; pdx_cvt20_mx32d_h	wv0, v0, v1; nop }
8000626b:	c0c0a028446e                           	{ pdx_lv_v_i	v3, a4, 64; nop }
80006271:	c0c0a020546e                           	{ pdx_lv_v_i	v2, a4, 80; nop }
80006277:	c0c0a008646e                           	{ pdx_lv_v_i	v1, a4, 96; nop }
8000627d:	c0c0a000746e                           	{ pdx_lv_v_i	v0, a4, 112; nop }
80006283:	0157bedeaae2010080e045c04d09883f 	{ nop; nop; pdx_cvt20_mx32d_l	wv1, v2, v3; nop }
80006293:	0157bedeaae00100806045c04909883f 	{ nop; nop; pdx_cvt20_mx32d_h	wv1, v0, v1; nop }
800062a3:	c0c0a028846e                           	{ pdx_lv_v_i	v3, a4, 128; nop }
800062a9:	c0c0a020946e                           	{ pdx_lv_v_i	v2, a4, 144; nop }
800062af:	c0c0a008a46e                           	{ pdx_lv_v_i	v1, a4, 160; nop }
800062b5:	c0c0a000b46e                           	{ pdx_lv_v_i	v0, a4, 176; nop }
800062bb:	0157bedeaae2010080e045c04e09883f 	{ nop; nop; pdx_cvt20_mx32d_l	wv2, v2, v3; nop }
800062cb:	0157bedeaae00100806045c04a09883f 	{ nop; nop; pdx_cvt20_mx32d_h	wv2, v0, v1; nop }
800062db:	c0c0a028c46e                           	{ pdx_lv_v_i	v3, a4, 192; nop }
800062e1:	c0c0a020d46e                           	{ pdx_lv_v_i	v2, a4, 208; nop }
800062e7:	c0c0a008e46e                           	{ pdx_lv_v_i	v1, a4, 224; nop }
800062ed:	c0c0a000f46e                           	{ pdx_lv_v_i	v0, a4, 240; nop }
800062f3:	0157bedeaae2010080e045c04f09883f 	{ nop; nop; pdx_cvt20_mx32d_l	wv3, v2, v3; nop }
80006303:	0157bedeaae00100806045c04b09883f 	{ nop; nop; pdx_cvt20_mx32d_h	wv3, v0, v1; nop }
80006313:	fed442                                    	addmi	a4, a4, 0xfffffe00
80006316:	20c442                                    	addi	a4, a4, 32
80006319:	c0c0a000046e                           	{ pdx_lv_v_i	v0, a4, 0; nop }
8000631f:	c0c0a008146e                           	{ pdx_lv_v_i	v1, a4, 16; nop }
80006325:	c0c0a020246e                           	{ pdx_lv_v_i	v2, a4, 32; nop }
8000632b:	c0c0a028346e                           	{ pdx_lv_v_i	v3, a4, 48; nop }
80006331:	c0c0a040446e                           	{ pdx_lv_v_i	v4, a4, 64; nop }
80006337:	c0c0a048546e                           	{ pdx_lv_v_i	v5, a4, 80; nop }
8000633d:	c0c0a060646e                           	{ pdx_lv_v_i	v6, a4, 96; nop }
80006343:	c0c0a068746e                           	{ pdx_lv_v_i	v7, a4, 112; nop }
80006349:	c0c0a080846e                           	{ pdx_lv_v_i	v8, a4, 128; nop }
8000634f:	c0c0a088946e                           	{ pdx_lv_v_i	v9, a4, 144; nop }
80006355:	c0c0a0a0a46e                           	{ pdx_lv_v_i	v10, a4, 160; nop }
8000635b:	c0c0a0a8b46e                           	{ pdx_lv_v_i	v11, a4, 176; nop }
80006361:	c0c0a0c0c46e                           	{ pdx_lv_v_i	v12, a4, 192; nop }
80006367:	c0c0a0c8d46e                           	{ pdx_lv_v_i	v13, a4, 208; nop }
8000636d:	c0c0a0e0e46e                           	{ pdx_lv_v_i	v14, a4, 224; nop }
80006373:	c0c0a0e8f46e                           	{ pdx_lv_v_i	v15, a4, 240; nop }
80006379:	c0c2a010046e                           	{ pdx_lv_v_i	v16, a4, 0x100; nop }
8000637f:	c0c2a018146e                           	{ pdx_lv_v_i	v17, a4, 0x110; nop }
80006385:	c0c2a030246e                           	{ pdx_lv_v_i	v18, a4, 0x120; nop }
8000638b:	c0c2a038346e                           	{ pdx_lv_v_i	v19, a4, 0x130; nop }
80006391:	c0c2a050446e                           	{ pdx_lv_v_i	v20, a4, 0x140; nop }
80006397:	c0c2a058546e                           	{ pdx_lv_v_i	v21, a4, 0x150; nop }
8000639d:	c0c2a070646e                           	{ pdx_lv_v_i	v22, a4, 0x160; nop }
800063a3:	c0c2a078746e                           	{ pdx_lv_v_i	v23, a4, 0x170; nop }
800063a9:	c0c2a090846e                           	{ pdx_lv_v_i	v24, a4, 0x180; nop }
800063af:	c0c2a098946e                           	{ pdx_lv_v_i	v25, a4, 0x190; nop }
800063b5:	c0c2a0b0a46e                           	{ pdx_lv_v_i	v26, a4, 0x1a0; nop }
800063bb:	c0c2a0b8b46e                           	{ pdx_lv_v_i	v27, a4, 0x1b0; nop }
800063c1:	c0c2a0d0c46e                           	{ pdx_lv_v_i	v28, a4, 0x1c0; nop }
800063c7:	c0c2a0d8d46e                           	{ pdx_lv_v_i	v29, a4, 0x1d0; nop }
800063cd:	e0c442                                    	addi	a4, a4, -32
800063d0:	03d442                                    	addmi	a4, a4, 0x300
800063d3:	c0c0a0f0046e                           	{ pdx_lv_v_i	v30, a4, 0; nop }
800063d9:	c0c0a0f8146e                           	{ pdx_lv_v_i	v31, a4, 16; nop }
800063df:	482352                                    	l32i	a5, a3, 0x120
800063e2:	13e050                                    	wsr.cpenable	a5
800063e5:	24c342                                    	addi	a4, a3, 36
800063e8:	01d442                                    	addmi	a4, a4, 0x100
800063eb:	052c                                    	movi.n	a5, 32
800063ed:	060c                                    	movi.n	a6, 0
800063ef:	136260                                    	wsr.cacheadrdis	a6
800063f2:	135a60                                    	wsr.mpuenb	a6
800063f5:	070c                                    	movi.n	a7, 0
800063f7:	f81c                                    	movi.n	a8, 31
800063f9:	0000c6                                    	j	80006400 <_xtos_core_restore_nw+0x4d8>

800063fc <_xtos_core_restore_nw+0x4d4>:
800063fc:	00000000                                ....

80006400 <_xtos_core_restore_nw+0x4d8>:
80006400:	0020c0                                    	memw
80006403:	50e670                                    	wptlb	a7, a6
80006406:	771b                                    	addi.n	a7, a7, 1
80006408:	f43787                                    	bltu	a7, a8, 80006400 <_xtos_core_restore_nw+0x4d8>
8000640b:	15bc                                    	beqz.n	a5, 80006440 <_xtos_core_restore_nw+0x518>
8000640d:	b04540                                    	addx8	a4, a5, a4
80006410:	000586                                    	j	8000642a <_xtos_core_restore_nw+0x502>

80006413 <_xtos_core_restore_nw+0x4eb>:
	...

80006420 <_xtos_core_restore_nw+0x4f8>:
80006420:	0020c0                                    	memw
80006423:	50e970                                    	wptlb	a7, a9
80006426:	880b                                    	addi.n	a8, a8, -1
80006428:	459c                                    	beqz.n	a5, 80006440 <_xtos_core_restore_nw+0x518>

8000642a <_xtos_core_restore_nw+0x502>:
8000642a:	f8c442                                    	addi	a4, a4, -8
8000642d:	1478                                    	l32i.n	a7, a4, 4
8000642f:	0498                                    	l32i.n	a9, a4, 0
80006431:	550b                                    	addi.n	a5, a5, -1
80006433:	446070                                    	extui	a6, a7, 0, 5
80006436:	307760                                    	xor	a7, a7, a6
80006439:	207780                                    	or	a7, a7, a8
8000643c:	fff806                                    	j	80006420 <_xtos_core_restore_nw+0x4f8>

8000643f <_xtos_core_restore_nw+0x517>:
	...

80006440 <_xtos_core_restore_nw+0x518>:
80006440:	e91e41                                    	l32r	a4, 800008b8 (524 <CS_SA_cacheadrdis>)
80006443:	804430                                    	add	a4, a4, a3
80006446:	002442                                    	l32i	a4, a4, 0
80006449:	136240                                    	wsr.cacheadrdis	a4
8000644c:	28c342                                    	addi	a4, a3, 40
8000644f:	05d442                                    	addmi	a4, a4, 0x500
80006452:	0458                                    	l32i.n	a5, a4, 0
80006454:	e91a71                                    	l32r	a7, 800008bc (110000 <_DoubleExceptionVector_text_end+0xfa58>)
80006457:	060c                                    	movi.n	a6, 0
80006459:	667a                                    	add.n	a6, a6, a7
8000645b:	407650                                    	wer	a5, a6
8000645e:	1458                                    	l32i.n	a5, a4, 4
80006460:	460c                                    	movi.n	a6, 4
80006462:	667a                                    	add.n	a6, a6, a7
80006464:	407650                                    	wer	a5, a6
80006467:	2458                                    	l32i.n	a5, a4, 8
80006469:	860c                                    	movi.n	a6, 8
8000646b:	667a                                    	add.n	a6, a6, a7
8000646d:	407650                                    	wer	a5, a6
80006470:	3458                                    	l32i.n	a5, a4, 12
80006472:	14a062                                    	movi	a6, 20
80006475:	806670                                    	add	a6, a6, a7
80006478:	407650                                    	wer	a5, a6
8000647b:	042452                                    	l32i	a5, a4, 16
8000647e:	18a062                                    	movi	a6, 24
80006481:	806670                                    	add	a6, a6, a7
80006484:	407650                                    	wer	a5, a6
80006487:	322352                                    	l32i	a5, a3, 200
8000648a:	352362                                    	l32i	a6, a3, 212
8000648d:	13f050                                    	wsr.ccompare0	a5
80006490:	106627                                    	bbci	a6, 2, 800064a4 <_xtos_core_restore_nw+0x57c>
80006493:	ffc552                                    	addi	a5, a5, -1

80006496 <_xtos_core_restore_nw+0x56e>:
80006496:	13ea50                                    	wsr.ccount	a5
80006499:	002020                                    	esync
8000649c:	f03d                                    	nop.n
8000649e:	03e260                                    	rsr.interrupt	a6
800064a1:	f16627                                    	bbci	a6, 2, 80006496 <_xtos_core_restore_nw+0x56e>

800064a4 <_xtos_core_restore_nw+0x57c>:
800064a4:	332352                                    	l32i	a5, a3, 204
800064a7:	352362                                    	l32i	a6, a3, 212
800064aa:	13f150                                    	wsr.ccompare1	a5
800064ad:	0f6687                                    	bbci	a6, 8, 800064c0 <_xtos_core_restore_nw+0x598>
800064b0:	550b                                    	addi.n	a5, a5, -1

800064b2 <_xtos_core_restore_nw+0x58a>:
800064b2:	13ea50                                    	wsr.ccount	a5
800064b5:	002020                                    	esync
800064b8:	f03d                                    	nop.n
800064ba:	03e260                                    	rsr.interrupt	a6
800064bd:	f16687                                    	bbci	a6, 8, 800064b2 <_xtos_core_restore_nw+0x58a>

800064c0 <_xtos_core_restore_nw+0x598>:
800064c0:	312352                                    	l32i	a5, a3, 196
800064c3:	13ea50                                    	wsr.ccount	a5
800064c6:	352352                                    	l32i	a5, a3, 212
800064c9:	05e527                                    	bbsi	a5, 2, 800064d2 <_xtos_core_restore_nw+0x5aa>
800064cc:	03f060                                    	rsr.ccompare0	a6
800064cf:	13f060                                    	wsr.ccompare0	a6

800064d2 <_xtos_core_restore_nw+0x5aa>:
800064d2:	05e587                                    	bbsi	a5, 8, 800064db <_xtos_core_restore_nw+0x5b3>
800064d5:	03f160                                    	rsr.ccompare1	a6
800064d8:	13f160                                    	wsr.ccompare1	a6

800064db <_xtos_core_restore_nw+0x5b3>:
800064db:	312352                                    	l32i	a5, a3, 196
800064de:	13ea50                                    	wsr.ccount	a5
800064e1:	006f60                                    	rsil	a6, 15
800064e4:	342352                                    	l32i	a5, a3, 208
800064e7:	13e450                                    	wsr.intenable	a5
800064ea:	340c                                    	movi.n	a4, 3
800064ec:	352352                                    	l32i	a5, a3, 212
800064ef:	105540                                    	and	a5, a5, a4
800064f2:	13e250                                    	wsr.intset	a5
800064f5:	002010                                    	rsync
800064f8:	152352                                    	l32i	a5, a3, 84
800064fb:	13b150                                    	wsr.epc1	a5
800064fe:	172352                                    	l32i	a5, a3, 92
80006501:	13d150                                    	wsr.excsave1	a5
80006504:	182352                                    	l32i	a5, a3, 96
80006507:	13c050                                    	wsr.depc	a5
8000650a:	e8e641                                    	l32r	a4, 800008a4 (103020 <_DoubleExceptionVector_text_end+0x2a78>)
8000650d:	406450                                    	rer	a5, a4
80006510:	0865c7                                    	bbci	a5, 12, 8000651c <_xtos_core_restore_nw+0x5f4>
80006513:	e8e171                                    	l32r	a7, 80000898 (103024 <_DoubleExceptionVector_text_end+0x2a7c>)

80006516 <_xtos_core_restore_nw+0x5ee>:
80006516:	406760                                    	rer	a6, a7
80006519:	f966c7                                    	bbci	a6, 12, 80006516 <_xtos_core_restore_nw+0x5ee>

8000651c <_xtos_core_restore_nw+0x5f4>:
8000651c:	e77c                                    	movi.n	a7, -2
8000651e:	105570                                    	and	a5, a5, a7
80006521:	407450                                    	wer	a5, a4
80006524:	040c                                    	movi.n	a4, 0
80006526:	0349                                    	s32i.n	a4, a3, 0
80006528:	007342                                    	dhwb	a3, 0
8000652b:	f00d                                    	ret.n

8000652d <_xtos_core_restore_nw+0x605>:
8000652d:	000000                                        ...

80006530 <_xtos_core_restore_nw+0x608>:
80006530:	00000000 8000899c 00000000 00000000     ................
	...

80006548 <_MemErrorHandler>:
80006548:	036d00                                    	rsr.mesr	a0
8000654b:	42e017                                    	bbsi	a0, 1, 80006591 <_MemErrorHandler+0x49>
8000654e:	56f097                                    	bbsi	a0, 25, 800065a8 <_MemErrorHandler+0x60>
80006551:	48f0e7                                    	bbsi	a0, 30, 8000659d <_MemErrorHandler+0x55>
80006554:	616f20                                    	xsr.mevaddr	a2
80006557:	0a7087                                    	bbci	a0, 24, 80006565 <_MemErrorHandler+0x1d>
8000655a:	f14200                                    	l32ex	a0, a2
8000655d:	f15200                                    	s32ex	a0, a2
80006560:	000146                                    	j	80006569 <_MemErrorHandler+0x21>

80006563 <_MemErrorHandler+0x1b>:
	...

80006565 <_MemErrorHandler+0x1d>:
80006565:	0208                                    	l32i.n	a0, a2, 0
80006567:	0209                                    	s32i.n	a0, a2, 0

80006569 <_MemErrorHandler+0x21>:
80006569:	616f20                                    	xsr.mevaddr	a2

8000656c <_MemErrorHandler+0x24>:
8000656c:	fff101                                    	l32r	a0, 80006530 (0 <_Level2HandlerLabel>)
8000656f:	509c                                    	beqz.n	a0, 80006588 <_MemErrorHandler+0x40>
80006571:	fff001                                    	l32r	a0, 80006534 (8000899c <_MemErrorSave>)
80006574:	0029                                    	s32i.n	a2, a0, 0
80006576:	1039                                    	s32i.n	a3, a0, 4
80006578:	ffee01                                    	l32r	a0, 80006530 (0 <_Level2HandlerLabel>)
8000657b:	036d20                                    	rsr.mesr	a2
8000657e:	0000c0                                    	callx0	a0
80006581:	ffec31                                    	l32r	a3, 80006534 (8000899c <_MemErrorSave>)
80006584:	0328                                    	l32i.n	a2, a3, 0
80006586:	1338                                    	l32i.n	a3, a3, 4

80006588 <_MemErrorHandler+0x40>:
80006588:	036c00                                    	rsr.mesave	a0
8000658b:	003020                                    	rfme

8000658e <_MemErrorHandler+0x46>:
8000658e:	000000                                        ...

80006591 <_MemErrorHandler+0x49>:
80006591:	ffe901                                    	l32r	a0, 80006538 (0 <_Level2HandlerLabel>)

80006594 <_MemErrorHandler+0x4c>:
80006594:	ffc016                                    	beqz	a0, 80006594 <_MemErrorHandler+0x4c>
80006597:	0000a0                                    	jx	a0

8000659a <_MemErrorHandler+0x52>:
8000659a:	000000                                        ...

8000659d <_MemErrorHandler+0x55>:
8000659d:	ffe701                                    	l32r	a0, 8000653c (0 <_Level2HandlerLabel>)

800065a0 <_MemErrorHandler+0x58>:
800065a0:	ffc016                                    	beqz	a0, 800065a0 <_MemErrorHandler+0x58>
800065a3:	0000a0                                    	jx	a0

800065a6 <_MemErrorHandler+0x5e>:
	...

800065a8 <_MemErrorHandler+0x60>:
800065a8:	34f087                                    	bbsi	a0, 24, 800065e0 <_MemErrorHandler+0x98>
800065ab:	1af0e7                                    	bbsi	a0, 30, 800065c9 <_MemErrorHandler+0x81>
800065ae:	616f20                                    	xsr.mevaddr	a2
800065b1:	150000                                    	extui	a0, a0, 16, 2
800065b4:	110030                                    	slli	a0, a0, 13
800065b7:	0122d0                                    	slli	a2, a2, 19
800065ba:	c52320                                    	extui	a2, a2, 19, 13
800065bd:	202200                                    	or	a2, a2, a0
800065c0:	0072f2                                    	iii	a2, 0
800065c3:	616f20                                    	xsr.mevaddr	a2
800065c6:	ffe886                                    	j	8000656c <_MemErrorHandler+0x24>

800065c9 <_MemErrorHandler+0x81>:
800065c9:	08f0a7                                    	bbsi	a0, 26, 800065d5 <_MemErrorHandler+0x8d>
800065cc:	036f00                                    	rsr.mevaddr	a0
800065cf:	0070e2                                    	ihi	a0, 0
800065d2:	ffe586                                    	j	8000656c <_MemErrorHandler+0x24>

800065d5 <_MemErrorHandler+0x8d>:
800065d5:	036f00                                    	rsr.mevaddr	a0
800065d8:	0070f2                                    	iii	a0, 0
800065db:	ffe346                                    	j	8000656c <_MemErrorHandler+0x24>

800065de <_MemErrorHandler+0x96>:
	...

800065e0 <_MemErrorHandler+0x98>:
800065e0:	28f0e7                                    	bbsi	a0, 30, 8000660c <_MemErrorHandler+0xc4>
800065e3:	09f0a7                                    	bbsi	a0, 26, 800065f0 <_MemErrorHandler+0xa8>
800065e6:	036f00                                    	rsr.mevaddr	a0
800065e9:	007052                                    	dhwbi	a0, 0
800065ec:	ffdf06                                    	j	8000656c <_MemErrorHandler+0x24>

800065ef <_MemErrorHandler+0xa7>:
	...

800065f0 <_MemErrorHandler+0xa8>:
800065f0:	616f20                                    	xsr.mevaddr	a2
800065f3:	150000                                    	extui	a0, a0, 16, 2
800065f6:	110030                                    	slli	a0, a0, 13
800065f9:	0122d0                                    	slli	a2, a2, 19
800065fc:	c52320                                    	extui	a2, a2, 19, 13
800065ff:	202200                                    	or	a2, a2, a0
80006602:	057282                                    	diwbi	a2, 0
80006605:	616f20                                    	xsr.mevaddr	a2
80006608:	ffd806                                    	j	8000656c <_MemErrorHandler+0x24>

8000660b <_MemErrorHandler+0xc3>:
	...

8000660c <_MemErrorHandler+0xc4>:
8000660c:	45f0a7                                    	bbsi	a0, 26, 80006655 <_MemErrorHandler+0x10d>
8000660f:	51f047                                    	bbsi	a0, 20, 80006664 <_MemErrorHandler+0x11c>
80006612:	616f20                                    	xsr.mevaddr	a2
80006615:	150000                                    	extui	a0, a0, 16, 2
80006618:	110030                                    	slli	a0, a0, 13
8000661b:	300200                                    	xor	a0, a2, a0
8000661e:	140d00                                    	extui	a0, a0, 13, 2
80006621:	202200                                    	or	a2, a2, a0
80006624:	110030                                    	slli	a0, a0, 13
80006627:	302200                                    	xor	a2, a2, a0
8000662a:	ffc201                                    	l32r	a0, 80006534 (8000899c <_MemErrorSave>)
8000662d:	0049                                    	s32i.n	a4, a0, 0
8000662f:	040c                                    	movi.n	a4, 0
80006631:	612840                                    	xsr.prefctl	a4
80006634:	f18200                                    	ldct	a0, a2
80006637:	132840                                    	wsr.prefctl	a4
8000663a:	ffbe41                                    	l32r	a4, 80006534 (8000899c <_MemErrorSave>)
8000663d:	0448                                    	l32i.n	a4, a4, 0
8000663f:	1ee027                                    	bbsi	a0, 2, 80006661 <_MemErrorHandler+0x119>
80006642:	140020                                    	extui	a0, a2, 0, 2
80006645:	110030                                    	slli	a0, a0, 13
80006648:	302200                                    	xor	a2, a2, a0
8000664b:	007262                                    	dhi	a2, 0
8000664e:	616f20                                    	xsr.mevaddr	a2
80006651:	ffc5c6                                    	j	8000656c <_MemErrorHandler+0x24>

80006654 <_MemErrorHandler+0x10c>:
	...

80006655 <_MemErrorHandler+0x10d>:
80006655:	ffba01                                    	l32r	a0, 80006540 (0 <_Level2HandlerLabel>)

80006658 <_MemErrorHandler+0x110>:
80006658:	ffc016                                    	beqz	a0, 80006658 <_MemErrorHandler+0x110>
8000665b:	0000a0                                    	jx	a0

8000665e <_MemErrorHandler+0x116>:
8000665e:	000000                                        ...

80006661 <_MemErrorHandler+0x119>:
80006661:	616f20                                    	xsr.mevaddr	a2

80006664 <_MemErrorHandler+0x11c>:
80006664:	ffb801                                    	l32r	a0, 80006544 (0 <_Level2HandlerLabel>)

80006667 <_MemErrorHandler+0x11f>:
80006667:	ffc016                                    	beqz	a0, 80006667 <_MemErrorHandler+0x11f>
8000666a:	0000a0                                    	jx	a0

8000666d <_MemErrorHandler+0x125>:
8000666d:	000000                                        ...

80006670 <_xtos_l1int_handler>:
80006670:	8159                                    	s32i.n	a5, a1, 32
80006672:	422c                                    	movi.n	a2, 36
80006674:	03b130                                    	rsr.epc1	a3
80006677:	61e620                                    	xsr.ps	a2
8000667a:	0139                                    	s32i.n	a3, a1, 0
8000667c:	1129                                    	s32i.n	a2, a1, 4
8000667e:	4109                                    	s32i.n	a0, a1, 16
80006680:	9169                                    	s32i.n	a6, a1, 36
80006682:	a179                                    	s32i.n	a7, a1, 40
80006684:	b189                                    	s32i.n	a8, a1, 44
80006686:	c199                                    	s32i.n	a9, a1, 48
80006688:	d1a9                                    	s32i.n	a10, a1, 52
8000668a:	e1b9                                    	s32i.n	a11, a1, 56
8000668c:	f1c9                                    	s32i.n	a12, a1, 60
8000668e:	1061d2                                    	s32i	a13, a1, 64
80006691:	1161e2                                    	s32i	a14, a1, 68
80006694:	1261f2                                    	s32i	a15, a1, 72
80006697:	002010                                    	rsync
8000669a:	0061f0                                    	rsil	a15, 1
8000669d:	e888e1                                    	l32r	a14, 800008c0 (80007638 <_xtos_enabled>)
800066a0:	03e2f0                                    	rsr.interrupt	a15
800066a3:	03e4c0                                    	rsr.intenable	a12
800066a6:	1ed8                                    	l32i.n	a13, a14, 4
800066a8:	10ffc0                                    	and	a15, a15, a12
800066ab:	0303c0                                    	rsr.sar	a12
800066ae:	0361d2                                    	s32i	a13, a1, 12
800066b1:	08bf16                                    	beqz	a15, 80006740 <spurious_int>
800066b4:	0261c2                                    	s32i	a12, a1, 8
800066b7:	136122                                    	s32i	a2, a1, 76
800066ba:	ffaf22                                    	movi	a2, -1

800066bd <_xtos_l1int_handler+0x4d>:
800066bd:	40ffc0                                    	nsau	a12, a15
800066c0:	e881f1                                    	l32r	a15, 800008c4 (80000000 <_memmap_mem_sram_start>)
800066c3:	400c00                                    	ssr	a12
800066c6:	91f0f0                                    	srl	a15, a15
800066c9:	3022f0                                    	xor	a2, a2, a15
800066cc:	e87fd1                                    	l32r	a13, 800008c8 (800075a0 <xtos_exc_handler_table+0x6c>)
800066cf:	13e3f0                                    	wsr.intclear	a15
800066d2:	b0ccd0                                    	addx8	a12, a12, a13

800066d5 <_xtos_l1int_handler+0x65>:
800066d5:	182cd2                                    	l32i	a13, a12, 96
800066d8:	0066f0                                    	rsil	a15, 6
800066db:	0ef8                                    	l32i.n	a15, a14, 0
800066dd:	1ed9                                    	s32i.n	a13, a14, 4
800066df:	10ffd0                                    	and	a15, a15, a13
800066e2:	13e4f0                                    	wsr.intenable	a15
800066e5:	002010                                    	rsync
800066e8:	0060f0                                    	rsil	a15, 0
800066eb:	0302d0                                    	rsr.lcount	a13
800066ee:	0300f0                                    	rsr.lbeg	a15
800066f1:	1461d2                                    	s32i	a13, a1, 80
800066f4:	0301d0                                    	rsr.lend	a13
800066f7:	1561f2                                    	s32i	a15, a1, 84
800066fa:	1661d2                                    	s32i	a13, a1, 88
800066fd:	0cd8                                    	l32i.n	a13, a12, 0
800066ff:	02ed                                    	mov.n	a14, a2
80006701:	1c28                                    	l32i.n	a2, a12, 4
80006703:	203110                                    	or	a3, a1, a1
80006706:	000dc0                                    	callx0	a13
80006709:	0e2d                                    	mov.n	a2, a14
8000670b:	1421d2                                    	l32i	a13, a1, 80
8000670e:	1521e2                                    	l32i	a14, a1, 84
80006711:	1621f2                                    	l32i	a15, a1, 88
80006714:	1302d0                                    	wsr.lcount	a13
80006717:	1300e0                                    	wsr.lbeg	a14
8000671a:	1301f0                                    	wsr.lend	a15
8000671d:	e868e1                                    	l32r	a14, 800008c0 (80007638 <_xtos_enabled>)
80006720:	03e2f0                                    	rsr.interrupt	a15
80006723:	0066d0                                    	rsil	a13, 6
80006726:	0ed8                                    	l32i.n	a13, a14, 0
80006728:	31c8                                    	l32i.n	a12, a1, 12
8000672a:	10ddc0                                    	and	a13, a13, a12
8000672d:	10ffd0                                    	and	a15, a15, a13
80006730:	018f56                                    	bnez	a15, 8000674c <preloop>
80006733:	132122                                    	l32i	a2, a1, 76
80006736:	1ec9                                    	s32i.n	a12, a14, 4
80006738:	21c8                                    	l32i.n	a12, a1, 8
8000673a:	13e4d0                                    	wsr.intenable	a13
8000673d:	0064d0                                    	rsil	a13, 4

80006740 <spurious_int>:
80006740:	003120                                    	clrex
80006743:	e86201                                    	l32r	a0, 800008cc (80006de4 <_xtos_return_from_exc>)
80006746:	1303c0                                    	wsr.sar	a12
80006749:	0000a0                                    	jx	a0

8000674c <preloop>:
8000674c:	40ffd0                                    	nsau	a13, a15
8000674f:	e85ec1                                    	l32r	a12, 800008c8 (800075a0 <xtos_exc_handler_table+0x6c>)
80006752:	b0cdc0                                    	addx8	a12, a13, a12
80006755:	192ce2                                    	l32i	a14, a12, 100
80006758:	10ff20                                    	and	a15, a15, a2
8000675b:	10ffe0                                    	and	a15, a15, a14
8000675e:	e858e1                                    	l32r	a14, 800008c0 (80007638 <_xtos_enabled>)
80006761:	f58f56                                    	bnez	a15, 800066bd <_xtos_l1int_handler+0x4d>
80006764:	e858f1                                    	l32r	a15, 800008c4 (80000000 <_memmap_mem_sram_start>)
80006767:	400d00                                    	ssr	a13
8000676a:	91d0f0                                    	srl	a13, a15
8000676d:	192cf2                                    	l32i	a15, a12, 100
80006770:	13e3d0                                    	wsr.intclear	a13
80006773:	2022f0                                    	or	a2, a2, a15
80006776:	3022d0                                    	xor	a2, a2, a13
80006779:	ffd606                                    	j	800066d5 <_xtos_l1int_handler+0x65>

8000677c <_Level2FromVector>:
8000677c:	61d220                                    	xsr.excsave2	a2
8000677f:	ffd112                                    	addmi	a1, a1, 0xffffff00
80006782:	5129                                    	s32i.n	a2, a1, 20
80006784:	422c                                    	movi.n	a2, 36
80006786:	7149                                    	s32i.n	a4, a1, 28
80006788:	8159                                    	s32i.n	a5, a1, 32
8000678a:	13e620                                    	wsr.ps	a2
8000678d:	002010                                    	rsync
80006790:	4109                                    	s32i.n	a0, a1, 16
80006792:	6139                                    	s32i.n	a3, a1, 24
80006794:	9169                                    	s32i.n	a6, a1, 36
80006796:	a179                                    	s32i.n	a7, a1, 40
80006798:	b189                                    	s32i.n	a8, a1, 44
8000679a:	c199                                    	s32i.n	a9, a1, 48
8000679c:	d1a9                                    	s32i.n	a10, a1, 52
8000679e:	e1b9                                    	s32i.n	a11, a1, 56
800067a0:	f1c9                                    	s32i.n	a12, a1, 60
800067a2:	1061d2                                    	s32i	a13, a1, 64
800067a5:	1161e2                                    	s32i	a14, a1, 68
800067a8:	1261f2                                    	s32i	a15, a1, 72
800067ab:	000c                                    	movi.n	a0, 0
800067ad:	0062f0                                    	rsil	a15, 2
800067b0:	0303e0                                    	rsr.sar	a14
800067b3:	80a0c2                                    	movi	a12, 128
800067b6:	21e9                                    	s32i.n	a14, a1, 8
800067b8:	13e3c0                                    	wsr.intclear	a12
800067bb:	0302d0                                    	rsr.lcount	a13
800067be:	0300e0                                    	rsr.lbeg	a14
800067c1:	1461d2                                    	s32i	a13, a1, 80
800067c4:	0301d0                                    	rsr.lend	a13
800067c7:	1561e2                                    	s32i	a14, a1, 84
800067ca:	1661d2                                    	s32i	a13, a1, 88
800067cd:	e840c1                                    	l32r	a12, 800008d0 (80007660 <xtos_interrupt_table+0x20>)
800067d0:	0cd8                                    	l32i.n	a13, a12, 0
800067d2:	1c28                                    	l32i.n	a2, a12, 4
800067d4:	013d                                    	mov.n	a3, a1
800067d6:	000dc0                                    	callx0	a13
800067d9:	1421d2                                    	l32i	a13, a1, 80
800067dc:	1521e2                                    	l32i	a14, a1, 84
800067df:	1621f2                                    	l32i	a15, a1, 88
800067e2:	1302d0                                    	wsr.lcount	a13
800067e5:	1300e0                                    	wsr.lbeg	a14
800067e8:	1301f0                                    	wsr.lend	a15
800067eb:	21e8                                    	l32i.n	a14, a1, 8

800067ed <spurious2int>:
800067ed:	003120                                    	clrex
800067f0:	1303e0                                    	wsr.sar	a14
800067f3:	4108                                    	l32i.n	a0, a1, 16
800067f5:	5128                                    	l32i.n	a2, a1, 20
800067f7:	6138                                    	l32i.n	a3, a1, 24
800067f9:	7148                                    	l32i.n	a4, a1, 28
800067fb:	8158                                    	l32i.n	a5, a1, 32
800067fd:	9168                                    	l32i.n	a6, a1, 36
800067ff:	a178                                    	l32i.n	a7, a1, 40
80006801:	b188                                    	l32i.n	a8, a1, 44
80006803:	c198                                    	l32i.n	a9, a1, 48
80006805:	d1a8                                    	l32i.n	a10, a1, 52
80006807:	e1b8                                    	l32i.n	a11, a1, 56
80006809:	f1c8                                    	l32i.n	a12, a1, 60
8000680b:	1021d2                                    	l32i	a13, a1, 64
8000680e:	1121e2                                    	l32i	a14, a1, 68
80006811:	1221f2                                    	l32i	a15, a1, 72
80006814:	01d112                                    	addmi	a1, a1, 0x100
80006817:	003210                                    	rfi	2

8000681a <spurious2int+0x2d>:
	...

8000681c <_Level3FromVector>:
8000681c:	61d320                                    	xsr.excsave3	a2
8000681f:	ffd112                                    	addmi	a1, a1, 0xffffff00
80006822:	5129                                    	s32i.n	a2, a1, 20
80006824:	422c                                    	movi.n	a2, 36
80006826:	7149                                    	s32i.n	a4, a1, 28
80006828:	8159                                    	s32i.n	a5, a1, 32
8000682a:	13e620                                    	wsr.ps	a2
8000682d:	002010                                    	rsync
80006830:	4109                                    	s32i.n	a0, a1, 16
80006832:	6139                                    	s32i.n	a3, a1, 24
80006834:	9169                                    	s32i.n	a6, a1, 36
80006836:	a179                                    	s32i.n	a7, a1, 40
80006838:	b189                                    	s32i.n	a8, a1, 44
8000683a:	c199                                    	s32i.n	a9, a1, 48
8000683c:	d1a9                                    	s32i.n	a10, a1, 52
8000683e:	e1b9                                    	s32i.n	a11, a1, 56
80006840:	f1c9                                    	s32i.n	a12, a1, 60
80006842:	1061d2                                    	s32i	a13, a1, 64
80006845:	1161e2                                    	s32i	a14, a1, 68
80006848:	1261f2                                    	s32i	a15, a1, 72
8000684b:	000c                                    	movi.n	a0, 0
8000684d:	0063f0                                    	rsil	a15, 3
80006850:	0303e0                                    	rsr.sar	a14
80006853:	00a1c2                                    	movi	a12, 0x100
80006856:	21e9                                    	s32i.n	a14, a1, 8
80006858:	13e3c0                                    	wsr.intclear	a12
8000685b:	0302d0                                    	rsr.lcount	a13
8000685e:	0300e0                                    	rsr.lbeg	a14
80006861:	1461d2                                    	s32i	a13, a1, 80
80006864:	0301d0                                    	rsr.lend	a13
80006867:	1561e2                                    	s32i	a14, a1, 84
8000686a:	1661d2                                    	s32i	a13, a1, 88
8000686d:	e819c1                                    	l32r	a12, 800008d4 (80007658 <xtos_interrupt_table+0x18>)
80006870:	0cd8                                    	l32i.n	a13, a12, 0
80006872:	1c28                                    	l32i.n	a2, a12, 4
80006874:	013d                                    	mov.n	a3, a1
80006876:	000dc0                                    	callx0	a13
80006879:	1421d2                                    	l32i	a13, a1, 80
8000687c:	1521e2                                    	l32i	a14, a1, 84
8000687f:	1621f2                                    	l32i	a15, a1, 88
80006882:	1302d0                                    	wsr.lcount	a13
80006885:	1300e0                                    	wsr.lbeg	a14
80006888:	1301f0                                    	wsr.lend	a15
8000688b:	21e8                                    	l32i.n	a14, a1, 8

8000688d <spurious3int>:
8000688d:	003120                                    	clrex
80006890:	1303e0                                    	wsr.sar	a14
80006893:	4108                                    	l32i.n	a0, a1, 16
80006895:	5128                                    	l32i.n	a2, a1, 20
80006897:	6138                                    	l32i.n	a3, a1, 24
80006899:	7148                                    	l32i.n	a4, a1, 28
8000689b:	8158                                    	l32i.n	a5, a1, 32
8000689d:	9168                                    	l32i.n	a6, a1, 36
8000689f:	a178                                    	l32i.n	a7, a1, 40
800068a1:	b188                                    	l32i.n	a8, a1, 44
800068a3:	c198                                    	l32i.n	a9, a1, 48
800068a5:	d1a8                                    	l32i.n	a10, a1, 52
800068a7:	e1b8                                    	l32i.n	a11, a1, 56
800068a9:	f1c8                                    	l32i.n	a12, a1, 60
800068ab:	1021d2                                    	l32i	a13, a1, 64
800068ae:	1121e2                                    	l32i	a14, a1, 68
800068b1:	1221f2                                    	l32i	a15, a1, 72
800068b4:	01d112                                    	addmi	a1, a1, 0x100
800068b7:	003310                                    	rfi	3

800068ba <spurious3int+0x2d>:
	...

800068bc <_Level4FromVector>:
800068bc:	61d420                                    	xsr.excsave4	a2
800068bf:	ffd112                                    	addmi	a1, a1, 0xffffff00
800068c2:	5129                                    	s32i.n	a2, a1, 20
800068c4:	422c                                    	movi.n	a2, 36
800068c6:	7149                                    	s32i.n	a4, a1, 28
800068c8:	8159                                    	s32i.n	a5, a1, 32
800068ca:	13e620                                    	wsr.ps	a2
800068cd:	002010                                    	rsync
800068d0:	4109                                    	s32i.n	a0, a1, 16
800068d2:	6139                                    	s32i.n	a3, a1, 24
800068d4:	9169                                    	s32i.n	a6, a1, 36
800068d6:	a179                                    	s32i.n	a7, a1, 40
800068d8:	b189                                    	s32i.n	a8, a1, 44
800068da:	c199                                    	s32i.n	a9, a1, 48
800068dc:	d1a9                                    	s32i.n	a10, a1, 52
800068de:	e1b9                                    	s32i.n	a11, a1, 56
800068e0:	f1c9                                    	s32i.n	a12, a1, 60
800068e2:	1061d2                                    	s32i	a13, a1, 64
800068e5:	1161e2                                    	s32i	a14, a1, 68
800068e8:	1261f2                                    	s32i	a15, a1, 72
800068eb:	000c                                    	movi.n	a0, 0
800068ed:	0064f0                                    	rsil	a15, 4
800068f0:	0303e0                                    	rsr.sar	a14
800068f3:	00a2c2                                    	movi	a12, 0x200
800068f6:	21e9                                    	s32i.n	a14, a1, 8
800068f8:	13e3c0                                    	wsr.intclear	a12
800068fb:	0302d0                                    	rsr.lcount	a13
800068fe:	0300e0                                    	rsr.lbeg	a14
80006901:	1461d2                                    	s32i	a13, a1, 80
80006904:	0301d0                                    	rsr.lend	a13
80006907:	1561e2                                    	s32i	a14, a1, 84
8000690a:	1661d2                                    	s32i	a13, a1, 88
8000690d:	e7f2c1                                    	l32r	a12, 800008d8 (80007650 <xtos_interrupt_table+0x10>)
80006910:	0cd8                                    	l32i.n	a13, a12, 0
80006912:	1c28                                    	l32i.n	a2, a12, 4
80006914:	013d                                    	mov.n	a3, a1
80006916:	000dc0                                    	callx0	a13
80006919:	1421d2                                    	l32i	a13, a1, 80
8000691c:	1521e2                                    	l32i	a14, a1, 84
8000691f:	1621f2                                    	l32i	a15, a1, 88
80006922:	1302d0                                    	wsr.lcount	a13
80006925:	1300e0                                    	wsr.lbeg	a14
80006928:	1301f0                                    	wsr.lend	a15
8000692b:	21e8                                    	l32i.n	a14, a1, 8

8000692d <spurious4int>:
8000692d:	003120                                    	clrex
80006930:	1303e0                                    	wsr.sar	a14
80006933:	4108                                    	l32i.n	a0, a1, 16
80006935:	5128                                    	l32i.n	a2, a1, 20
80006937:	6138                                    	l32i.n	a3, a1, 24
80006939:	7148                                    	l32i.n	a4, a1, 28
8000693b:	8158                                    	l32i.n	a5, a1, 32
8000693d:	9168                                    	l32i.n	a6, a1, 36
8000693f:	a178                                    	l32i.n	a7, a1, 40
80006941:	b188                                    	l32i.n	a8, a1, 44
80006943:	c198                                    	l32i.n	a9, a1, 48
80006945:	d1a8                                    	l32i.n	a10, a1, 52
80006947:	e1b8                                    	l32i.n	a11, a1, 56
80006949:	f1c8                                    	l32i.n	a12, a1, 60
8000694b:	1021d2                                    	l32i	a13, a1, 64
8000694e:	1121e2                                    	l32i	a14, a1, 68
80006951:	1221f2                                    	l32i	a15, a1, 72
80006954:	01d112                                    	addmi	a1, a1, 0x100
80006957:	003410                                    	rfi	4

8000695a <spurious4int+0x2d>:
	...

8000695c <_Level5FromVector>:
8000695c:	e7e021                                    	l32r	a2, 800008dc (80008850 <_Pri_5_Stack+0x400>)
8000695f:	b209                                    	s32i.n	a0, a2, 44
80006961:	e7df01                                    	l32r	a0, 800008e0 (80007634 <_Pri_5_HandlerAddress>)
80006964:	c219                                    	s32i.n	a1, a2, 48
80006966:	0008                                    	l32i.n	a0, a0, 0
80006968:	e239                                    	s32i.n	a3, a2, 56
8000696a:	61d500                                    	xsr.excsave5	a0
8000696d:	f249                                    	s32i.n	a4, a2, 60
8000696f:	d209                                    	s32i.n	a0, a2, 52
80006971:	03b130                                    	rsr.epc1	a3
80006974:	03e840                                    	rsr.exccause	a4
80006977:	3239                                    	s32i.n	a3, a2, 12
80006979:	4249                                    	s32i.n	a4, a2, 16
8000697b:	03ee30                                    	rsr.excvaddr	a3
8000697e:	5239                                    	s32i.n	a3, a2, 20
80006980:	03d140                                    	rsr.excsave1	a4
80006983:	6249                                    	s32i.n	a4, a2, 24
80006985:	106252                                    	s32i	a5, a2, 64
80006988:	116262                                    	s32i	a6, a2, 68
8000698b:	126272                                    	s32i	a7, a2, 72
8000698e:	136282                                    	s32i	a8, a2, 76
80006991:	146292                                    	s32i	a9, a2, 80
80006994:	1562a2                                    	s32i	a10, a2, 84
80006997:	1662b2                                    	s32i	a11, a2, 88
8000699a:	1762c2                                    	s32i	a12, a2, 92
8000699d:	1862d2                                    	s32i	a13, a2, 96
800069a0:	1962e2                                    	s32i	a14, a2, 100
800069a3:	1a62f2                                    	s32i	a15, a2, 104
800069a6:	e7cd11                                    	l32r	a1, 800008dc (80008850 <_Pri_5_Stack+0x400>)
800069a9:	000c                                    	movi.n	a0, 0
800069ab:	522c                                    	movi.n	a2, 37
800069ad:	13e620                                    	wsr.ps	a2
800069b0:	002010                                    	rsync
800069b3:	0303e0                                    	rsr.sar	a14
800069b6:	01e9                                    	s32i.n	a14, a1, 0
800069b8:	0302e0                                    	rsr.lcount	a14
800069bb:	81e9                                    	s32i.n	a14, a1, 32
800069bd:	0300e0                                    	rsr.lbeg	a14
800069c0:	91e9                                    	s32i.n	a14, a1, 36
800069c2:	0301e0                                    	rsr.lend	a14
800069c5:	a1e9                                    	s32i.n	a14, a1, 40
800069c7:	00a4d2                                    	movi	a13, 0x400
800069ca:	e7c6c1                                    	l32r	a12, 800008e4 (80007640 <xtos_interrupt_table>)
800069cd:	13e3d0                                    	wsr.intclear	a13
800069d0:	2cd8                                    	l32i.n	a13, a12, 8
800069d2:	032c22                                    	l32i	a2, a12, 12
800069d5:	000dc0                                    	callx0	a13
800069d8:	003120                                    	clrex
800069db:	81d8                                    	l32i.n	a13, a1, 32
800069dd:	91e8                                    	l32i.n	a14, a1, 36
800069df:	a1f8                                    	l32i.n	a15, a1, 40
800069e1:	1302d0                                    	wsr.lcount	a13
800069e4:	1300e0                                    	wsr.lbeg	a14
800069e7:	1301f0                                    	wsr.lend	a15
800069ea:	01f8                                    	l32i.n	a15, a1, 0
800069ec:	1303f0                                    	wsr.sar	a15
800069ef:	523c                                    	movi.n	a2, 53
800069f1:	13e620                                    	wsr.ps	a2
800069f4:	002010                                    	rsync
800069f7:	f148                                    	l32i.n	a4, a1, 60
800069f9:	102152                                    	l32i	a5, a1, 64
800069fc:	112162                                    	l32i	a6, a1, 68
800069ff:	122172                                    	l32i	a7, a1, 72
80006a02:	132182                                    	l32i	a8, a1, 76
80006a05:	142192                                    	l32i	a9, a1, 80
80006a08:	1521a2                                    	l32i	a10, a1, 84
80006a0b:	1621b2                                    	l32i	a11, a1, 88
80006a0e:	1721c2                                    	l32i	a12, a1, 92
80006a11:	1821d2                                    	l32i	a13, a1, 96
80006a14:	1921e2                                    	l32i	a14, a1, 100
80006a17:	1a21f2                                    	l32i	a15, a1, 104
80006a1a:	3128                                    	l32i.n	a2, a1, 12
80006a1c:	4138                                    	l32i.n	a3, a1, 16
80006a1e:	13b120                                    	wsr.epc1	a2
80006a21:	13e830                                    	wsr.exccause	a3
80006a24:	5128                                    	l32i.n	a2, a1, 20
80006a26:	13ee20                                    	wsr.excvaddr	a2
80006a29:	6138                                    	l32i.n	a3, a1, 24
80006a2b:	13d130                                    	wsr.excsave1	a3
80006a2e:	b108                                    	l32i.n	a0, a1, 44
80006a30:	d128                                    	l32i.n	a2, a1, 52
80006a32:	e138                                    	l32i.n	a3, a1, 56
80006a34:	c118                                    	l32i.n	a1, a1, 48
80006a36:	003510                                    	rfi	5

80006a39 <_Level5FromVector+0xdd>:
80006a39:	00000000 12000000                                .......

80006a40 <__do_global_ctors_aux>:
80006a40:	f0c112                                    	addi	a1, a1, -16
80006a43:	0109                                    	s32i.n	a0, a1, 0
80006a45:	e7a801                                    	l32r	a0, 800008e8 (800004a0 <_LInf>)
80006a48:	72f1c078c10e                           	{ s32i	a12, a1, 4; l32i	a0, a0, 0x1fc }
80006a4e:	e7a7c1                                    	l32r	a12, 800008ec (8000069c <__CTOR_LIST___153>)
80006a51:	0c0026                                    	beqi	a0, -1, 80006a61 <__do_global_ctors_aux+0x21>
80006a54:	0c38                                    	l32i.n	a3, a12, 0

80006a56 <__do_global_ctors_aux+0x16>:
80006a56:	0003c0                                    	callx0	a3
80006a59:	fcccc2                                    	addi	a12, a12, -4
80006a5c:	0c38                                    	l32i.n	a3, a12, 0
80006a5e:	f40366                                    	bnei	a3, -1, 80006a56 <__do_global_ctors_aux+0x16>

80006a61 <__do_global_ctors_aux+0x21>:
80006a61:	0108                                    	l32i.n	a0, a1, 0
80006a63:	11c8                                    	l32i.n	a12, a1, 4
80006a65:	56027044505e                           	{ ret; addi	a1, a1, 16 }

80006a6b <__do_global_ctors_aux+0x2b>:
80006a6b:	00000000 00000000                                .....

80006a70 <__memcpy_aux>:
	...

80006a7d <__memcpy_aux+0xd>:
80006a7d:	0b9476                                    	loopnez	a4, 80006a8c <__memcpy_aux+0x1c>
80006a80:	5000c14c63ce                           	{ l8ui	a6, a3, 0; addi	a3, a3, 1 }
80006a86:	5000c285654e                           	{ s8i	a6, a5, 0; addi	a5, a5, 1 }

80006a8c <__memcpy_aux+0x1c>:
80006a8c:	f00d                                    	ret.n

80006a8e <__memcpy_aux+0x1e>:
	...

80006a90 <__memcpy_aux+0x20>:
80006a90:	e974b6                                    	bltui	a4, 7, 80006a7d <__memcpy_aux+0xd>
80006a93:	53f1c249630e                           	{ l8ui	a6, a3, 0; addi	a4, a4, -1 }
80006a99:	5000c285654e                           	{ s8i	a6, a5, 0; addi	a5, a5, 1 }
80006a9f:	5004b11415de                           	{ bbci	a5, 1, 80006ac8 <memcpy+0x8>; addi	a3, a3, 1 }

80006aa5 <__memcpy_aux+0x35>:
80006aa5:	d464b6                                    	bltui	a4, 6, 80006a7d <__memcpy_aux+0xd>
80006aa8:	7800c14d63ce                           	{ l8ui	a6, a3, 0; l8ui	a7, a3, 1 }
80006aae:	53f14281650e                           	{ s8i	a6, a5, 0; addi	a4, a4, -2 }
80006ab4:	5001419475ce                           	{ s8i	a7, a5, 1; addi	a3, a3, 2 }
80006aba:	500112050a4e                           	{ j	80006ac8 <memcpy+0x8>; addi	a5, a5, 2 }

80006ac0 <memcpy>:
80006ac0:	025d                                    	mov.n	a5, a2
80006ac2:	cae207                                    	bbsi	a2, 0, 80006a90 <__memcpy_aux+0x20>
80006ac5:	dce217                                    	bbsi	a2, 1, 80006aa5 <__memcpy_aux+0x35>

80006ac8 <memcpy+0x8>:
80006ac8:	a8e6716c449e                           	{ srli	a7, a4, 4; slli	a8, a3, 30 }
80006ace:	06a856                                    	bnez	a8, 80006b3c <memcpy+0x7c>
80006ad1:	199776                                    	loopnez	a7, 80006aee <memcpy+0x2e>
80006ad4:	7000c14563ce                           	{ l32i	a6, a3, 0; l32i	a7, a3, 4 }
80006ada:	0569                                    	s32i.n	a6, a5, 0
80006adc:	2368                                    	l32i.n	a6, a3, 8
80006ade:	1579                                    	s32i.n	a7, a5, 4
80006ae0:	5202415473ce                           	{ l32i	a7, a3, 12; addi	a3, a3, 16 }
80006ae6:	2569                                    	s32i.n	a6, a5, 8
80006ae8:	5202427d754e                           	{ s32i	a7, a5, 12; addi	a5, a5, 16 }

80006aee <memcpy+0x2e>:
80006aee:	116437                                    	bbci	a4, 3, 80006b03 <memcpy+0x43>
80006af1:	7000c14563ce                           	{ l32i	a6, a3, 0; l32i	a7, a3, 4 }
80006af7:	5020416c65ce                           	{ s32i	a6, a5, 0; addi	a3, a3, 8 }
80006afd:	5020427d754e                           	{ s32i	a7, a5, 4; addi	a5, a5, 8 }

80006b03 <memcpy+0x43>:
80006b03:	09e427                                    	bbsi	a4, 2, 80006b10 <memcpy+0x50>
80006b06:	19e417                                    	bbsi	a4, 1, 80006b23 <memcpy+0x63>
80006b09:	27e407                                    	bbsi	a4, 0, 80006b34 <memcpy+0x74>
80006b0c:	f00d                                    	ret.n

80006b0e <memcpy+0x4e>:
	...

80006b10 <memcpy+0x50>:
80006b10:	0368                                    	l32i.n	a6, a3, 0
80006b12:	5010416c65ce                           	{ s32i	a6, a5, 0; addi	a3, a3, 4 }
80006b18:	50163235144e                           	{ bbsi	a4, 1, 80006b23 <memcpy+0x63>; addi	a5, a5, 4 }
80006b1e:	12e407                                    	bbsi	a4, 0, 80006b34 <memcpy+0x74>
80006b21:	f00d                                    	ret.n

80006b23 <memcpy+0x63>:
80006b23:	5001412c63ce                           	{ l16ui	a6, a3, 0; addi	a3, a3, 2 }
80006b29:	50014265654e                           	{ s16i	a6, a5, 0; addi	a5, a5, 2 }
80006b2f:	01e407                                    	bbsi	a4, 0, 80006b34 <memcpy+0x74>
80006b32:	f00d                                    	ret.n

80006b34 <memcpy+0x74>:
80006b34:	000362                                    	l8ui	a6, a3, 0
80006b37:	004562                                    	s8i	a6, a5, 0

80006b3a <memcpy+0x7a>:
80006b3a:	f00d                                    	ret.n

80006b3c <memcpy+0x7c>:
80006b3c:	ffa416                                    	beqz	a4, 80006b3a <memcpy+0x7a>
80006b3f:	4663f742731e                           	{ ssa8l	a3; extui	a11, a8, 30, 2 }
80006b45:	c033b0                                    	sub	a3, a3, a11
80006b48:	7006419d279e                           	{ loopnez	a7, 80006b73 <memcpy+0xb3>; l32i	a6, a3, 0 }
80006b4e:	1378                                    	l32i.n	a7, a3, 4
80006b50:	2388                                    	l32i.n	a8, a3, 8
80006b52:	816760                                    	src	a6, a7, a6
80006b55:	0569                                    	s32i.n	a6, a5, 0
80006b57:	b893c45193ce                           	{ l32i	a9, a3, 12; src	a7, a8, a7 }
80006b5d:	1579                                    	s32i.n	a7, a5, 4
80006b5f:	4368                                    	l32i.n	a6, a3, 16
80006b61:	560e598489fe                           	{ src	a8, a9, a8; addi	a3, a3, 16 }
80006b67:	b8a2c36a854e                           	{ s32i	a8, a5, 8; src	a9, a6, a9 }
80006b6d:	5202427d954e                           	{ s32i	a9, a5, 12; addi	a5, a5, 16 }

80006b73 <memcpy+0xb3>:
80006b73:	196437                                    	bbci	a4, 3, 80006b90 <memcpy+0xd0>
80006b76:	70014156730e                           	{ l32i	a7, a3, 4; l32i	a8, a3, 8 }
80006b7c:	338b                                    	addi.n	a3, a3, 8
80006b7e:	bc9fdc6167fe                           	{ src	a6, a7, a6; src	a7, a8, a7 }
80006b84:	006562                                    	s32i	a6, a5, 0
80006b87:	206880                                    	or	a6, a8, a8
80006b8a:	5020427d754e                           	{ s32i	a7, a5, 4; addi	a5, a5, 8 }

80006b90 <memcpy+0xd0>:
80006b90:	0f6427                                    	bbci	a4, 2, 80006ba3 <memcpy+0xe3>
80006b93:	1378                                    	l32i.n	a7, a3, 4
80006b95:	b8953345338e                           	{ addi	a3, a3, 4; src	a6, a7, a6 }
80006b9b:	5010426d654e                           	{ s32i	a6, a5, 0; addi	a5, a5, 4 }
80006ba1:	076d                                    	mov.n	a6, a7

80006ba3 <memcpy+0xe3>:
80006ba3:	b089b13614ce                           	{ bbsi	a4, 1, 80006bb0 <memcpy+0xf0>; add	a3, a3, a11 }
80006ba9:	1ae407                                    	bbsi	a4, 0, 80006bc7 <memcpy+0x107>
80006bac:	f00d                                    	ret.n

80006bae <memcpy+0xee>:
	...

80006bb0 <memcpy+0xf0>:
80006bb0:	7800c14d63ce                           	{ l8ui	a6, a3, 0; l8ui	a7, a3, 1 }
80006bb6:	5001418465ce                           	{ s8i	a6, a5, 0; addi	a3, a3, 2 }
80006bbc:	50014295754e                           	{ s8i	a7, a5, 1; addi	a5, a5, 2 }
80006bc2:	01e407                                    	bbsi	a4, 0, 80006bc7 <memcpy+0x107>
80006bc5:	f00d                                    	ret.n

80006bc7 <memcpy+0x107>:
80006bc7:	000362                                    	l8ui	a6, a3, 0
80006bca:	004562                                    	s8i	a6, a5, 0
80006bcd:	f00d                                    	ret.n

80006bcf <memcpy+0x10f>:
	...

80006bd0 <memchr>:
80006bd0:	41cdc09824ce                           	{ loopnez	a4, 80006be1 <memchr+0x11>; extui	a3, a3, 0, 8 }
80006bd6:	000252                                    	l8ui	a5, a2, 0
80006bd9:	53fbb2a1350e                           	{ beq	a5, a3, 80006be7 <memchr+0x17>; addi	a4, a4, -1 }
80006bdf:	221b                                    	addi.n	a2, a2, 1

80006be1 <memchr+0x11>:
80006be1:	94027040509e                           	{ ret; movi	a2, 0 }

80006be7 <memchr+0x17>:
80006be7:	f00d                                    	ret.n

80006be9 <memchr+0x19>:
80006be9:	00000000 00000000                                .......

80006bf0 <__memset_aux>:
	...

80006bf1 <__memset_aux+0x1>:
80006bf1:	059476                                    	loopnez	a4, 80006bfa <__memset_aux+0xa>
80006bf4:	5000c285354e                           	{ s8i	a3, a5, 0; addi	a5, a5, 1 }

80006bfa <__memset_aux+0xa>:
80006bfa:	f00d                                    	ret.n

80006bfc <__memset_aux+0xc>:
80006bfc:	f184b6                                    	bltui	a4, 8, 80006bf1 <__memset_aux+0x1>
80006bff:	5000c285354e                           	{ s8i	a3, a5, 0; addi	a5, a5, 1 }
80006c05:	53fbb201151e                           	{ bbci	a5, 1, 80006c33 <memset+0x17>; addi	a4, a4, -1 }

80006c0b <__memset_aux+0x1b>:
80006c0b:	e284b6                                    	bltui	a4, 8, 80006bf1 <__memset_aux+0x1>
80006c0e:	53f14261350e                           	{ s16i	a3, a5, 0; addi	a4, a4, -2 }
80006c14:	500112051b4e                           	{ j	80006c33 <memset+0x17>; addi	a5, a5, 2 }

80006c1a <__memset_aux+0x2a>:
	...

80006c1c <memset>:
80006c1c:	743030                                    	extui	a3, a3, 0, 8
80006c1f:	117380                                    	slli	a7, a3, 8
80006c22:	203370                                    	or	a3, a3, a7
80006c25:	117300                                    	slli	a7, a3, 16
80006c28:	025d                                    	mov.n	a5, a2
80006c2a:	ba0fb92502ee                           	{ bbsi	a2, 0, 80006bfc <__memset_aux+0xc>; or	a3, a3, a7 }
80006c30:	d7e217                                    	bbsi	a2, 1, 80006c0b <__memset_aux+0x1b>

80006c33 <memset+0x17>:
80006c33:	417440                                    	srli	a7, a4, 4
80006c36:	0b9776                                    	loopnez	a7, 80006c45 <memset+0x29>
80006c39:	0539                                    	s32i.n	a3, a5, 0
80006c3b:	1539                                    	s32i.n	a3, a5, 4
80006c3d:	2539                                    	s32i.n	a3, a5, 8
80006c3f:	5202427d354e                           	{ s32i	a3, a5, 12; addi	a5, a5, 16 }

80006c45 <memset+0x29>:
80006c45:	076437                                    	bbci	a4, 3, 80006c50 <memset+0x34>
80006c48:	0539                                    	s32i.n	a3, a5, 0
80006c4a:	5020427d354e                           	{ s32i	a3, a5, 4; addi	a5, a5, 8 }

80006c50 <memset+0x34>:
80006c50:	056427                                    	bbci	a4, 2, 80006c59 <memset+0x3d>
80006c53:	5010426d354e                           	{ s32i	a3, a5, 0; addi	a5, a5, 4 }

80006c59 <memset+0x3d>:
80006c59:	056417                                    	bbci	a4, 1, 80006c62 <memset+0x46>
80006c5c:	50014265354e                           	{ s16i	a3, a5, 0; addi	a5, a5, 2 }

80006c62 <memset+0x46>:
80006c62:	026407                                    	bbci	a4, 0, 80006c68 <memset+0x4c>
80006c65:	004532                                    	s8i	a3, a5, 0

80006c68 <memset+0x4c>:
80006c68:	f00d                                    	ret.n

80006c6a <memset+0x4e>:
80006c6a:	00000000 624e0000                                ......

80006c70 <strchr>:
80006c70:	53c0404c624e                           	{ l8ui	a6, a2, 0; addi	a1, a1, -16 }
80006c76:	41c1c06801ce                           	{ s32i	a0, a1, 0; extui	a3, a3, 0, 8 }
80006c7c:	f03d                                    	nop.n
80006c7e:	101637                                    	beq	a6, a3, 80006c92 <strchr+0x22>
80006c81:	0a8076                                    	loop	a0, 80006c8f <strchr+0x1f>
80006c84:	269c                                    	beqz.n	a6, 80006c9a <strchr+0x2a>
80006c86:	010262                                    	l8ui	a6, a2, 1
80006c89:	5004b1b0368e                           	{ beq	a6, a3, 80006c92 <strchr+0x22>; addi	a2, a2, 1 }

80006c8f <strchr+0x1f>:
80006c8f:	fffb86                                    	j	80006c81 <strchr+0x11>

80006c92 <strchr+0x22>:
80006c92:	0108                                    	l32i.n	a0, a1, 0
80006c94:	56027044505e                           	{ ret; addi	a1, a1, 16 }

80006c9a <strchr+0x2a>:
80006c9a:	0108                                    	l32i.n	a0, a1, 0
80006c9c:	020c                                    	movi.n	a2, 0
80006c9e:	56027044505e                           	{ ret; addi	a1, a1, 16 }

80006ca4 <strchr+0x34>:
	...

80006cb0 <strrchr>:
80006cb0:	45db584822fe                           	{ or	a5, a2, a2; extui	a6, a3, 0, 8 }
80006cb6:	90001000068e                           	{ j	80006cc0 <strrchr+0x10>; movi	a2, 0 }

80006cbc <strrchr+0xc>:
	...

80006cbe <strrchr+0xe>:
80006cbe:	551b                                    	addi.n	a5, a5, 1

80006cc0 <strrchr+0x10>:
80006cc0:	000532                                    	l8ui	a3, a5, 0
80006cc3:	c04360                                    	sub	a4, a3, a6
80006cc6:	b38f52fd432e                           	{ bnez	a3, 80006cbe <strrchr+0xe>; moveqz	a2, a5, a4 }
80006ccc:	f00d                                    	ret.n

80006cce <strrchr+0x1e>:
	...

80006cd0 <_Mtxinit>:
80006cd0:	f00d                                    	ret.n

80006cd2 <_Mtxinit+0x2>:
	...

80006cd4 <_Mtxdst>:
80006cd4:	f00d                                    	ret.n

80006cd6 <_Mtxdst+0x2>:
	...

80006cd8 <_Mtxlock>:
80006cd8:	f00d                                    	ret.n

80006cda <_Mtxlock+0x2>:
	...

80006cdc <_Mtxunlock>:
80006cdc:	f00d                                    	ret.n

80006cde <_Mtxunlock+0x2>:
	...

80006ce0 <strnlen_s>:
80006ce0:	f0c112                                    	addi	a1, a1, -16
80006ce3:	0109                                    	s32i.n	a0, a1, 0
80006ce5:	72ac                                    	beqz.n	a2, 80006d10 <strnlen_s+0x30>
80006ce7:	be10d108a38e                           	{ beqz	a3, 80006d05 <strnlen_s+0x25>; or	a5, a2, a2 }
80006ced:	000202                                    	l8ui	a0, a2, 0
80006cf0:	109c                                    	beqz.n	a0, 80006d05 <strnlen_s+0x25>
80006cf2:	0c8076                                    	loop	a0, 80006d02 <strnlen_s+0x22>
80006cf5:	330b                                    	addi.n	a3, a3, -1
80006cf7:	5400d205a34e                           	{ beqz	a3, 80006d05 <strnlen_s+0x25>; addi	a5, a5, 1 }
80006cfd:	000542                                    	l8ui	a4, a5, 0
80006d00:	148c                                    	beqz.n	a4, 80006d05 <strnlen_s+0x25>

80006d02 <strnlen_s+0x22>:
80006d02:	fffb06                                    	j	80006cf2 <strnlen_s+0x12>

80006d05 <strnlen_s+0x25>:
80006d05:	0108                                    	l32i.n	a0, a1, 0
80006d07:	c02520                                    	sub	a2, a5, a2
80006d0a:	56027044505e                           	{ ret; addi	a1, a1, 16 }

80006d10 <strnlen_s+0x30>:
80006d10:	020c                                    	movi.n	a2, 0
80006d12:	56027044505e                           	{ ret; addi	a1, a1, 16 }

80006d18 <strnlen_s+0x38>:
	...

80006d20 <_Closreg>:
80006d20:	f00d                                    	ret.n

80006d22 <_Closreg+0x2>:
	...

80006d30 <ldiv>:
80006d30:	025d                                    	mov.n	a5, a2
80006d32:	d22230                                    	quos	a2, a2, a3
80006d35:	823230                                    	mull	a3, a2, a3
80006d38:	be83f24450de                           	{ ret; sub	a3, a5, a3 }

80006d3e <ldiv+0xe>:
	...

80006d40 <div>:
80006d40:	025d                                    	mov.n	a5, a2
80006d42:	d22230                                    	quos	a2, a2, a3
80006d45:	823230                                    	mull	a3, a2, a3
80006d48:	be83f24450de                           	{ ret; sub	a3, a5, a3 }

80006d4e <div+0xe>:
	...

80006d50 <_close_r>:
80006d50:	940a5b4822be                           	{ or	a5, a2, a2; movi	a2, 6 }
80006d56:	005100                                    	simcall
80006d59:	338c                                    	beqz.n	a3, 80006d60 <_close_r+0x10>
80006d5b:	0539                                    	s32i.n	a3, a5, 0
80006d5d:	f00d                                    	ret.n

80006d5f <_close_r+0xf>:
	...

80006d60 <_close_r+0x10>:
80006d60:	f00d                                    	ret.n

80006d62 <_close_r+0x12>:
	...

80006d70 <_unlink_r>:
80006d70:	940a5d4822be                           	{ or	a5, a2, a2; movi	a2, 10 }
80006d76:	005100                                    	simcall
80006d79:	338c                                    	beqz.n	a3, 80006d80 <_unlink_r+0x10>
80006d7b:	0539                                    	s32i.n	a3, a5, 0
80006d7d:	f00d                                    	ret.n

80006d7f <_unlink_r+0xf>:
	...

80006d80 <_unlink_r+0x10>:
80006d80:	f00d                                    	ret.n

80006d82 <_unlink_r+0x12>:
	...

80006d90 <_write_r>:
80006d90:	940a5a6822be                           	{ or	a7, a2, a2; movi	a2, 4 }
80006d96:	005100                                    	simcall
80006d99:	338c                                    	beqz.n	a3, 80006da0 <_write_r+0x10>
80006d9b:	0739                                    	s32i.n	a3, a7, 0
80006d9d:	f00d                                    	ret.n

80006d9f <_write_r+0xf>:
	...

80006da0 <_write_r+0x10>:
80006da0:	f00d                                    	ret.n

80006da2 <_write_r+0x12>:
	...

80006da4 <_xtos_syscall_handler>:
80006da4:	03b130                                    	rsr.epc1	a3
80006da7:	030120                                    	rsr.lend	a2
80006daa:	333b                                    	addi.n	a3, a3, 3
80006dac:	0c9237                                    	bne	a2, a3, 80006dbc <_xtos_syscall_handler+0x18>
80006daf:	030220                                    	rsr.lcount	a2
80006db2:	628c                                    	beqz.n	a2, 80006dbc <_xtos_syscall_handler+0x18>
80006db4:	220b                                    	addi.n	a2, a2, -1
80006db6:	130220                                    	wsr.lcount	a2
80006db9:	030030                                    	rsr.lbeg	a3

80006dbc <_xtos_syscall_handler+0x18>:
80006dbc:	5128                                    	l32i.n	a2, a1, 20
80006dbe:	13b130                                    	wsr.epc1	a3
80006dc1:	6138                                    	l32i.n	a3, a1, 24
80006dc3:	f27c                                    	movi.n	a2, -1
80006dc5:	01d112                                    	addmi	a1, a1, 0x100
80006dc8:	003000                                    	rfe

80006dcb <_xtos_syscall_handler+0x27>:
	...

80006dcc <xtos_unhandled_exception>:
80006dcc:	5128                                    	l32i.n	a2, a1, 20
80006dce:	6138                                    	l32i.n	a3, a1, 24
80006dd0:	01d112                                    	addmi	a1, a1, 0x100
80006dd3:	004110                                    	break	1, 1
80006dd6:	003000                                    	rfe

80006dd9 <xtos_unhandled_exception+0xd>:
80006dd9:	000000                                        ...

80006ddc <xtos_unhandled_interrupt>:
80006ddc:	0041f0                                    	break	1, 15
80006ddf:	f00d                                    	ret.n

80006de1 <xtos_unhandled_interrupt+0x5>:
80006de1:	000000                                        ...

80006de4 <_xtos_return_from_exc>:
80006de4:	4108                                    	l32i.n	a0, a1, 16
80006de6:	7148                                    	l32i.n	a4, a1, 28
80006de8:	8158                                    	l32i.n	a5, a1, 32
80006dea:	9168                                    	l32i.n	a6, a1, 36
80006dec:	a178                                    	l32i.n	a7, a1, 40
80006dee:	b188                                    	l32i.n	a8, a1, 44
80006df0:	c198                                    	l32i.n	a9, a1, 48
80006df2:	d1a8                                    	l32i.n	a10, a1, 52
80006df4:	e1b8                                    	l32i.n	a11, a1, 56
80006df6:	f1c8                                    	l32i.n	a12, a1, 60
80006df8:	1021d2                                    	l32i	a13, a1, 64
80006dfb:	1121e2                                    	l32i	a14, a1, 68
80006dfe:	1221f2                                    	l32i	a15, a1, 72
80006e01:	0128                                    	l32i.n	a2, a1, 0
80006e03:	1138                                    	l32i.n	a3, a1, 4
80006e05:	13b120                                    	wsr.epc1	a2
80006e08:	13e630                                    	wsr.ps	a3
80006e0b:	5128                                    	l32i.n	a2, a1, 20
80006e0d:	6138                                    	l32i.n	a3, a1, 24
80006e0f:	002010                                    	rsync
80006e12:	01d112                                    	addmi	a1, a1, 0x100
80006e15:	003000                                    	rfe

80006e18 <_xtos_return_from_exc+0x34>:
	...

80006e20 <xthal_dcache_all_writeback>:
80006e20:	80a022                                    	movi	a2, 128
80006e23:	030c                                    	movi.n	a3, 0
80006e25:	0e8276                                    	loop	a2, 80006e37 <xthal_dcache_all_writeback+0x17>
80006e28:	047382                                    	diwb	a3, 0
80006e2b:	447382                                    	diwb	a3, 64
80006e2e:	847382                                    	diwb	a3, 128
80006e31:	c47382                                    	diwb	a3, 192
80006e34:	01d332                                    	addmi	a3, a3, 0x100

80006e37 <xthal_dcache_all_writeback+0x17>:
80006e37:	f00d                                    	ret.n

80006e39 <xthal_dcache_all_writeback+0x19>:
80006e39:	00000000 7e000000                                .......

80006e40 <__udivdi3>:
80006e40:	554a5884447e                           	{ or	a8, a4, a4; addi	a1, a1, -96 }
80006e46:	be2b598c22fe                           	{ or	a9, a2, a2; or	a10, a3, a3 }
80006e4c:	940150ca05ce                           	{ beqz	a5, 80006f20 <__udivdi3+0xe0>; movi	a11, 32 }
80006e52:	bb8eb2c5530e                           	{ bgeu	a3, a5, 80006e64 <__udivdi3+0x24>; nsau	a4, a5 }
80006e58:	9400500020ee                           	{ movi	a2, 0; movi	a3, 0 }
80006e5e:	54c27044505e                           	{ ret; addi	a1, a1, 96 }

80006e64 <__udivdi3+0x24>:
80006e64:	be93552dc40e                           	{ beqz	a4, 800070a4 <__udivdi3+0x264>; sub	a6, a11, a4 }
80006e6a:	400600                                    	ssr	a6
80006e6d:	cc01419c34ce                           	{ ssl	a4; srl	a2, a3 }
80006e73:	bc9fd9a6857e                           	{ src	a10, a5, a8; src	a7, a3, a9 }
80006e79:	4fd4c07a718e                           	{ s32i	a7, a1, 84; extui	a5, a10, 16, 16 }
80006e7f:	4de5c06a518e                           	{ s32i	a5, a1, 80; extui	a11, a10, 0, 16 }
80006e85:	e26250                                    	remu	a6, a2, a5
80006e88:	c25250                                    	quou	a5, a2, a5
80006e8b:	bfe6583a5b3e                           	{ mull	a3, a11, a5; ssai	16 }
80006e91:	bc93436951ce                           	{ s32i	a5, a1, 72; src	a6, a6, a7 }
80006e97:	be0733c1368e                           	{ bgeu	a6, a3, 80006eb1 <__udivdi3+0x71>; or	a2, a6, a6 }
80006e9d:	2a6a                                    	add.n	a2, a10, a6
80006e9f:	53ffb2e5a24e                           	{ bltu	a2, a10, 80006eb1 <__udivdi3+0x71>; addi	a5, a5, -1 }
80006ea5:	08b237                                    	bgeu	a2, a3, 80006eb1 <__udivdi3+0x71>
80006ea8:	122152                                    	l32i	a5, a1, 72
80006eab:	b48f3d4055be                           	{ addi	a5, a5, -2; add	a2, a10, a2 }
80006eb1:	be95c14031ce                           	{ l32i	a3, a1, 80; sub	a7, a2, a3 }
80006eb7:	aed4c254610e                           	{ l32i	a6, a1, 84; slli	a5, a5, 16 }
80006ebd:	c22730                                    	quou	a2, a7, a3
80006ec0:	c446dab82b7e                           	{ mull	a11, a11, a2; ssl	a4 }
80006ec6:	e27730                                    	remu	a7, a7, a3
80006ec9:	0fc2437d218e                           	{ s32i	a2, a1, 76; depbits	a6, a7, 16, 16 }
80006ecf:	be07b3c1b68e                           	{ bgeu	a6, a11, 80006ee9 <__udivdi3+0xa9>; or	a3, a6, a6 }
80006ed5:	3a6a                                    	add.n	a3, a10, a6
80006ed7:	53ffb1e0a38e                           	{ bltu	a3, a10, 80006ee9 <__udivdi3+0xa9>; addi	a2, a2, -1 }
80006edd:	08b3b7                                    	bgeu	a3, a11, 80006ee9 <__udivdi3+0xa9>
80006ee0:	132122                                    	l32i	a2, a1, 76
80006ee3:	b48fbd4022fe                           	{ addi	a2, a2, -2; add	a3, a10, a3 }
80006ee9:	be10f1b1f85e                           	{ sll	a10, a8; or	a5, a2, a5 }
80006eef:	a285a0                                    	muluh	a8, a5, a10
80006ef2:	be87d9b6a5fe                           	{ mull	a10, a5, a10; sub	a3, a3, a11 }
80006ef8:	ba0b32f5834e                           	{ bltu	a3, a8, 80006f07 <__udivdi3+0xc7>; or	a2, a5, a5 }
80006efe:	bdd14416830e                           	{ bne	a3, a8, 80006f13 <__udivdi3+0xd3>; sll	a6, a9 }
80006f04:	0bb6a7                                    	bgeu	a6, a10, 80006f13 <__udivdi3+0xd3>

80006f07 <__udivdi3+0xc7>:
80006f07:	57f1d20430ae                           	{ movi	a3, 0; addi	a2, a5, -1 }
80006f0d:	54c27044505e                           	{ ret; addi	a1, a1, 96 }

80006f13 <__udivdi3+0xd3>:
80006f13:	030c                                    	movi.n	a3, 0
80006f15:	54c27044505e                           	{ ret; addi	a1, a1, 96 }

80006f1b <__udivdi3+0xdb>:
80006f1b:	00000000 89434f00                                .....

80006f20 <__udivdi3+0xe0>:
80006f20:	c085c10a89434f                               	{ bgeu.w15	a3, a4, 80006fa6 <__udivdi3+0x166>; nsau	a5, a4 }
80006f27:	a58c                                    	beqz.n	a5, 80006f35 <__udivdi3+0xf5>
80006f29:	401500                                    	ssl	a5
80006f2c:	a14400                                    	sll	a4, a4
80006f2f:	bdcf592a233e                           	{ src	a3, a3, a2; sll	a2, a2 }

80006f35 <__udivdi3+0xf5>:
80006f35:	4fefa881402e                           	{ extui	a8, a4, 0, 16; extui	a11, a4, 16, 16 }
80006f3b:	e273b0                                    	remu	a7, a3, a11
80006f3e:	c2a3b0                                    	quou	a10, a3, a11
80006f41:	bfe6583aa83e                           	{ mull	a3, a8, a10; ssai	16 }
80006f47:	be2edd6a27be                           	{ src	a7, a7, a2; or	a9, a10, a10 }
80006f4d:	be12b3d537ce                           	{ bgeu	a7, a3, 80006f64 <__udivdi3+0x124>; or	a5, a7, a7 }
80006f53:	574a                                    	add.n	a5, a7, a4
80006f55:	53fbb5f2454e                           	{ bltu	a5, a4, 80006f64 <__udivdi3+0x124>; addi	a9, a10, -1 }
80006f5b:	05b537                                    	bgeu	a5, a3, 80006f64 <__udivdi3+0x124>
80006f5e:	b49eba419a7e                           	{ addi	a9, a10, -2; add	a5, a4, a5 }
80006f64:	c05530                                    	sub	a5, a5, a3
80006f67:	e265b0                                    	remu	a6, a5, a11
80006f6a:	c255b0                                    	quou	a5, a5, a11
80006f6d:	828850                                    	mull	a8, a8, a5
80006f70:	0bf620                                    	depbits	a2, a6, 16, 16
80006f73:	be0fb2d5824e                           	{ bgeu	a2, a8, 80006f96 <__udivdi3+0x156>; or	a3, a5, a5 }
80006f79:	224a                                    	add.n	a2, a2, a4
80006f7b:	57f7b2f442ce                           	{ bltu	a2, a4, 80006f96 <__udivdi3+0x156>; addi	a3, a5, -1 }
80006f81:	11b287                                    	bgeu	a2, a8, 80006f96 <__udivdi3+0x156>
80006f84:	53ff5a3409ee                           	{ slli	a2, a9, 16; addi	a3, a5, -2 }
80006f8a:	ba01314411be                           	{ addi	a1, a1, 96; or	a2, a3, a2 }
80006f90:	9402704050de                           	{ ret; movi	a3, 0 }

80006f96 <__udivdi3+0x156>:
80006f96:	112900                                    	slli	a2, a9, 16
80006f99:	ba01314411be                           	{ addi	a1, a1, 96; or	a2, a3, a2 }
80006f9f:	9402704050de                           	{ ret; movi	a3, 0 }

80006fa5 <__udivdi3+0x165>:
	...

80006fa6 <__udivdi3+0x166>:
80006fa6:	150c                                    	movi.n	a5, 1
80006fa8:	c23540                                    	quou	a3, a5, a4
80006fab:	838340                                    	moveqz	a8, a3, a4
80006fae:	be18742a381e                           	{ nsau	a3, a8; or	a4, a8, a8 }
80006fb4:	bea1d514a3ce                           	{ beqz	a3, 800070c2 <__udivdi3+0x282>; sub	a11, a11, a3 }
80006fba:	401300                                    	ssl	a3
80006fbd:	bdd2449a3b0e                           	{ ssr	a11; sll	a4, a8 }
80006fc3:	cc1fa98640ae                           	{ extui	a8, a4, 0, 16; srl	a7, a10 }
80006fc9:	c44ea9bc406e                           	{ extui	a11, a4, 16, 16; ssl	a3 }
80006fcf:	e267b0                                    	remu	a6, a7, a11
80006fd2:	bdcf592a2a3e                           	{ src	a3, a10, a2; sll	a2, a2 }
80006fd8:	c2a7b0                                    	quou	a10, a7, a11
80006fdb:	bfe6589aa83e                           	{ mull	a9, a8, a10; ssai	16 }
80006fe1:	b89b4378a1ce                           	{ s32i	a10, a1, 44; src	a6, a6, a3 }
80006fe7:	be14b3d1968e                           	{ bgeu	a6, a9, 80007000 <__udivdi3+0x1c0>; or	a5, a6, a6 }
80006fed:	564a                                    	add.n	a5, a6, a4
80006fef:	53fdb5f2458e                           	{ bltu	a5, a4, 80007000 <__udivdi3+0x1c0>; addi	a10, a10, -1 }
80006ff5:	07b597                                    	bgeu	a5, a9, 80007000 <__udivdi3+0x1c0>
80006ff8:	b1a8                                    	l32i.n	a10, a1, 44
80006ffa:	b49eba41aa7e                           	{ addi	a10, a10, -2; add	a5, a4, a5 }
80007000:	c07590                                    	sub	a7, a5, a9
80007003:	c297b0                                    	quou	a9, a7, a11
80007006:	e277b0                                    	remu	a7, a7, a11
80007009:	826890                                    	mull	a6, a8, a9
8000700c:	0bce437c61ce                           	{ s32i	a6, a1, 60; depbits	a3, a7, 16, 16 }
80007012:	be16b1d463ce                           	{ bgeu	a3, a6, 8000702d <__udivdi3+0x1ed>; or	a5, a3, a3 }
80007018:	b49ad92d993e                           	{ or	a3, a9, a9; add	a5, a3, a4 }
8000701e:	53fbb4f6454e                           	{ bltu	a5, a4, 8000702d <__udivdi3+0x1ed>; addi	a9, a9, -1 }
80007024:	05b567                                    	bgeu	a5, a6, 8000702d <__udivdi3+0x1ed>
80007027:	b49eba41937e                           	{ addi	a9, a3, -2; add	a5, a4, a5 }
8000702d:	f138                                    	l32i.n	a3, a1, 60
8000702f:	117a00                                    	slli	a7, a10, 16
80007032:	be1edc3d35fe                           	{ sub	a3, a5, a3; or	a5, a9, a7 }

80007038 <__udivdi3+0x1f8>:
80007038:	e263b0                                    	remu	a6, a3, a11
8000703b:	c2a3b0                                    	quou	a10, a3, a11
8000703e:	bfe6583aa83e                           	{ mull	a3, a8, a10; ssai	16 }
80007044:	b89f4368a18e                           	{ s32i	a10, a1, 56; src	a6, a6, a2 }
8000704a:	be24b3d1368e                           	{ bgeu	a6, a3, 80007063 <__udivdi3+0x223>; or	a9, a6, a6 }
80007050:	964a                                    	add.n	a9, a6, a4
80007052:	53fdb5f2498e                           	{ bltu	a9, a4, 80007063 <__udivdi3+0x223>; addi	a10, a10, -1 }
80007058:	07b937                                    	bgeu	a9, a3, 80007063 <__udivdi3+0x223>
8000705b:	e1a8                                    	l32i.n	a10, a1, 56
8000705d:	b4aeba42aa7e                           	{ addi	a10, a10, -2; add	a9, a4, a9 }
80007063:	c09930                                    	sub	a9, a9, a3
80007066:	e239b0                                    	remu	a3, a9, a11
80007069:	c299b0                                    	quou	a9, a9, a11
8000706c:	828890                                    	mull	a8, a8, a9
8000706f:	0bf320                                    	depbits	a2, a3, 16, 16
80007072:	be0fb4d6824e                           	{ bgeu	a2, a8, 80007095 <__udivdi3+0x255>; or	a3, a9, a9 }
80007078:	224a                                    	add.n	a2, a2, a4
8000707a:	57f7b4f442ce                           	{ bltu	a2, a4, 80007095 <__udivdi3+0x255>; addi	a3, a9, -1 }
80007080:	11b287                                    	bgeu	a2, a8, 80007095 <__udivdi3+0x255>
80007083:	53ff5c340aee                           	{ slli	a2, a10, 16; addi	a3, a9, -2 }
80007089:	ba01314411be                           	{ addi	a1, a1, 96; or	a2, a3, a2 }
8000708f:	be03f245505e                           	{ ret; or	a3, a5, a5 }

80007095 <__udivdi3+0x255>:
80007095:	112a00                                    	slli	a2, a10, 16
80007098:	ba01314411be                           	{ addi	a1, a1, 96; or	a2, a3, a2 }
8000709e:	be03f245505e                           	{ ret; or	a3, a5, a5 }

800070a4 <__udivdi3+0x264>:
800070a4:	023537                                    	bltu	a5, a3, 800070aa <__udivdi3+0x26a>
800070a7:	0b3287                                    	bltu	a2, a8, 800070b6 <__udivdi3+0x276>

800070aa <__udivdi3+0x26a>:
800070aa:	9400500021ee                           	{ movi	a2, 1; movi	a3, 0 }
800070b0:	54c27044505e                           	{ ret; addi	a1, a1, 96 }

800070b6 <__udivdi3+0x276>:
800070b6:	9400500020ee                           	{ movi	a2, 0; movi	a3, 0 }
800070bc:	54c27044505e                           	{ ret; addi	a1, a1, 96 }

800070c2 <__udivdi3+0x282>:
800070c2:	4fefd83a8a3e                           	{ sub	a3, a10, a8; extui	a11, a8, 16, 16 }
800070c8:	4dee10fa6c1e                           	{ j	80007038 <__udivdi3+0x1f8>; extui	a8, a8, 0, 16 }

800070ce <__udivdi3+0x28e>:
	...

800070d0 <__umoddi3>:
800070d0:	0a2c                                    	movi.n	a10, 32
800070d2:	ba20ba41112e                           	{ addi	a1, a1, -64; or	a9, a4, a4 }
800070d8:	ba2e4168018e                           	{ s32i	a0, a1, 56; or	a8, a2, a2 }
800070de:	be0051e4f5ce                           	{ beqz	a5, 800071d1 <__umoddi3+0x101>; or	a0, a3, a3 }
800070e4:	c0c5c302bd530f                               	{ bltu.w15	a3, a5, 800071c9 <__umoddi3+0xf9>; nsau	a4, a5 }
800070eb:	21b416                                    	beqz	a4, 8000730a <__umoddi3+0x23a>
800070ee:	c06a40                                    	sub	a6, a10, a4
800070f1:	c08cc368614e                           	{ s32i	a6, a1, 48; ssr	a6 }
800070f7:	cc11c19c34ce                           	{ ssl	a4; srl	a7, a3 }
800070fd:	bc8f5aae237e                           	{ src	a11, a3, a2; src	a2, a5, a9 }
80007103:	4fdea8a020ae                           	{ extui	a10, a2, 0, 16; extui	a5, a2, 16, 16 }
80007109:	bbec407a510e                           	{ s32i	a5, a1, 52; ssai	16 }
8000710f:	e26750                                    	remu	a6, a7, a5
80007112:	c25750                                    	quou	a5, a7, a5
80007115:	bc975b3a5afe                           	{ mull	a3, a10, a5; src	a6, a6, a11 }
8000711b:	ba0a4379518e                           	{ s32i	a5, a1, 44; or	a0, a6, a6 }
80007121:	7434b0d536ce                           	{ bgeu	a6, a3, 8000713a <__umoddi3+0x6a>; l32i	a7, a1, 52 }
80007127:	026a                                    	add.n	a0, a2, a6
80007129:	53fdb2f5204e                           	{ bltu	a0, a2, 8000713a <__umoddi3+0x6a>; addi	a5, a5, -1 }
8000712f:	07b037                                    	bgeu	a0, a3, 8000713a <__umoddi3+0x6a>
80007132:	b158                                    	l32i.n	a5, a1, 44
80007134:	b48e3940553e                           	{ addi	a5, a5, -2; add	a0, a2, a0 }
8000713a:	c06030                                    	sub	a6, a0, a3
8000713d:	c23670                                    	quou	a3, a6, a7
80007140:	aed6dab43a3e                           	{ mull	a10, a10, a3; slli	a5, a5, 16 }
80007146:	e26670                                    	remu	a6, a6, a7
80007149:	c44e9a10b67e                           	{ depbits	a11, a6, 16, 16; ssl	a4 }
8000714f:	be0635d6abce                           	{ bgeu	a11, a10, 8000716a <__umoddi3+0x9a>; or	a0, a11, a11 }
80007155:	b48a59aa33fe                           	{ or	a11, a3, a3; add	a0, a2, a11 }
8000715b:	53fbb1f420ce                           	{ bltu	a0, a2, 8000716a <__umoddi3+0x9a>; addi	a3, a3, -1 }
80007161:	05b0a7                                    	bgeu	a0, a10, 8000716a <__umoddi3+0x9a>
80007164:	b48e39403b3e                           	{ addi	a3, a11, -2; add	a0, a2, a0 }
8000716a:	be10f1bdf95e                           	{ sll	a11, a9; or	a5, a3, a5 }
80007170:	8235b0                                    	mull	a3, a5, a11
80007173:	a255b0                                    	muluh	a5, a5, a11
80007176:	be8a58a233be                           	{ or	a10, a3, a3; sub	a0, a0, a10 }
8000717c:	be20b2f5504e                           	{ bltu	a0, a5, 80007191 <__umoddi3+0xc1>; or	a9, a5, a5 }
80007182:	bdea4402500e                           	{ bne	a0, a5, 800071a0 <__umoddi3+0xd0>; sll	a8, a8 }
80007188:	083837                                    	bltu	a8, a3, 80007194 <__umoddi3+0xc4>
8000718b:	000446                                    	j	800071a0 <__umoddi3+0xd0>

8000718e <__umoddi3+0xbe>:
8000718e:	000000                                        ...

80007191 <__umoddi3+0xc1>:
80007191:	a18800                                    	sll	a8, a8

80007194 <__umoddi3+0xc4>:
80007194:	c03ab0                                    	sub	a3, a10, a11
80007197:	be5f5d5829fe                           	{ sub	a5, a9, a2; saltu	a6, a10, a3 }
8000719d:	c05560                                    	sub	a5, a5, a6
800071a0:	c02830                                    	sub	a2, a8, a3
800071a3:	be5f5c3850be                           	{ sub	a3, a0, a5; saltu	a6, a8, a2 }
800071a9:	ba8dc145618e                           	{ l32i	a6, a1, 48; sub	a3, a3, a6 }
800071af:	e108                                    	l32i.n	a0, a1, 56
800071b1:	5480409c364e                           	{ ssl	a6; addi	a1, a1, 64 }
800071b7:	bdd3419e340e                           	{ ssr	a4; sll	a6, a3 }
800071bd:	cc05713c339e                           	{ srl	a3, a3; srl	a2, a2 }
800071c3:	be037141509e                           	{ ret; or	a2, a2, a6 }

800071c9 <__umoddi3+0xf9>:
800071c9:	e108                                    	l32i.n	a0, a1, 56
800071cb:	54827044505e                           	{ ret; addi	a1, a1, 64 }

800071d1 <__umoddi3+0x101>:
800071d1:	bb88b2d1437e                           	{ bgeu	a3, a4, 8000723e <__umoddi3+0x16e>; nsau	a5, a4 }
800071d7:	a58c                                    	beqz.n	a5, 800071e5 <__umoddi3+0x115>
800071d9:	401500                                    	ssl	a5
800071dc:	a14400                                    	sll	a4, a4
800071df:	bdcf592a233e                           	{ src	a3, a3, a2; sll	a2, a2 }

800071e5 <__umoddi3+0x115>:
800071e5:	4fef2889402e                           	{ extui	a9, a4, 0, 16; extui	a10, a4, 16, 16 }
800071eb:	e283a0                                    	remu	a8, a3, a10
800071ee:	c203a0                                    	quou	a0, a3, a10
800071f1:	bfe65812093e                           	{ mull	a0, a9, a0; ssai	16 }
800071f7:	818820                                    	src	a8, a8, a2
800071fa:	ba0db4c2080e                           	{ bgeu	a8, a0, 8000720a <__umoddi3+0x13a>; or	a3, a8, a8 }
80007200:	384a                                    	add.n	a3, a8, a4
80007202:	043347                                    	bltu	a3, a4, 8000720a <__umoddi3+0x13a>
80007205:	01b307                                    	bgeu	a3, a0, 8000720a <__umoddi3+0x13a>
80007208:	343a                                    	add.n	a3, a4, a3
8000720a:	c03300                                    	sub	a3, a3, a0
8000720d:	e263a0                                    	remu	a6, a3, a10
80007210:	c233a0                                    	quou	a3, a3, a10
80007213:	823930                                    	mull	a3, a9, a3
80007216:	c48e9a14267e                           	{ depbits	a2, a6, 16, 16; ssr	a5 }
8000721c:	ba0c31c0328e                           	{ bgeu	a2, a3, 8000722c <__umoddi3+0x15c>; or	a0, a2, a2 }
80007222:	024a                                    	add.n	a0, a2, a4
80007224:	043047                                    	bltu	a0, a4, 8000722c <__umoddi3+0x15c>
80007227:	01b037                                    	bgeu	a0, a3, 8000722c <__umoddi3+0x15c>
8000722a:	040a                                    	add.n	a0, a4, a0
8000722c:	ba8f404001ce                           	{ l32i	a0, a1, 56; sub	a2, a0, a3 }
80007232:	9000304011ee                           	{ addi	a1, a1, 64; movi	a3, 0 }
80007238:	cc037144509e                           	{ ret; srl	a2, a2 }

8000723e <__umoddi3+0x16e>:
8000723e:	140c                                    	movi.n	a4, 1
80007240:	c24490                                    	quou	a4, a4, a9
80007243:	839490                                    	moveqz	a9, a4, a9
80007246:	40f950                                    	nsau	a5, a9
80007249:	be1054e6354e                           	{ beqz	a5, 80007330 <__umoddi3+0x260>; or	a4, a9, a9 }
8000724f:	be91c599354e                           	{ ssl	a5; sub	a7, a10, a5 }
80007255:	bdd2449e370e                           	{ ssr	a7; sll	a4, a9 }
8000725b:	cc1f298c40ee                           	{ extui	a9, a4, 0, 16; srl	a6, a3 }
80007261:	c44eaab4406e                           	{ extui	a10, a4, 16, 16; ssl	a5 }
80007267:	e2b6a0                                    	remu	a11, a6, a10
8000726a:	bdcf592a233e                           	{ src	a3, a3, a2; sll	a2, a2 }
80007270:	c286a0                                    	quou	a8, a6, a10
80007273:	bfe65892893e                           	{ mull	a8, a9, a8; ssai	16 }
80007279:	81bb30                                    	src	a11, a11, a3
8000727c:	ba0c35d68bce                           	{ bgeu	a11, a8, 8000728d <__umoddi3+0x1bd>; or	a0, a11, a11 }
80007282:	0b4a                                    	add.n	a0, a11, a4
80007284:	053047                                    	bltu	a0, a4, 8000728d <__umoddi3+0x1bd>
80007287:	02b087                                    	bgeu	a0, a8, 8000728d <__umoddi3+0x1bd>
8000728a:	800400                                    	add	a0, a4, a0
8000728d:	c0b080                                    	sub	a11, a0, a8
80007290:	c28ba0                                    	quou	a8, a11, a10
80007293:	828980                                    	mull	a8, a9, a8
80007296:	e2bba0                                    	remu	a11, a11, a10
80007299:	0bfb30                                    	depbits	a3, a11, 16, 16
8000729c:	ba0c31d483ce                           	{ bgeu	a3, a8, 800072ad <__umoddi3+0x1dd>; or	a0, a3, a3 }
800072a2:	034a                                    	add.n	a0, a3, a4
800072a4:	053047                                    	bltu	a0, a4, 800072ad <__umoddi3+0x1dd>
800072a7:	02b087                                    	bgeu	a0, a8, 800072ad <__umoddi3+0x1dd>
800072aa:	800400                                    	add	a0, a4, a0
800072ad:	c03080                                    	sub	a3, a0, a8

800072b0 <__umoddi3+0x1e0>:
800072b0:	e283a0                                    	remu	a8, a3, a10
800072b3:	c203a0                                    	quou	a0, a3, a10
800072b6:	bfe65812093e                           	{ mull	a0, a9, a0; ssai	16 }
800072bc:	818820                                    	src	a8, a8, a2
800072bf:	ba0fb4c2080e                           	{ bgeu	a8, a0, 800072d1 <__umoddi3+0x201>; or	a3, a8, a8 }
800072c5:	803840                                    	add	a3, a8, a4
800072c8:	053347                                    	bltu	a3, a4, 800072d1 <__umoddi3+0x201>
800072cb:	02b307                                    	bgeu	a3, a0, 800072d1 <__umoddi3+0x201>
800072ce:	803430                                    	add	a3, a4, a3
800072d1:	c03300                                    	sub	a3, a3, a0
800072d4:	e263a0                                    	remu	a6, a3, a10
800072d7:	c233a0                                    	quou	a3, a3, a10
800072da:	823930                                    	mull	a3, a9, a3
800072dd:	0bf620                                    	depbits	a2, a6, 16, 16
800072e0:	ba0c31c0328e                           	{ bgeu	a2, a3, 800072f0 <__umoddi3+0x220>; or	a0, a2, a2 }
800072e6:	024a                                    	add.n	a0, a2, a4
800072e8:	043047                                    	bltu	a0, a4, 800072f0 <__umoddi3+0x220>
800072eb:	01b037                                    	bgeu	a0, a3, 800072f0 <__umoddi3+0x220>
800072ee:	040a                                    	add.n	a0, a4, a0
800072f0:	ba8f404001ce                           	{ l32i	a0, a1, 56; sub	a2, a0, a3 }
800072f6:	400500                                    	ssr	a5
800072f9:	9000304011ee                           	{ addi	a1, a1, 64; movi	a3, 0 }
800072ff:	cc037144509e                           	{ ret; srl	a2, a2 }

80007305 <__umoddi3+0x235>:
80007305:	00000000 02353700                                .....

8000730a <__umoddi3+0x23a>:
8000730a:	023537                                    	bltu	a5, a3, 80007310 <__umoddi3+0x240>
8000730d:	143297                                    	bltu	a2, a9, 80007325 <__umoddi3+0x255>

80007310 <__umoddi3+0x240>:
80007310:	ba8fc041014e                           	{ l32i	a0, a1, 56; sub	a3, a0, a5 }
80007316:	c02890                                    	sub	a2, a8, a9
80007319:	ba50344011ae                           	{ addi	a1, a1, 64; saltu	a4, a8, a2 }
8000731f:	be83f145501e                           	{ ret; sub	a3, a3, a4 }

80007325 <__umoddi3+0x255>:
80007325:	e108                                    	l32i.n	a0, a1, 56
80007327:	54827044505e                           	{ ret; addi	a1, a1, 64 }

8000732d <__umoddi3+0x25d>:
8000732d:	000000                                        ...

80007330 <__umoddi3+0x260>:
80007330:	4fef583a937e                           	{ sub	a3, a3, a9; extui	a10, a9, 16, 16 }
80007336:	4dee90fa765e                           	{ j	800072b0 <__umoddi3+0x1e0>; extui	a9, a9, 0, 16 }

8000733c <_fini>:
8000733c:	e0c112                                    	addi	a1, a1, -32
8000733f:	0109                                    	s32i.n	a0, a1, 0
80007341:	e56b01                                    	l32r	a0, 800008f0 (800009a0 <__do_global_dtors_aux>)
80007344:	f03d                                    	nop.n
80007346:	0000c0                                    	callx0	a0

80007349 <_fini+0xd>:
80007349:	0108                                    	l32i.n	a0, a1, 0
8000734b:	20c112                                    	addi	a1, a1, 32
8000734e:	f00d                                    	ret.n
