
test:     file format elf32-xtensa-le


Disassembly of section .ResetVector.text:

00100000 <_ResetVector>:
  100000:	001406                                    	j	100054 <_ResetHandler>

00100003 <_ResetVector+0x3>:
	...

00100004 <_ResetVector+0x4>:
  100004:	00103024 80007b30 b1c5afed ff7fffff     $0..0{..........
  100014:	ffffff01 00100400 80005f28 00001044     ........(_..D...
	...
  10002c:	00103020 00000000 80006548 8000677c      0......He..|g..
  10003c:	8000681c 800068bc 8000695c 80007634     .h...h..\i..4v..
  10004c:	80000914                                ....

00100050 <_ResetVector+0x50>:
  100050:	00000000                                ....

00100054 <_ResetHandler>:
  100054:	ffec21                                    	l32r	a2, 100004 (103024 <_DoubleExceptionVector_text_end+0x2a7c>)
  100057:	ffec31                                    	l32r	a3, 100008 (80007b30 <_xtos_pso_savearea>)
  10005a:	ffec51                                    	l32r	a5, 10000c (b1c5afed <__stack+0x21c5afed>)
  10005d:	406270                                    	rer	a7, a2
  100060:	144170                                    	extui	a4, a7, 1, 2
  100063:	151466                                    	bnei	a4, 1, 10007c <_ResetHandler+0x28>
  100066:	0348                                    	l32i.n	a4, a3, 0
  100068:	c04450                                    	sub	a4, a4, a5
  10006b:	d4cc                                    	bnez.n	a4, 10007c <_ResetHandler+0x28>
  10006d:	302342                                    	l32i	a4, a3, 192
  100070:	ffe801                                    	l32r	a0, 100010 (ff7fffff <xthals_hw_configid0+0x3ecc2405>)
  100073:	100400                                    	and	a0, a4, a0
  100076:	136100                                    	wsr.memctl	a0
  100079:	000146                                    	j	100082 <_ResetHandler+0x2e>

0010007c <_ResetHandler+0x28>:
  10007c:	ffe601                                    	l32r	a0, 100014 (ffffff01 <__memctl_default>)
  10007f:	136100                                    	wsr.memctl	a0

00100082 <_ResetHandler+0x2e>:
  100082:	000c                                    	movi.n	a0, 0
  100084:	13e400                                    	wsr.intenable	a0
  100087:	0348                                    	l32i.n	a4, a3, 0
  100089:	c04450                                    	sub	a4, a4, a5
  10008c:	0a6717                                    	bbci	a7, 1, 10009a <_ResetHandler+0x46>
  10008f:	fec752                                    	addi	a5, a7, -2
  100092:	937540                                    	movnez	a7, a5, a4
  100095:	14cc                                    	bnez.n	a4, 10009a <_ResetHandler+0x46>
  100097:	0b6727                                    	bbci	a7, 2, 1000a6 <_ResetHandler+0x52>

0010009a <_ResetHandler+0x46>:
  10009a:	ffdf21                                    	l32r	a2, 100018 (100400 <_memmap_vecbase_reset>)
  10009d:	13e720                                    	wsr.vecbase	a2
  1000a0:	006120                                    	rsil	a2, 1
  1000a3:	0a6717                                    	bbci	a7, 1, 1000b1 <_ResetHandler+0x5d>

001000a6 <_ResetHandler+0x52>:
  1000a6:	020c                                    	movi.n	a2, 0
  1000a8:	ffd831                                    	l32r	a3, 100008 (80007b30 <_xtos_pso_savearea>)
  1000ab:	ffdc01                                    	l32r	a0, 10001c (80005f28 <_xtos_core_restore_nw>)
  1000ae:	0000c0                                    	callx0	a0

001000b1 <_ResetHandler+0x5d>:
  1000b1:	ffdb21                                    	l32r	a2, 100020 (1044 <XtosCoreStateSize+0x724>)
  1000b4:	132820                                    	wsr.prefctl	a2
  1000b7:	ffdb21                                    	l32r	a2, 100024 (0 <_Level2HandlerLabel>)
  1000ba:	ffdb31                                    	l32r	a3, 100028 (0 <_Level2HandlerLabel>)
  1000bd:	064216                                    	beqz	a2, 100125 <_ResetHandler+0xd1>
  1000c0:	061316                                    	beqz	a3, 100125 <_ResetHandler+0xd1>
  1000c3:	0338                                    	l32i.n	a3, a3, 0
  1000c5:	05c316                                    	beqz	a3, 100125 <_ResetHandler+0xd1>
  1000c8:	0c0c                                    	movi.n	a12, 0
  1000ca:	1362c0                                    	wsr.cacheadrdis	a12
  1000cd:	135ac0                                    	wsr.mpuenb	a12
  1000d0:	0d0c                                    	movi.n	a13, 0
  1000d2:	fe1c                                    	movi.n	a14, 31
  1000d4:	000206                                    	j	1000e0 <_ResetHandler+0x8c>

001000d7 <_ResetHandler+0x83>:
	...

001000e0 <_ResetHandler+0x8c>:
  1000e0:	0020c0                                    	memw
  1000e3:	50ecd0                                    	wptlb	a13, a12
  1000e6:	dd1b                                    	addi.n	a13, a13, 1
  1000e8:	f43de7                                    	bltu	a13, a14, 1000e0 <_ResetHandler+0x8c>
  1000eb:	13bc                                    	beqz.n	a3, 100120 <_ResetHandler+0xcc>
  1000ed:	b02320                                    	addx8	a2, a3, a2
  1000f0:	000586                                    	j	10010a <_ResetHandler+0xb6>

001000f3 <_ResetHandler+0x9f>:
	...

00100100 <_ResetHandler+0xac>:
  100100:	0020c0                                    	memw
  100103:	50efd0                                    	wptlb	a13, a15
  100106:	ee0b                                    	addi.n	a14, a14, -1
  100108:	439c                                    	beqz.n	a3, 100120 <_ResetHandler+0xcc>

0010010a <_ResetHandler+0xb6>:
  10010a:	f8c222                                    	addi	a2, a2, -8
  10010d:	12d8                                    	l32i.n	a13, a2, 4
  10010f:	02f8                                    	l32i.n	a15, a2, 0
  100111:	330b                                    	addi.n	a3, a3, -1
  100113:	44c0d0                                    	extui	a12, a13, 0, 5
  100116:	30ddc0                                    	xor	a13, a13, a12
  100119:	20dde0                                    	or	a13, a13, a14
  10011c:	fff806                                    	j	100100 <_ResetHandler+0xac>

0010011f <_ResetHandler+0xcb>:
	...

00100120 <_ResetHandler+0xcc>:
  100120:	000186                                    	j	10012a <_ResetHandler+0xd6>

00100123 <_ResetHandler+0xcf>:
	...

00100125 <_ResetHandler+0xd1>:
  100125:	290c                                    	movi.n	a9, 2

00100127 <_ResetHandler+0xd3>:
  100127:	136290                                    	wsr.cacheadrdis	a9
  10012a:	036120                                    	rsr.memctl	a2
  10012d:	130c                                    	movi.n	a3, 1
  10012f:	202230                                    	or	a2, a2, a3
  100132:	136120                                    	wsr.memctl	a2
  100135:	ffbd21                                    	l32r	a2, 10002c (103020 <_DoubleExceptionVector_text_end+0x2a78>)
  100138:	e47c                                    	movi.n	a4, -2
  10013a:	406230                                    	rer	a3, a2
  10013d:	103340                                    	and	a3, a3, a4
  100140:	407230                                    	wer	a3, a2
  100143:	ffbb21                                    	l32r	a2, 100030 (0 <_Level2HandlerLabel>)
  100146:	628c                                    	beqz.n	a2, 100150 <unpackdone>
  100148:	0002c0                                    	callx0	a2
  10014b:	000c                                    	movi.n	a0, 0
  10014d:	fff256                                    	bnez	a2, 100150 <unpackdone>

00100150 <unpackdone>:
  100150:	ffb941                                    	l32r	a4, 100034 (80006548 <_MemErrorHandler>)
  100153:	136c40                                    	wsr.mesave	a4
  100156:	ffb841                                    	l32r	a4, 100038 (8000677c <_Level2FromVector>)
  100159:	13d240                                    	wsr.excsave2	a4
  10015c:	ffb841                                    	l32r	a4, 10003c (8000681c <_Level3FromVector>)
  10015f:	13d340                                    	wsr.excsave3	a4
  100162:	ffb741                                    	l32r	a4, 100040 (800068bc <_Level4FromVector>)
  100165:	13d440                                    	wsr.excsave4	a4
  100168:	ffb741                                    	l32r	a4, 100044 (8000695c <_Level5FromVector>)
  10016b:	13d540                                    	wsr.excsave5	a4
  10016e:	ffb651                                    	l32r	a5, 100048 (80007634 <_Pri_5_HandlerAddress>)
  100171:	0549                                    	s32i.n	a4, a5, 0
  100173:	ffb601                                    	l32r	a0, 10004c (80000914 <_start>)
  100176:	0000c0                                    	callx0	a0

00100179 <unpackdone+0x29>:
  100179:	000000                                        ...

Disassembly of section .MemoryExceptionVector.text:

00100310 <_MemErrorVector>:
  100310:	000106                                    	j	100318 <_MemErrorVector+0x8>

00100313 <_MemErrorVector+0x3>:
	...

00100314 <_MemErrorVector+0x4>:
  100314:	80006548                                He..

00100318 <_MemErrorVector+0x8>:
  100318:	136c00                                    	wsr.mesave	a0
  10031b:	fffe01                                    	l32r	a0, 100314 (80006548 <_MemErrorHandler>)
  10031e:	0000a0                                    	jx	a0

00100321 <_MemErrorVector+0x11>:
  100321:	000000                                        ...

Disassembly of section .Level2InterruptVector.text:

001004a0 <_Level2Vector>:
  1004a0:	61d220                                    	xsr.excsave2	a2
  1004a3:	0002a0                                    	jx	a2

001004a6 <_Level2Vector+0x6>:
	...

Disassembly of section .Level3InterruptVector.text:

001004c0 <_Level3Vector>:
  1004c0:	61d320                                    	xsr.excsave3	a2
  1004c3:	0002a0                                    	jx	a2

001004c6 <_Level3Vector+0x6>:
	...

Disassembly of section .Level4InterruptVector.text:

001004e0 <_Level4Vector>:
  1004e0:	61d420                                    	xsr.excsave4	a2
  1004e3:	0002a0                                    	jx	a2

001004e6 <_Level4Vector+0x6>:
	...

Disassembly of section .Level5InterruptVector.text:

00100500 <_Level5Vector>:
  100500:	61d520                                    	xsr.excsave5	a2
  100503:	0002a0                                    	jx	a2

00100506 <_Level5Vector+0x6>:
	...

Disassembly of section .DebugExceptionVector.text:

00100520 <_DebugExceptionVector>:
  100520:	13d620                                    	wsr.excsave6	a2
  100523:	827c                                    	movi.n	a2, -8
  100525:	005100                                    	simcall

Disassembly of section .NMIExceptionVector.text:

00100540 <_NMIExceptionVector>:
  100540:	003710                                    	rfi	7

00100543 <_NMIExceptionVector+0x3>:
	...

Disassembly of section .KernelExceptionVector.text:

00100560 <_KernelExceptionVector>:
  100560:	004100                                    	break	1, 0
  100563:	fffe46                                    	j	100560 <_KernelExceptionVector>

00100566 <_KernelExceptionVector+0x6>:
	...

Disassembly of section .UserExceptionVector.literal:

00100568 <_memmap_seg_srom8_end-0x8>:
  100568:	80007534                                4u..

Disassembly of section .UserExceptionVector.text:

00100580 <_UserExceptionVector>:
  100580:	ffd112                                    	addmi	a1, a1, 0xffffff00
  100583:	5129                                    	s32i.n	a2, a1, 20
  100585:	6139                                    	s32i.n	a3, a1, 24
  100587:	fff831                                    	l32r	a3, 100568 <_KernelExceptionVector_text_end>
  10058a:	03e820                                    	rsr.exccause	a2
  10058d:	a03230                                    	addx4	a3, a2, a3
  100590:	0338                                    	l32i.n	a3, a3, 0
  100592:	7149                                    	s32i.n	a4, a1, 28
  100594:	0003a0                                    	jx	a3

00100597 <_UserExceptionVector+0x17>:
	...

Disassembly of section .DoubleExceptionVector.text:

001005a0 <_DoubleExceptionVector>:
  1005a0:	004140                                    	break	1, 4
  1005a3:	fffe46                                    	j	1005a0 <_DoubleExceptionVector>

001005a6 <_DoubleExceptionVector+0x6>:
	...

Disassembly of section .text:

800006d0 <_stext>:
800006d0:	800009f8 80006a40 90000000 00000000     ....@j..........
800006e0:	00000000 800006ac 800006c4 80007350     ............Ps..
800006f0:	800008f4 8000733c 80007700 80007358     ....<s...w..Xs..
80000700:	00000000 80000698 00000000 80007704     .............w..
80000710:	80000000 8000735c 80007720 80007730     ....\s.. w..0w..
80000720:	80000bb0 800073b8 80000010 7fffffff     .....s..........
80000730:	80000040 7ffffffe 800005b8 80000050     @...........P...
80000740:	800005c0 800005f0 8000067c 8000060c     ........|.......
80000750:	800005d8 800001a4 800001e0 800001b0     ................
80000760:	80007880 800074b0 80007888 80007adc     .x...t...x...z..
80000770:	80007930 800078d0 80002100 800078e0     0y...x...!...x..
80000780:	80007940 00000fef 800074b4 00000f00     @y.......t......
80000790:	80007884 80007ae0 80007ae4 80007368     .x...z...z..hs..
800007a0:	80007364 80007948 80007400 80000628     ds..Hy...t..(...
800007b0:	8000794c 800074d8 8000067c 80007950     Ly...t..|...Py..
800007c0:	80007a44 80007a48 800074b8 80007a50     Dz..Hz...t..Pz..
800007d0:	0000ff00 00ff0000 ff000000 80007ad0     .............z..
800007e0:	800074bc 00009002 00004200 00006000     .t.......B...`..
800007f0:	80000654 80000650 00007597 000186a0     T...P....u......
80000800:	8000064c 80000418 80000648 8000066c     L.......H...l...
80000810:	80000420 800074c0 80000658 40240000      ....t..X.....$@
80000820:	80000450 0000ffef 80000430 80000468     P.......0...h...
80000830:	80007ad4 80007460 80004070 0000dfff     .z..`t..p@......
80000840:	00007ff0 ffff7fff ffff800f 00003fe0     .............?..
80000850:	0000ff7f 80000680 00008000 800004b0     ................
80000860:	00000800 7f7fffff 7f800000 80007b28     ............({..
80000870:	800074dc 80000510 80000560 80007b2c     .t......`...,{..
80000880:	8000752c 800089a8 90000000 800058c8     ,u...........X..
80000890:	80005860 800057e1 00103024 80007b30     `X...W..$0..0{..
800008a0:	80005804 00103020 00000000 00000000     .X.. 0..........
800008b0:	ffffefff b1c5afed 00000524 00110000     ........$.......
800008c0:	80007638 80000000 800075a0 80006de4     8v.......u...m..
800008d0:	80007660 80007658 80007650 80008850     `v..Xv..Pv..P...
800008e0:	80007634 80007640 800004a0 8000069c     4v..@v..........
800008f0:	800009a0                                ....

800008f4 <_init>:
800008f4:	e0c112                                    	addi	a1, a1, -32
800008f7:	0109                                    	s32i.n	a0, a1, 0
800008f9:	ff7501                                    	l32r	a0, 800006d0 (800009f8 <frame_dummy>)
800008fc:	f03d                                    	nop.n
800008fe:	0000c0                                    	callx0	a0
80000901:	037ac5                                    	call0	800040b0 <_closeallreg>
80000904:	ff7401                                    	l32r	a0, 800006d4 (80006a40 <__do_global_ctors_aux>)
80000907:	f03d                                    	nop.n
80000909:	0000c0                                    	callx0	a0
8000090c:	0108                                    	l32i.n	a0, a1, 0
8000090e:	20c112                                    	addi	a1, a1, 32
80000911:	f00d                                    	ret.n

80000913 <_init+0x1f>:
	...

80000914 <_start>:
80000914:	000c                                    	movi.n	a0, 0
80000916:	ff7011                                    	l32r	a1, 800006d8 (90000000 <__stack>)
80000919:	e9a322                                    	movi	a2, 0x3e9
8000091c:	005100                                    	simcall
8000091f:	7fc222                                    	addi	a2, a2, 127
80000922:	412720                                    	srli	a2, a2, 7
80000925:	112290                                    	slli	a2, a2, 7
80000928:	c01120                                    	sub	a1, a1, a2
8000092b:	032c                                    	movi.n	a3, 32
8000092d:	13e630                                    	wsr.ps	a3
80000930:	002010                                    	rsync
80000933:	ff6a41                                    	l32r	a4, 800006dc (0 <_Level2HandlerLabel>)
80000936:	002416                                    	beqz	a4, 8000093c <_start+0x28>
80000939:	0004c0                                    	callx0	a4

8000093c <_start+0x28>:
8000093c:	ff6941                                    	l32r	a4, 800006e0 (0 <_Level2HandlerLabel>)
8000093f:	f03d                                    	nop.n
80000941:	b48c                                    	beqz.n	a4, 80000950 <_start+0x3c>
80000943:	ff6821                                    	l32r	a2, 800006e4 (800006ac <__XT_EXCEPTION_DESCS_END__>)
80000946:	ff6831                                    	l32r	a3, 800006e8 (800006c4 <_bss_table_end>)
80000949:	0004c0                                    	callx0	a4
8000094c:	000746                                    	j	8000096d <_start+0x59>

8000094f <_start+0x3b>:
	...

80000950 <_start+0x3c>:
80000950:	ff6561                                    	l32r	a6, 800006e4 (800006ac <__XT_EXCEPTION_DESCS_END__>)
80000953:	ff6571                                    	l32r	a7, 800006e8 (800006c4 <_bss_table_end>)
80000956:	13b677                                    	bgeu	a6, a7, 8000096d <_start+0x59>

80000959 <_start+0x45>:
80000959:	eca322                                    	movi	a2, 0x3ec
8000095c:	0638                                    	l32i.n	a3, a6, 0
8000095e:	040c                                    	movi.n	a4, 0
80000960:	1658                                    	l32i.n	a5, a6, 4
80000962:	668b                                    	addi.n	a6, a6, 8
80000964:	c05530                                    	sub	a5, a5, a3
80000967:	005100                                    	simcall
8000096a:	eb3677                                    	bltu	a6, a7, 80000959 <_start+0x45>

8000096d <_start+0x59>:
8000096d:	203110                                    	or	a3, a1, a1
80000970:	eaa322                                    	movi	a2, 0x3ea
80000973:	005100                                    	simcall
80000976:	e8a322                                    	movi	a2, 0x3e8
80000979:	005100                                    	simcall
8000097c:	20c220                                    	or	a12, a2, a2
8000097f:	203110                                    	or	a3, a1, a1
80000982:	ff5a41                                    	l32r	a4, 800006ec (80007350 <_etext>)
80000985:	ff5a51                                    	l32r	a5, 800006f0 (800008f4 <_init>)
80000988:	ff5b61                                    	l32r	a6, 800006f4 (8000733c <_fini>)
8000098b:	01cf45                                    	call0	80002680 <__clibrary_init>
8000098e:	0c2d                                    	mov.n	a2, a12
80000990:	013d                                    	mov.n	a3, a1
80000992:	ff5641                                    	l32r	a4, 800006ec (80007350 <_etext>)
80000995:	000885                                    	call0	80000a20 <main>
80000998:	001a05                                    	call0	80000b3c <exit>

8000099b <_start+0x87>:
8000099b:	00000000 f0c11200                                .....

800009a0 <__do_global_dtors_aux>:
800009a0:	f0c112                                    	addi	a1, a1, -16
800009a3:	0109                                    	s32i.n	a0, a1, 0
800009a5:	ff5401                                    	l32r	a0, 800006f8 (80007700 <_bss_start>)
800009a8:	000022                                    	l8ui	a2, a0, 0
800009ab:	11c9                                    	s32i.n	a12, a1, 4
800009ad:	7000502cf22e                           	{ bnez	a2, 800009f0 <__do_global_dtors_aux+0x50>; l32i	a0, a1, 0 }
800009b3:	ff52c1                                    	l32r	a12, 800006fc (80007358 <p$9125_6_1>)
800009b6:	002c42                                    	l32i	a4, a12, 0
800009b9:	002432                                    	l32i	a3, a4, 0
800009bc:	c38c                                    	beqz.n	a3, 800009cc <__do_global_dtors_aux+0x2c>

800009be <__do_global_dtors_aux+0x1e>:
800009be:	444b                                    	addi.n	a4, a4, 4
800009c0:	0c49                                    	s32i.n	a4, a12, 0
800009c2:	0003c0                                    	callx0	a3
800009c5:	0c48                                    	l32i.n	a4, a12, 0
800009c7:	0438                                    	l32i.n	a3, a4, 0
800009c9:	ff1356                                    	bnez	a3, 800009be <__do_global_dtors_aux+0x1e>

800009cc <__do_global_dtors_aux+0x2c>:
800009cc:	ff4d51                                    	l32r	a5, 80000700 (0 <_Level2HandlerLabel>)
800009cf:	060c                                    	movi.n	a6, 0
800009d1:	700ab0b7650e                           	{ beq	a5, a6, 800009e0 <__do_global_dtors_aux+0x40>; l32i	a12, a1, 4 }
800009d7:	ff4b21                                    	l32r	a2, 80000704 (80000698 <__XT_EXCEPTION_TABLE__>)
800009da:	ff4901                                    	l32r	a0, 80000700 (0 <_Level2HandlerLabel>)
800009dd:	0000c0                                    	callx0	a0

800009e0 <__do_global_dtors_aux+0x40>:
800009e0:	ff4681                                    	l32r	a8, 800006f8 (80007700 <_bss_start>)
800009e3:	0108                                    	l32i.n	a0, a1, 0
800009e5:	170c                                    	movi.n	a7, 1
800009e7:	004872                                    	s8i	a7, a8, 0
800009ea:	56027044505e                           	{ ret; addi	a1, a1, 16 }

800009f0 <__do_global_dtors_aux+0x50>:
800009f0:	56027044505e                           	{ ret; addi	a1, a1, 16 }

800009f6 <__do_global_dtors_aux+0x56>:
	...

800009f8 <frame_dummy>:
800009f8:	f0c112                                    	addi	a1, a1, -16
800009fb:	0109                                    	s32i.n	a0, a1, 0
800009fd:	ff4201                                    	l32r	a0, 80000708 (0 <_Level2HandlerLabel>)
80000a00:	020c                                    	movi.n	a2, 0
80000a02:	0b1027                                    	beq	a0, a2, 80000a11 <frame_dummy+0x19>
80000a05:	ff3f21                                    	l32r	a2, 80000704 (80000698 <__XT_EXCEPTION_TABLE__>)
80000a08:	ff4131                                    	l32r	a3, 8000070c (80007704 <object$9144_8_1>)
80000a0b:	ff3f01                                    	l32r	a0, 80000708 (0 <_Level2HandlerLabel>)
80000a0e:	0000c0                                    	callx0	a0

80000a11 <frame_dummy+0x19>:
80000a11:	0108                                    	l32i.n	a0, a1, 0
80000a13:	56027044505e                           	{ ret; addi	a1, a1, 16 }

80000a19 <frame_dummy+0x21>:
80000a19:	00000000 12000000                                .......

80000a20 <main>:
80000a20:	f0c112                                    	addi	a1, a1, -16
80000a23:	0109                                    	s32i.n	a0, a1, 0
80000a25:	ff3a21                                    	l32r	a2, 80000710 (80000000 <_memmap_mem_sram_start>)
80000a28:	001bc5                                    	call0	80000be8 <printf>
80000a2b:	020c                                    	movi.n	a2, 0
80000a2d:	0108                                    	l32i.n	a0, a1, 0
80000a2f:	10c112                                    	addi	a1, a1, 16
80000a32:	f00d                                    	ret.n

80000a34 <main+0x14>:
	...

80000a40 <_Atrealloc>:
80000a40:	f0c112                                    	addi	a1, a1, -16
80000a43:	0361e2                                    	s32i	a14, a1, 12
80000a46:	ff33e1                                    	l32r	a14, 80000714 (8000735c <_Nats_143>)
80000a49:	006102                                    	s32i	a0, a1, 0
80000a4c:	700047504e0e                           	{ l32i	a4, a14, 4; l32i	a0, a14, 0 }
80000a52:	0261d2                                    	s32i	a13, a1, 8
80000a55:	0161c2                                    	s32i	a12, a1, 4
80000a58:	bdb0506c040e                           	{ beqz	a4, 80000acc <_Atrealloc+0x8c>; srli	a12, a0, 1 }
80000a5e:	802c00                                    	add	a2, a12, a0
80000a61:	aec37143249e                           	{ callx0	a4; slli	a2, a2, 2 }
80000a67:	be30d160128e                           	{ beqz	a2, 80000acc <_Atrealloc+0x8c>; or	a13, a2, a2 }
80000a6d:	ff2a41                                    	l32r	a4, 80000718 (80007720 <_Atcount0>)
80000a70:	002442                                    	l32i	a4, a4, 0
80000a73:	2e38                                    	l32i.n	a3, a14, 8
80000a75:	aad0129312ae                           	{ call0	80006ac0 <memcpy>; slli	a4, a4, 2 }
80000a7b:	7003c7413e4e                           	{ l32i	a3, a14, 8; l32i	a5, a14, 12 }
80000a81:	0e48                                    	l32i.n	a4, a14, 0
80000a83:	b0c9da245cfe                           	{ add	a2, a12, a5; addx4	a3, a5, a3 }
80000a89:	b4cf5953547e                           	{ sub	a4, a4, a5; addx4	a2, a2, a13 }
80000a8f:	aad012930cae                           	{ call0	80006ac0 <memcpy>; slli	a4, a4, 2 }
80000a95:	ff2141                                    	l32r	a4, 8000071c (80007730 <_Atdata_149>)
80000a98:	2e28                                    	l32i.n	a2, a14, 8
80000a9a:	061247                                    	beq	a2, a4, 80000aa4 <_Atrealloc+0x64>
80000a9d:	4e48                                    	l32i.n	a4, a14, 16
80000a9f:	148c                                    	beqz.n	a4, 80000aa4 <_Atrealloc+0x64>
80000aa1:	0004c0                                    	callx0	a4
80000aa4:	3e68                                    	l32i.n	a6, a14, 12
80000aa6:	0e58                                    	l32i.n	a5, a14, 0
80000aa8:	90004044018e                           	{ l32i	a0, a1, 0; movi	a2, 1 }
80000aae:	b093436bde0e                           	{ s32i	a13, a14, 8; add	a6, a6, a12 }
80000ab4:	b092c27f6e0e                           	{ s32i	a6, a14, 12; add	a5, a5, a12 }
80000aba:	7001406f5e4e                           	{ s32i	a5, a14, 0; l32i	a13, a1, 8 }
80000ac0:	7001c057c18e                           	{ l32i	a12, a1, 4; l32i	a14, a1, 12 }
80000ac6:	56027044505e                           	{ ret; addi	a1, a1, 16 }

80000acc <_Atrealloc+0x8c>:
80000acc:	0108                                    	l32i.n	a0, a1, 0
80000ace:	90004050c18e                           	{ l32i	a12, a1, 4; movi	a2, 0 }
80000ad4:	7003c047d18e                           	{ l32i	a13, a1, 8; l32i	a14, a1, 12 }
80000ada:	56027044505e                           	{ ret; addi	a1, a1, 16 }

80000ae0 <atexit>:
80000ae0:	f0c112                                    	addi	a1, a1, -16
80000ae3:	016102                                    	s32i	a0, a1, 4
80000ae6:	006122                                    	s32i	a2, a1, 0
80000ae9:	9000104cd3ae                           	{ call0	80002238 <_Locksyslock>; movi	a2, 1 }
80000aef:	ff0a21                                    	l32r	a2, 80000718 (80007720 <_Atcount0>)
80000af2:	ff0801                                    	l32r	a0, 80000714 (8000735c <_Nats_143>)
80000af5:	70024150508e                           	{ l32i	a5, a0, 12; l32i	a2, a2, 0 }
80000afb:	0e3257                                    	bltu	a2, a5, 80000b0d <atexit+0x2d>
80000afe:	fff405                                    	call0	80000a40 <_Atrealloc>
80000b01:	97f1d72d120e                           	{ beqz	a2, 80000b36 <atexit+0x56>; movi	a4, -1 }
80000b07:	ff0301                                    	l32r	a0, 80000714 (8000735c <_Nats_143>)
80000b0a:	032052                                    	l32i	a5, a0, 12

80000b0d <atexit+0x2d>:
80000b0d:	2068                                    	l32i.n	a6, a0, 8
80000b0f:	740e385445fe                           	{ addi	a4, a5, -1; l32i	a3, a1, 0 }
80000b15:	b0d24279408e                           	{ s32i	a4, a0, 12; addx4	a4, a4, a6 }
80000b1b:	90004069340e                           	{ s32i	a3, a4, 0; movi	a4, 0 }

80000b21 <atexit+0x41>:
80000b21:	026142                                    	s32i	a4, a1, 8
80000b24:	9000104cd6ae                           	{ call0	80002280 <_Unlocksyslock>; movi	a2, 1 }
80000b2a:	012102                                    	l32i	a0, a1, 4
80000b2d:	022122                                    	l32i	a2, a1, 8
80000b30:	56027044505e                           	{ ret; addi	a1, a1, 16 }

80000b36 <atexit+0x56>:
80000b36:	fff9c6                                    	j	80000b21 <atexit+0x41>

80000b39 <atexit+0x59>:
80000b39:	000000                                        ...

80000b3c <exit>:
80000b3c:	fef6c1                                    	l32r	a12, 80000714 (8000735c <_Nats_143>)
80000b3f:	f0c112                                    	addi	a1, a1, -16
80000b42:	ba30c168018e                           	{ s32i	a0, a1, 0; or	a13, a2, a2 }
80000b48:	7001c6402c0e                           	{ l32i	a2, a12, 0; l32i	a0, a12, 12 }
80000b4e:	1bb027                                    	bgeu	a0, a2, 80000b6d <exit+0x31>

80000b51 <exit+0x15>:
80000b51:	2c38                                    	l32i.n	a3, a12, 8
80000b53:	201b                                    	addi.n	a2, a0, 1
80000b55:	a00230                                    	addx4	a0, a2, a3
80000b58:	5bf3c0782c0e                           	{ s32i	a2, a12, 12; addmi	a0, a0, 0xffffff00 }
80000b5e:	3f2002                                    	l32i	a0, a0, 252
80000b61:	0000c0                                    	callx0	a0
80000b64:	7001c6404c0e                           	{ l32i	a4, a12, 0; l32i	a0, a12, 12 }
80000b6a:	e33047                                    	bltu	a0, a4, 80000b51 <exit+0x15>

80000b6d <exit+0x31>:
80000b6d:	feeae1                                    	l32r	a14, 80000718 (80007720 <_Atcount0>)
80000b70:	0e08                                    	l32i.n	a0, a14, 0
80000b72:	209c                                    	beqz.n	a0, 80000b88 <exit+0x4c>

80000b74 <exit+0x38>:
80000b74:	2c28                                    	l32i.n	a2, a12, 8
80000b76:	000b                                    	addi.n	a0, a0, -1
80000b78:	b0c040680e8e                           	{ s32i	a0, a14, 0; addx4	a0, a0, a2 }
80000b7e:	0008                                    	l32i.n	a0, a0, 0
80000b80:	0000c0                                    	callx0	a0
80000b83:	0e08                                    	l32i.n	a0, a14, 0
80000b85:	feb056                                    	bnez	a0, 80000b74 <exit+0x38>

80000b88 <exit+0x4c>:
80000b88:	fee5e1                                    	l32r	a14, 8000071c (80007730 <_Atdata_149>)
80000b8b:	022c22                                    	l32i	a2, a12, 8
80000b8e:	701836a1e20e                           	{ beq	a2, a14, 80000b9a <exit+0x5e>; l32i	a4, a12, 16 }
80000b94:	002416                                    	beqz	a4, 80000b9a <exit+0x5e>
80000b97:	0004c0                                    	callx0	a4
80000b9a:	90124068ecce                           	{ s32i	a14, a12, 8; movi	a3, 64 }
80000ba0:	006c32                                    	s32i	a3, a12, 0
80000ba3:	ba011607276e                           	{ call0	80000c40 <_Exit>; or	a2, a13, a13 }

80000ba9 <exit+0x6d>:
80000ba9:	00000000 12000000                                .......

80000bb0 <prout>:
80000bb0:	f0c112                                    	addi	a1, a1, -16
80000bb3:	21d9                                    	s32i.n	a13, a1, 8
80000bb5:	ba30c178c18e                           	{ s32i	a12, a1, 4; or	a13, a2, a2 }
80000bbb:	be0b59c444fe                           	{ or	a12, a4, a4; or	a2, a3, a3 }
80000bc1:	9000406c01ce                           	{ s32i	a0, a1, 0; movi	a3, 1 }
80000bc7:	0020f0                                    	nop
80000bca:	ba10966f816e                           	{ call0	800029d0 <fwrite>; or	a5, a13, a13 }
80000bd0:	be805103202e                           	{ movi	a2, 0; sub	a0, a2, a12 }
80000bd6:	b3814644010e                           	{ l32i	a0, a1, 0; moveqz	a2, a13, a0 }
80000bdc:	70014057c14e                           	{ l32i	a12, a1, 4; l32i	a13, a1, 8 }
80000be2:	56027044505e                           	{ ret; addi	a1, a1, 16 }

80000be8 <printf>:
80000be8:	558a58a4447e                           	{ or	a10, a4, a4; addi	a1, a1, -64 }
80000bee:	0a61a2                                    	s32i	a10, a1, 40
80000bf1:	076102                                    	s32i	a0, a1, 28
80000bf4:	900a427a510e                           	{ s32i	a5, a1, 44; movi	a8, 4 }
80000bfa:	066182                                    	s32i	a8, a1, 24
80000bfd:	d179                                    	s32i.n	a7, a1, 52
80000bff:	8129                                    	s32i.n	a2, a1, 32
80000c01:	9139                                    	s32i.n	a3, a1, 36
80000c03:	544e08c638fe                           	{ l32r	a3, 80000724 (800073b8 <_Stdout>); addi	a11, a1, 32 }
80000c09:	ba144178b18e                           	{ s32i	a11, a1, 20; or	a4, a2, a2 }
80000c0f:	5204406cb18e                           	{ s32i	a11, a1, 16; addi	a2, a1, 16 }
80000c15:	700d416961ce                           	{ s32i	a6, a1, 48; l32i	a7, a2, 8 }
80000c1b:	70004151624e                           	{ l32i	a6, a2, 4; l32i	a5, a2, 0 }
80000c21:	940e08a82f3e                           	{ l32r	a2, 80000720 (80000bb0 <prout>); movi	a0, 0 }
80000c27:	0109                                    	s32i.n	a0, a1, 0
80000c29:	000245                                    	call0	80000c50 <_Printf>
80000c2c:	7108                                    	l32i.n	a0, a1, 28
80000c2e:	54827044505e                           	{ ret; addi	a1, a1, 64 }

80000c34 <printf+0x4c>:
	...

80000c40 <_Exit>:
80000c40:	f0c112                                    	addi	a1, a1, -16
80000c43:	0109                                    	s32i.n	a0, a1, 0
80000c45:	04b285                                    	call0	80005770 <_exit>

80000c48 <_Exit+0x8>:
	...

80000c50 <_Printf>:
80000c50:	5fff88ac967e                           	{ l32r	a9, 80000728 (80000010 <_memmap_mem_sram_start+0x10>); addmi	a1, a1, 0xffffff00 }
80000c56:	3261d2                                    	s32i	a13, a1, 200
80000c59:	3361e2                                    	s32i	a14, a1, 204
80000c5c:	3c6162                                    	s32i	a6, a1, 240
80000c5f:	3d6172                                    	s32i	a7, a1, 244
80000c62:	306102                                    	s32i	a0, a1, 192
80000c65:	4129                                    	s32i.n	a2, a1, 16
80000c67:	5680407cc19e                           	{ s32i	a12, a1, 196; addi	a2, a1, 80 }
80000c6d:	ba344279310e                           	{ s32i	a3, a1, 20; or	a12, a4, a4 }
80000c73:	be1a4379519e                           	{ s32i	a5, a1, 236; or	a4, a6, a6 }
80000c79:	9404406bf1de                           	{ s32i	a15, a1, 208; movi	a15, 0 }
80000c7f:	6801446ef18e                           	{ s32i	a15, a1, 0; l16ui	a10, a9, 4 }
80000c85:	6803c466a14e                           	{ s16i	a10, a1, 4; l16ui	a9, a9, 6 }
80000c8b:	ba12c37591ce                           	{ s16i	a9, a1, 6; or	a5, a7, a7 }
80000c91:	7261904c87ee                           	{ call0	800022b0 <_Vacopy>; l32i	a3, a1, 236 }
80000c97:	708e407ef1ce                           	{ s32i	a15, a1, 60; l32i	a11, a1, 0x100 }
80000c9d:	4741b2                                    	s8i	a11, a1, 71
80000ca0:	000846                                    	j	80000cc5 <_Printf+0x75>

80000ca3 <_Printf+0x53>:
80000ca3:	000000                                        ...

80000ca6 <_Printf+0x56>:
	...

80000cae <_Printf+0x5e>:
80000cae:	00ea                                    	add.n	a0, a0, a14
80000cb0:	687f407c010e                           	{ s32i	a0, a1, 60; l16ui	a0, a1, 92 }

80000cb6 <_Printf+0x66>:
80000cb6:	90095accdcbe                           	{ add	a13, a12, a13; movi	a2, 37 }
80000cbc:	ba3c36a7207e                           	{ beq	a0, a2, 80000d2c <_Printf+0xdc>; or	a12, a13, a13 }
80000cc2:	11f016                                    	beqz	a0, 80000de5 <_Printf+0x195>

80000cc5 <_Printf+0x75>:
80000cc5:	52be4064f19e                           	{ s16i	a15, a1, 92; addi	a2, a1, 92 }
80000ccb:	be0f8e8b483e                           	{ l32r	a4, 8000072c (7fffffff <_memmap_cacheattr_bp_allvalid+0x3bbbbbbb>); or	a3, a12, a12 }
80000cd1:	ba1090c4c96e                           	{ call0	80003ff8 <_Mbtowc>; or	a5, a1, a1 }
80000cd7:	2e1102                                    	l16ui	a0, a1, 92
80000cda:	ba32e11832ae                           	{ blti	a2, 1, 80000d21 <_Printf+0xd1>; or	a13, a2, a2 }

80000ce0 <_Printf+0x90>:
80000ce0:	dbc042                                    	addi	a4, a0, -37
80000ce3:	57fbdee4ddfe                           	{ or	a14, a13, a13; addi	a3, a13, -1 }
80000ce9:	83e340                                    	moveqz	a14, a3, a4
80000cec:	c61ea6                                    	blti	a14, 1, 80000cb6 <_Printf+0x66>
80000cef:	4108                                    	l32i.n	a0, a1, 16
80000cf1:	741ad82cccbe                           	{ or	a3, a12, a12; l32i	a2, a1, 20 }
80000cf7:	be127743209e                           	{ callx0	a0; or	a4, a14, a14 }
80000cfd:	7035c07c210e                           	{ s32i	a2, a1, 20; l32i	a0, a1, 60 }
80000d03:	fa7256                                    	bnez	a2, 80000cae <_Printf+0x5e>

80000d06 <_Printf+0xb6>:
80000d06:	97f1c744019e                           	{ l32i	a0, a1, 192; movi	a2, -1 }
80000d0c:	76414057c15e                           	{ l32i	a12, a1, 196; l32i	a13, a1, 200 }
80000d12:	76524057e1de                           	{ l32i	a14, a1, 204; l32i	a15, a1, 208 }
80000d18:	5c02f044505e                           	{ ret; addmi	a1, a1, 0x100 }

80000d1e <_Printf+0xce>:
80000d1e:	000000                                        ...

80000d21 <_Printf+0xd1>:
80000d21:	000cd2                                    	l8ui	a13, a12, 0
80000d24:	120c                                    	movi.n	a2, 1
80000d26:	bc3e91fbb65e                           	{ j	80000ce0 <_Printf+0x90>; movnez	a13, a2, a13 }

80000d2c <_Printf+0xdc>:
80000d2c:	030c                                    	movi.n	a3, 0
80000d2e:	d139                                    	s32i.n	a3, a1, 52
80000d30:	92711307138e                           	{ j	80000d47 <_Printf+0xf7>; movi	a14, 0x3e7 }

80000d36 <_Printf+0xe6>:
80000d36:	00000000 42000000                                .......

80000d3d <_Printf+0xed>:
80000d3d:	0d6142                                    	s32i	a4, a1, 52
80000d40:	61c802cec34e0f                               	{ blt.w15	a14, a4, 80000f36 <_Printf+0x2e6>; addi	a12, a12, 1 }

80000d47 <_Printf+0xf7>:
80000d47:	020785                                    	call0	80002dc0 <_Getpctype>
80000d4a:	000c32                                    	l8ui	a3, a12, 0
80000d4d:	0d2142                                    	l32i	a4, a1, 52
80000d50:	905320                                    	addx2	a5, a3, a2
80000d53:	009552                                    	l16si	a5, a5, 0
80000d56:	a04440                                    	addx4	a4, a4, a4
80000d59:	904430                                    	addx2	a4, a4, a3
80000d5c:	578c3a31552e                           	{ bbsi	a5, 5, 80000d3d <_Printf+0xed>; addi	a4, a4, -48 }

80000d62 <_Printf+0x112>:
80000d62:	5400d623642e                           	{ movi	a6, 36; addi	a12, a12, 1 }
80000d68:	81c830d084630f                               	{ beq.w15	a3, a6, 80000f40 <_Printf+0x2f0>; l32i	a0, a1, 52 }

80000d6f <_Printf+0x11f>:
80000d6f:	ba3c467ff14e                           	{ s32i	a15, a1, 52; or	a12, a13, a13 }

80000d75 <_Printf+0x125>:
80000d75:	fe6e21                                    	l32r	a2, 80000730 (80000040 <fchar$8689_1_16>)
80000d78:	2251f2                                    	s16i	a15, a1, 68
80000d7b:	0761f2                                    	s32i	a15, a1, 28
80000d7e:	0861f2                                    	s32i	a15, a1, 32
80000d81:	0961f2                                    	s32i	a15, a1, 36
80000d84:	0a61f2                                    	s32i	a15, a1, 40
80000d87:	b1f9                                    	s32i.n	a15, a1, 44
80000d89:	900c426df10e                           	{ s32i	a15, a1, 48; movi	a4, 5 }
80000d8f:	7800167890ee                           	{ call0	80006bd0 <memchr>; l8ui	a3, a12, 0 }
80000d95:	72ac                                    	beqz.n	a2, 80000dc0 <_Printf+0x170>
80000d97:	fe66d1                                    	l32r	a13, 80000730 (80000040 <fchar$8689_1_16>)
80000d9a:	e0cde2                                    	addi	a14, a13, -32

80000d9d <_Printf+0x14d>:
80000d9d:	c082d0                                    	sub	a8, a2, a13
80000da0:	684b5885e8fe                           	{ addx4	a8, a8, a14; l16ui	a7, a1, 68 }
80000da6:	0888                                    	l32i.n	a8, a8, 0
80000da8:	05a042                                    	movi	a4, 5
80000dab:	540ade6b873e                           	{ or	a7, a7, a8; addi	a12, a12, 1 }
80000db1:	ba034667715e                           	{ s16i	a7, a1, 68; or	a2, a13, a13 }
80000db7:	7800167886ee                           	{ call0	80006bd0 <memchr>; l8ui	a3, a12, 0 }
80000dbd:	fdc256                                    	bnez	a2, 80000d9d <_Printf+0x14d>

80000dc0 <_Printf+0x170>:
80000dc0:	7211404c9c0e                           	{ l8ui	a9, a12, 0; l32i	a0, a1, 88 }
80000dc6:	9401550ab8ae                           	{ movi	a11, 24; movi	a10, 42 }
80000dcc:	501c4010a91e                           	{ bne	a9, a10, 80000dfd <_Printf+0x1ad>; addi	a0, a0, 4 }
80000dd2:	7616c06c01ce                           	{ s32i	a0, a1, 88; l32i	a3, a1, 84 }
80000dd8:	a0c002eec10bcf                               	{ blt.w15	a11, a0, 80000ed6 <_Printf+0x286>; movi	a7, 28 }
80000ddf:	003f86                                    	j	80000ee1 <_Printf+0x291>

80000de2 <_Printf+0x192>:
80000de2:	000000                                        ...

80000de5 <_Printf+0x195>:
80000de5:	7431c044019e                           	{ l32i	a0, a1, 192; l32i	a2, a1, 60 }
80000deb:	76414057c15e                           	{ l32i	a12, a1, 196; l32i	a13, a1, 200 }
80000df1:	76524057e1de                           	{ l32i	a14, a1, 204; l32i	a15, a1, 208 }
80000df7:	5c02f044505e                           	{ ret; addmi	a1, a1, 0x100 }

80000dfd <_Printf+0x1ad>:
80000dfd:	1061f2                                    	s32i	a15, a1, 64
80000e00:	0020f0                                    	nop
80000e03:	01fbc5                                    	call0	80002dc0 <_Getpctype>
80000e06:	000c32                                    	l8ui	a3, a12, 0
80000e09:	902320                                    	addx2	a2, a3, a2
80000e0c:	009222                                    	l16si	a2, a2, 0
80000e0f:	fe49d1                                    	l32r	a13, 80000734 (7ffffffe <_memmap_cacheattr_bp_allvalid+0x3bbbbbba>)
80000e12:	236257                                    	bbci	a2, 5, 80000e39 <_Printf+0x1e9>

80000e15 <_Printf+0x1c5>:
80000e15:	102102                                    	l32i	a0, a1, 64
80000e18:	b0da30d80d0e                           	{ blt	a13, a0, 80000e27 <_Printf+0x1d7>; addx4	a4, a0, a0 }
80000e1e:	904430                                    	addx2	a4, a4, a3
80000e21:	d0c442                                    	addi	a4, a4, -48
80000e24:	106142                                    	s32i	a4, a1, 64

80000e27 <_Printf+0x1d7>:
80000e27:	5000966be62e                           	{ call0	80002dc0 <_Getpctype>; addi	a12, a12, 1 }
80000e2d:	000c32                                    	l8ui	a3, a12, 0
80000e30:	905320                                    	addx2	a5, a3, a2
80000e33:	009552                                    	l16si	a5, a5, 0
80000e36:	dbe557                                    	bbsi	a5, 5, 80000e15 <_Printf+0x1c5>
80000e39:	e62c                                    	movi.n	a6, 46
80000e3b:	e084027490638f                               	{ beq.w15	a3, a6, 80000efc <_Printf+0x2ac>; nop }

80000e42 <_Printf+0x1f2>:
80000e42:	f77c                                    	movi.n	a7, -1
80000e44:	e179                                    	s32i.n	a7, a1, 56
80000e46:	000c32                                    	l8ui	a3, a12, 0

80000e49 <_Printf+0x1f9>:
80000e49:	fe3b21                                    	l32r	a2, 80000738 (800005b8 <_Zero+0x8>)
80000e4c:	0020f0                                    	nop
80000e4f:	05e205                                    	call0	80006c70 <strchr>
80000e52:	941154caa20e                           	{ beqz	a2, 80000f30 <_Printf+0x2e0>; movi	a8, 104 }
80000e58:	000c02                                    	l8ui	a0, a12, 0
80000e5b:	6ca092                                    	movi	a9, 108
80000e5e:	90174483016e                           	{ s8i	a0, a1, 70; movi	a13, 104 }
80000e64:	614800a683800f                               	{ beq.w15	a0, a8, 80000fb0 <_Printf+0x360>; addi	a12, a12, 1 }

80000e6b <_Printf+0x21b>:
80000e6b:	a140115e9090cf                               	{ beq.w15	a0, a9, 80000fc6 <_Printf+0x376>; movi	a3, 108 }

80000e72 <_Printf+0x222>:
80000e72:	d108                                    	l32i.n	a0, a1, 52
80000e74:	e8c4006418308f                               	{ blti.w15	a0, 1, 80000f51 <_Printf+0x301>; nop }
80000e7b:	52803045217e                           	{ addi	a2, a1, 96; addi	a5, a1, 80 }
80000e81:	53f1c041358e                           	{ l32i	a3, a5, 0; addi	a6, a0, -1 }
80000e87:	700cc27d610e                           	{ s32i	a6, a1, 52; l32i	a4, a5, 4 }
80000e8d:	7001124d086e                           	{ call0	800022b0 <_Vacopy>; l32i	a5, a5, 8 }
80000e93:	5020304431be                           	{ addi	a3, a1, 96; addi	a2, a1, 8 }
80000e99:	52c0404d4c4e                           	{ l8ui	a4, a12, 0; addi	a5, a1, 112 }
80000e9f:	0020f0                                    	nop
80000ea2:	50009603672e                           	{ call0	80001040 <_Putfld>; addi	a12, a12, 1 }
80000ea8:	52dc                                    	bnez.n	a2, 80000ec1 <_Printf+0x271>

80000eaa <_Printf+0x25a>:
80000eaa:	218b                                    	addi.n	a2, a1, 8
80000eac:	52c0104408ee                           	{ call0	80001ed0 <_Puttxt>; addi	a3, a1, 112 }
80000eb2:	e0f2d6                                    	bgez	a2, 80000cc5 <_Printf+0x75>
80000eb5:	ff9346                                    	j	80000d06 <_Printf+0xb6>

80000eb8 <_Printf+0x268>:
	...

80000ec1 <_Printf+0x271>:
80000ec1:	302102                                    	l32i	a0, a1, 192
80000ec4:	76414057c15e                           	{ l32i	a12, a1, 196; l32i	a13, a1, 200 }
80000eca:	76524057e1de                           	{ l32i	a14, a1, 204; l32i	a15, a1, 208 }
80000ed0:	5c02f044505e                           	{ ret; addmi	a1, a1, 0x100 }

80000ed6 <_Printf+0x286>:
80000ed6:	721630dc07ce                           	{ blt	a7, a0, 80000ee1 <_Printf+0x291>; l32i	a3, a1, 80 }
80000edc:	402c                                    	movi.n	a0, 36
80000ede:	166102                                    	s32i	a0, a1, 88

80000ee1 <_Printf+0x291>:
80000ee1:	003a                                    	add.n	a0, a0, a3
80000ee3:	ffd002                                    	addmi	a0, a0, 0xffffff00
80000ee6:	3f2002                                    	l32i	a0, a0, 252
80000ee9:	106102                                    	s32i	a0, a1, 64
80000eec:	940157e020de                           	{ bltz	a0, 80000fd2 <_Printf+0x382>; movi	a3, 46 }

80000ef2 <_Printf+0x2a2>:
80000ef2:	010c22                                    	l8ui	a2, a12, 1
80000ef5:	67780ca6f3320f                               	{ bne.w15	a2, a3, 80000e42 <_Printf+0x1f2>; addi	a12, a12, 1 }

80000efc <_Printf+0x2ac>:
80000efc:	010c32                                    	l8ui	a3, a12, 1
80000eff:	940155215d2e                           	{ movi	a5, 45; movi	a4, 42 }
80000f05:	60c8029e93430f                               	{ beq.w15	a3, a4, 80000ff0 <_Printf+0x3a0>; addi	a12, a12, 1 }
80000f0c:	a0c0005893534f                               	{ beq.w15	a3, a5, 80000fe7 <_Printf+0x397>; movi	a13, 0 }

80000f13 <_Printf+0x2c3>:
80000f13:	e1f9                                    	s32i.n	a15, a1, 56
80000f15:	01ea85                                    	call0	80002dc0 <_Getpctype>
80000f18:	000c32                                    	l8ui	a3, a12, 0
80000f1b:	906320                                    	addx2	a6, a3, a2
80000f1e:	009662                                    	l16si	a6, a6, 0
80000f21:	4734fe9003564f                               	{ bbci.w15	a6, 5, 80000e49 <_Printf+0x1f9>; extui	a13, a13, 0, 8 }
80000f28:	001506                                    	j	80000f80 <_Printf+0x330>

80000f2b <_Printf+0x2db>:
80000f2b:	000000                                        ...

80000f2e <_Printf+0x2de>:
	...

80000f30 <_Printf+0x2e0>:
80000f30:	4641f2                                    	s8i	a15, a1, 70
80000f33:	ffcec6                                    	j	80000e72 <_Printf+0x222>

80000f36 <_Printf+0x2e6>:
80000f36:	7c0e16f028de                           	{ j	80000d62 <_Printf+0x112>; l8ui	a3, a12, 0 }

80000f3c <_Printf+0x2ec>:
80000f3c:	00000000                                ....

80000f40 <_Printf+0x2f0>:
80000f40:	ae327f2b1d30cf                               	{ blti.w15	a0, 1, 80000d6f <_Printf+0x11f>; movi	a7, 0x3e7 }
80000f47:	e6340e2ca0078f                               	{ bge.w15	a7, a0, 80000d75 <_Printf+0x125>; nop }
80000f4e:	ff8746                                    	j	80000d6f <_Printf+0x11f>

80000f51 <_Printf+0x301>:
80000f51:	5420304431ae                           	{ addi	a3, a1, 80; addi	a2, a1, 8 }
80000f57:	52c0404d4c4e                           	{ l8ui	a4, a12, 0; addi	a5, a1, 112 }
80000f5d:	50009603382e                           	{ call0	80001040 <_Putfld>; addi	a12, a12, 1 }
80000f63:	f43216                                    	beqz	a2, 80000eaa <_Printf+0x25a>
80000f66:	302102                                    	l32i	a0, a1, 192
80000f69:	76414057c15e                           	{ l32i	a12, a1, 196; l32i	a13, a1, 200 }
80000f6f:	76524057e1de                           	{ l32i	a14, a1, 204; l32i	a15, a1, 208 }
80000f75:	5c02f044505e                           	{ ret; addmi	a1, a1, 0x100 }

80000f7b <_Printf+0x32b>:
80000f7b:	000000                                        ...

80000f7e <_Printf+0x32e>:
	...

80000f80 <_Printf+0x330>:
80000f80:	7031500c3d2e                           	{ bnez	a13, 80000f97 <_Printf+0x347>; l32i	a0, a1, 56 }
80000f86:	fdeb81                                    	l32r	a8, 80000734 (7ffffffe <_memmap_cacheattr_bp_allvalid+0x3bbbbbba>)
80000f89:	0a2807                                    	blt	a8, a0, 80000f97 <_Printf+0x347>
80000f8c:	a09000                                    	addx4	a9, a0, a0
80000f8f:	909930                                    	addx2	a9, a9, a3
80000f92:	d0c992                                    	addi	a9, a9, -48
80000f95:	e199                                    	s32i.n	a9, a1, 56
80000f97:	5000966b8a2e                           	{ call0	80002dc0 <_Getpctype>; addi	a12, a12, 1 }
80000f9d:	000c32                                    	l8ui	a3, a12, 0
80000fa0:	90a320                                    	addx2	a10, a3, a2
80000fa3:	009aa2                                    	l16si	a10, a10, 0
80000fa6:	d6ea57                                    	bbsi	a10, 5, 80000f80 <_Printf+0x330>
80000fa9:	ffa706                                    	j	80000e49 <_Printf+0x1f9>

80000fac <_Printf+0x35c>:
80000fac:	000000                                        ...

80000faf <_Printf+0x35f>:
	...

80000fb0 <_Printf+0x360>:
80000fb0:	000cb2                                    	l8ui	a11, a12, 0
80000fb3:	e6b40e54e0db8f                               	{ bne.w15	a11, a13, 80000e6b <_Printf+0x21b>; nop }
80000fba:	62a0e2                                    	movi	a14, 98
80000fbd:	4641e2                                    	s8i	a14, a1, 70
80000fc0:	540e96f3ae1e                           	{ j	80000e72 <_Printf+0x222>; addi	a12, a12, 1 }

80000fc6 <_Printf+0x376>:
80000fc6:	000c22                                    	l8ui	a2, a12, 0
80000fc9:	5a1237                                    	beq	a2, a3, 80001027 <_Printf+0x3d7>
80000fcc:	464102                                    	s8i	a0, a1, 70
80000fcf:	ffa7c6                                    	j	80000e72 <_Printf+0x222>

80000fd2 <_Printf+0x382>:
80000fd2:	221142                                    	l16ui	a4, a1, 68
80000fd5:	94047261035e                           	{ neg	a6, a0; movi	a5, 4 }
80000fdb:	be104269614e                           	{ s32i	a6, a1, 64; or	a4, a4, a5 }
80000fe1:	225142                                    	s16i	a4, a1, 68
80000fe4:	ffc286                                    	j	80000ef2 <_Printf+0x2a2>

80000fe7 <_Printf+0x397>:
80000fe7:	03dd                                    	mov.n	a13, a3
80000fe9:	540e96fb261e                           	{ j	80000f13 <_Printf+0x2c3>; addi	a12, a12, 1 }

80000fef <_Printf+0x39f>:
	...

80000ff0 <_Printf+0x3a0>:
80000ff0:	162102                                    	l32i	a0, a1, 88
80000ff3:	004b                                    	addi.n	a0, a0, 4
80000ff5:	9406c46901ce                           	{ s32i	a0, a1, 88; movi	a7, 24 }
80000ffb:	072707                                    	blt	a7, a0, 80001006 <_Printf+0x3b6>
80000ffe:	7210900411ce                           	{ j	80001013 <_Printf+0x3c3>; l32i	a3, a1, 84 }

80001004 <_Printf+0x3b4>:
	...

80001006 <_Printf+0x3b6>:
80001006:	c21c                                    	movi.n	a2, 28
80001008:	042207                                    	blt	a2, a0, 80001010 <_Printf+0x3c0>
8000100b:	402c                                    	movi.n	a0, 36
8000100d:	166102                                    	s32i	a0, a1, 88

80001010 <_Printf+0x3c0>:
80001010:	142132                                    	l32i	a3, a1, 80

80001013 <_Printf+0x3c3>:
80001013:	303a                                    	add.n	a3, a0, a3
80001015:	ffd332                                    	addmi	a3, a3, 0xffffff00
80001018:	3f2332                                    	l32i	a3, a3, 252
8000101b:	500ec66b310e                           	{ s32i	a3, a1, 56; addi	a12, a12, 1 }
80001021:	7c0e16f024de                           	{ j	80000e49 <_Printf+0x1f9>; l8ui	a3, a12, 0 }

80001027 <_Printf+0x3d7>:
80001027:	71a042                                    	movi	a4, 113
8000102a:	464142                                    	s8i	a4, a1, 70
8000102d:	540e96f3411e                           	{ j	80000e72 <_Printf+0x222>; addi	a12, a12, 1 }

80001033 <_Printf+0x3e3>:
	...

80001040 <_Putfld>:
80001040:	9411d06eb46e                           	{ movi	a11, 116; movi	a9, 113 }
80001046:	941155628cae                           	{ movi	a8, 108; movi	a10, 106 }
8000104c:	9010ba4111be                           	{ addi	a1, a1, -32; movi	a6, 84 }
80001052:	ba32c279d10e                           	{ s32i	a13, a1, 12; or	a13, a4, a4 }
80001058:	9000c479010e                           	{ s32i	a0, a1, 4; movi	a4, 24 }
8000105e:	9004c268e10e                           	{ s32i	a14, a1, 16; movi	a0, 20 }
80001064:	ba33426dc14e                           	{ s32i	a12, a1, 8; or	a14, a5, a5 }
8000106a:	be3a39502dae                           	{ addi	a2, a13, -37; or	a12, a2, a2 }
80001070:	93fdb4d1624e                           	{ bgeu	a2, a6, 80001081 <_Putfld+0x41>; movi	a5, -8 }
80001076:	fdb171                                    	l32r	a7, 8000073c (80000050 <__switchjump_table_xp_temp_0_13_112>)
80001079:	a07270                                    	addx4	a7, a2, a7
8000107c:	0778                                    	l32i.n	a7, a7, 0
8000107e:	0007a0                                    	jx	a7

80001081 <_Putfld+0x41>:
80001081:	5c98                                    	l32i.n	a9, a12, 20
80001083:	90013256a90e                           	{ addi	a10, a9, 1; movi	a8, 37 }
80001089:	b0a4c47fac8e                           	{ s32i	a10, a12, 20; add	a9, a9, a14 }
8000108f:	004982                                    	s8i	a8, a9, 0
80001092:	940450087d8e                           	{ beqz	a13, 800014ad <_Putfld+0x46d>; movi	a2, 0 }
80001098:	5cb8                                    	l32i.n	a11, a12, 20
8000109a:	b0a1b5570b8e                           	{ addi	a0, a11, 1; add	a11, a11, a14 }
800010a0:	7004c07c0c0e                           	{ s32i	a0, a12, 20; l32i	a0, a1, 4 }
800010a6:	70054047e10e                           	{ l32i	a14, a1, 16; l32i	a12, a1, 8 }
800010ac:	7001c087db4e                           	{ s8i	a13, a11, 0; l32i	a13, a1, 12 }
800010b2:	54427044505e                           	{ ret; addi	a1, a1, 32 }

800010b8 <_Putfld+0x78>:
800010b8:	3e0c62                                    	l8ui	a6, a12, 62
800010bb:	452c                                    	movi.n	a5, 36
800010bd:	838827fe90868f                               	{ beq.w15	a6, a8, 80001880 <_Putfld+0x840>; l32i	a2, a12, 44 }
800010c4:	e9840a2c00a28f                               	{ bltz.w15	a2, 80001a72 <_Putfld+0xa32>; nop }

800010cb <_Putfld+0x8b>:
800010cb:	2388                                    	l32i.n	a8, a3, 8
800010cd:	284b                                    	addi.n	a2, a8, 4
800010cf:	2329                                    	s32i.n	a2, a3, 8
800010d1:	7004b1dd80ce                           	{ blt	a0, a8, 800010da <_Putfld+0x9a>; l32i	a7, a3, 4 }
800010d7:	000286                                    	j	800010e5 <_Putfld+0xa5>

800010da <_Putfld+0x9a>:
800010da:	052487                                    	blt	a4, a8, 800010e3 <_Putfld+0xa3>
800010dd:	90034268538e                           	{ s32i	a5, a3, 8; movi	a2, 36 }

800010e3 <_Putfld+0xa3>:
800010e3:	0378                                    	l32i.n	a7, a3, 0

800010e5 <_Putfld+0xa5>:
800010e5:	bc88                                    	l32i.n	a8, a12, 44
800010e7:	227a                                    	add.n	a2, a2, a7
800010e9:	ffd222                                    	addmi	a2, a2, 0xffffff00
800010ec:	57ffc452221e                           	{ l32i	a2, a2, 252; addi	a8, a8, -1 }
800010f2:	bc89                                    	s32i.n	a8, a12, 44
800010f4:	fd38d6                                    	bgez	a8, 800010cb <_Putfld+0x8b>
800010f7:	5c48                                    	l32i.n	a4, a12, 20
800010f9:	1108                                    	l32i.n	a0, a1, 4
800010fb:	7001b057544e                           	{ addi	a5, a4, 1; l32i	a13, a1, 12 }
80001101:	b0944243e18e                           	{ l32i	a14, a1, 16; add	a4, a4, a14 }
80001107:	7005407f5c0e                           	{ s32i	a5, a12, 20; l32i	a12, a1, 8 }
8000110d:	90004080248e                           	{ s8i	a2, a4, 0; movi	a2, 0 }
80001113:	54427044505e                           	{ ret; addi	a1, a1, 32 }

80001119 <_Putfld+0xd9>:
80001119:	bc58                                    	l32i.n	a5, a12, 44
8000111b:	e8c40a6400a58f                               	{ bltz.w15	a5, 80001a17 <_Putfld+0x9d7>; nop }
80001122:	452c                                    	movi.n	a5, 36

80001124 <_Putfld+0xe4>:
80001124:	2388                                    	l32i.n	a8, a3, 8
80001126:	284b                                    	addi.n	a2, a8, 4
80001128:	2329                                    	s32i.n	a2, a3, 8
8000112a:	7004b1dd80ce                           	{ blt	a0, a8, 80001133 <_Putfld+0xf3>; l32i	a7, a3, 4 }
80001130:	000286                                    	j	8000113e <_Putfld+0xfe>

80001133 <_Putfld+0xf3>:
80001133:	052487                                    	blt	a4, a8, 8000113c <_Putfld+0xfc>
80001136:	90034268538e                           	{ s32i	a5, a3, 8; movi	a2, 36 }

8000113c <_Putfld+0xfc>:
8000113c:	0378                                    	l32i.n	a7, a3, 0

8000113e <_Putfld+0xfe>:
8000113e:	bc68                                    	l32i.n	a6, a12, 44
80001140:	227a                                    	add.n	a2, a2, a7
80001142:	ffd222                                    	addmi	a2, a2, 0xffffff00
80001145:	57ffc351229e                           	{ l32i	a2, a2, 252; addi	a6, a6, -1 }
8000114b:	bc69                                    	s32i.n	a6, a12, 44
8000114d:	fd36d6                                    	bgez	a6, 80001124 <_Putfld+0xe4>
80001150:	014c06                                    	j	80001684 <_Putfld+0x644>

80001153 <_Putfld+0x113>:
80001153:	3f0c52                                    	l8ui	a5, a12, 63
80001156:	5e0516                                    	beqz	a5, 8000173a <_Putfld+0x6fa>
80001159:	97fd8f7f293e                           	{ l32r	a2, 80000740 (800005c0 <_Zero+0x10>); movi	a12, -1 }
8000115f:	0020f0                                    	nop
80001162:	ba0192492c2e                           	{ call0	80002614 <_Fail_s>; or	a3, a4, a4 }
80001168:	1108                                    	l32i.n	a0, a1, 4
8000116a:	70124057d18e                           	{ l32i	a13, a1, 12; l32i	a14, a1, 16 }
80001170:	ba834640c18e                           	{ l32i	a12, a1, 8; sub	a2, a12, a2 }
80001176:	54427044505e                           	{ ret; addi	a1, a1, 32 }

8000117c <_Putfld+0x13c>:
8000117c:	bc68                                    	l32i.n	a6, a12, 44
8000117e:	e944083c00a68f                               	{ bltz.w15	a6, 80001ad0 <_Putfld+0xa90>; nop }

80001185 <_Putfld+0x145>:
80001185:	3e0c22                                    	l8ui	a2, a12, 62
80001188:	2358                                    	l32i.n	a5, a3, 8
8000118a:	271287                                    	beq	a2, a8, 800011b5 <_Putfld+0x175>
8000118d:	4f1297                                    	beq	a2, a9, 800011e0 <_Putfld+0x1a0>
80001190:	a080118281a2cf                               	{ beq.w15	a2, a10, 80001214 <_Putfld+0x1d4>; movi	a7, 116 }
80001197:	a08013b59272cf                               	{ beq.w15	a2, a7, 80001248 <_Putfld+0x208>; movi	a11, 122 }
8000119e:	e0c4003c80b28f                               	{ beq.w15	a2, a11, 80001270 <_Putfld+0x230>; nop }
800011a5:	254b                                    	addi.n	a2, a5, 4
800011a7:	2329                                    	s32i.n	a2, a3, 8
800011a9:	e0c40224c0508f                               	{ blt.w15	a0, a5, 80001295 <_Putfld+0x255>; nop }
800011b0:	1358                                    	l32i.n	a5, a3, 4
800011b2:	003b06                                    	j	800012a2 <_Putfld+0x262>

800011b5 <_Putfld+0x175>:
800011b5:	254b                                    	addi.n	a2, a5, 4
800011b7:	2329                                    	s32i.n	a2, a3, 8
800011b9:	042057                                    	blt	a0, a5, 800011c1 <_Putfld+0x181>
800011bc:	1358                                    	l32i.n	a5, a3, 4
800011be:	000306                                    	j	800011ce <_Putfld+0x18e>

800011c1 <_Putfld+0x181>:
800011c1:	072457                                    	blt	a4, a5, 800011cc <_Putfld+0x18c>
800011c4:	422c                                    	movi.n	a2, 36
800011c6:	90034268238e                           	{ s32i	a2, a3, 8; movi	a2, 36 }

800011cc <_Putfld+0x18c>:
800011cc:	0358                                    	l32i.n	a5, a3, 0

800011ce <_Putfld+0x18e>:
800011ce:	225a                                    	add.n	a2, a2, a5
800011d0:	ffd222                                    	addmi	a2, a2, 0xffffff00
800011d3:	3f2222                                    	l32i	a2, a2, 252
800011d6:	b2509704d38e                           	{ j	800012ad <_Putfld+0x26d>; srai	a5, a2, 31 }

800011dc <_Putfld+0x19c>:
800011dc:	00000000                                ....

800011e0 <_Putfld+0x1a0>:
800011e0:	93f7b451558e                           	{ addi	a5, a5, 7; movi	a6, -8 }
800011e6:	105560                                    	and	a5, a5, a6
800011e9:	258b                                    	addi.n	a2, a5, 8
800011eb:	9002c069238e                           	{ s32i	a2, a3, 8; movi	a6, 16 }
800011f1:	042657                                    	blt	a6, a5, 800011f9 <_Putfld+0x1b9>
800011f4:	1358                                    	l32i.n	a5, a3, 4
800011f6:	000306                                    	j	80001206 <_Putfld+0x1c6>

800011f9 <_Putfld+0x1b9>:
800011f9:	072457                                    	blt	a4, a5, 80001204 <_Putfld+0x1c4>
800011fc:	872c                                    	movi.n	a7, 40
800011fe:	90034468738e                           	{ s32i	a7, a3, 8; movi	a2, 40 }

80001204 <_Putfld+0x1c4>:
80001204:	0358                                    	l32i.n	a5, a3, 0

80001206 <_Putfld+0x1c6>:
80001206:	225a                                    	add.n	a2, a2, a5
80001208:	ffd222                                    	addmi	a2, a2, 0xffffff00
8000120b:	3f2252                                    	l32i	a5, a2, 252
8000120e:	727111009b8e                           	{ j	800012ad <_Putfld+0x26d>; l32i	a2, a2, 248 }

80001214 <_Putfld+0x1d4>:
80001214:	93f7b451558e                           	{ addi	a5, a5, 7; movi	a6, -8 }
8000121a:	105560                                    	and	a5, a5, a6
8000121d:	258b                                    	addi.n	a2, a5, 8
8000121f:	9002c069238e                           	{ s32i	a2, a3, 8; movi	a6, 16 }
80001225:	042657                                    	blt	a6, a5, 8000122d <_Putfld+0x1ed>
80001228:	1358                                    	l32i.n	a5, a3, 4
8000122a:	000306                                    	j	8000123a <_Putfld+0x1fa>

8000122d <_Putfld+0x1ed>:
8000122d:	072457                                    	blt	a4, a5, 80001238 <_Putfld+0x1f8>
80001230:	872c                                    	movi.n	a7, 40
80001232:	90034468738e                           	{ s32i	a7, a3, 8; movi	a2, 40 }

80001238 <_Putfld+0x1f8>:
80001238:	0358                                    	l32i.n	a5, a3, 0

8000123a <_Putfld+0x1fa>:
8000123a:	225a                                    	add.n	a2, a2, a5
8000123c:	ffd222                                    	addmi	a2, a2, 0xffffff00
8000123f:	3f2252                                    	l32i	a5, a2, 252
80001242:	72711100678e                           	{ j	800012ad <_Putfld+0x26d>; l32i	a2, a2, 248 }

80001248 <_Putfld+0x208>:
80001248:	254b                                    	addi.n	a2, a5, 4
8000124a:	2329                                    	s32i.n	a2, a3, 8
8000124c:	052057                                    	blt	a0, a5, 80001255 <_Putfld+0x215>
8000124f:	1358                                    	l32i.n	a5, a3, 4
80001251:	000346                                    	j	80001262 <_Putfld+0x222>

80001254 <_Putfld+0x214>:
	...

80001255 <_Putfld+0x215>:
80001255:	072457                                    	blt	a4, a5, 80001260 <_Putfld+0x220>
80001258:	452c                                    	movi.n	a5, 36
8000125a:	90034268538e                           	{ s32i	a5, a3, 8; movi	a2, 36 }

80001260 <_Putfld+0x220>:
80001260:	0358                                    	l32i.n	a5, a3, 0

80001262 <_Putfld+0x222>:
80001262:	225a                                    	add.n	a2, a2, a5
80001264:	ffd222                                    	addmi	a2, a2, 0xffffff00
80001267:	3f2222                                    	l32i	a2, a2, 252
8000126a:	b25097043f8e                           	{ j	800012ad <_Putfld+0x26d>; srai	a5, a2, 31 }

80001270 <_Putfld+0x230>:
80001270:	254b                                    	addi.n	a2, a5, 4
80001272:	2329                                    	s32i.n	a2, a3, 8
80001274:	042057                                    	blt	a0, a5, 8000127c <_Putfld+0x23c>
80001277:	1358                                    	l32i.n	a5, a3, 4
80001279:	000306                                    	j	80001289 <_Putfld+0x249>

8000127c <_Putfld+0x23c>:
8000127c:	072457                                    	blt	a4, a5, 80001287 <_Putfld+0x247>
8000127f:	452c                                    	movi.n	a5, 36
80001281:	90034268538e                           	{ s32i	a5, a3, 8; movi	a2, 36 }

80001287 <_Putfld+0x247>:
80001287:	0358                                    	l32i.n	a5, a3, 0

80001289 <_Putfld+0x249>:
80001289:	225a                                    	add.n	a2, a2, a5
8000128b:	ffd222                                    	addmi	a2, a2, 0xffffff00
8000128e:	3f2222                                    	l32i	a2, a2, 252
80001291:	000546                                    	j	800012aa <_Putfld+0x26a>

80001294 <_Putfld+0x254>:
	...

80001295 <_Putfld+0x255>:
80001295:	072457                                    	blt	a4, a5, 800012a0 <_Putfld+0x260>
80001298:	452c                                    	movi.n	a5, 36
8000129a:	90034268538e                           	{ s32i	a5, a3, 8; movi	a2, 36 }

800012a0 <_Putfld+0x260>:
800012a0:	0358                                    	l32i.n	a5, a3, 0

800012a2 <_Putfld+0x262>:
800012a2:	225a                                    	add.n	a2, a2, a5
800012a4:	ffd222                                    	addmi	a2, a2, 0xffffff00
800012a7:	3f2222                                    	l32i	a2, a2, 252

800012aa <_Putfld+0x26a>:
800012aa:	315f20                                    	srai	a5, a2, 31

800012ad <_Putfld+0x26d>:
800012ad:	bc68                                    	l32i.n	a6, a12, 44
800012af:	1c59                                    	s32i.n	a5, a12, 4
800012b1:	53f1c3692c8e                           	{ s32i	a2, a12, 0; addi	a6, a6, -1 }
800012b7:	bc69                                    	s32i.n	a6, a12, 44
800012b9:	ba2fd1c0869e                           	{ bgez	a6, 80001185 <_Putfld+0x145>; or	a11, a2, a2 }
800012bf:	90111428550e                           	{ j	80001618 <_Putfld+0x5d8>; movi	a0, 104 }

800012c5 <_Putfld+0x285>:
800012c5:	bc78                                    	l32i.n	a7, a12, 44
800012c7:	28f796                                    	bltz	a7, 8000155a <_Putfld+0x51a>

800012ca <_Putfld+0x28a>:
800012ca:	3e0c22                                    	l8ui	a2, a12, 62
800012cd:	2358                                    	l32i.n	a5, a3, 8
800012cf:	231287                                    	beq	a2, a8, 800012f6 <_Putfld+0x2b6>
800012d2:	4a1297                                    	beq	a2, a9, 80001320 <_Putfld+0x2e0>
800012d5:	7b12a7                                    	beq	a2, a10, 80001354 <_Putfld+0x314>
800012d8:	a08013b581b28f                               	{ beq.w15	a2, a11, 80001388 <_Putfld+0x348>; movi	a6, 122 }
800012df:	e0c4003490628f                               	{ beq.w15	a2, a6, 800013b0 <_Putfld+0x370>; nop }
800012e6:	254b                                    	addi.n	a2, a5, 4
800012e8:	2329                                    	s32i.n	a2, a3, 8
800012ea:	e0c4022cc0508f                               	{ blt.w15	a0, a5, 800013d8 <_Putfld+0x398>; nop }
800012f1:	1358                                    	l32i.n	a5, a3, 4
800012f3:	003b86                                    	j	800013e5 <_Putfld+0x3a5>

800012f6 <_Putfld+0x2b6>:
800012f6:	254b                                    	addi.n	a2, a5, 4
800012f8:	2329                                    	s32i.n	a2, a3, 8
800012fa:	052057                                    	blt	a0, a5, 80001303 <_Putfld+0x2c3>
800012fd:	1358                                    	l32i.n	a5, a3, 4
800012ff:	000346                                    	j	80001310 <_Putfld+0x2d0>

80001302 <_Putfld+0x2c2>:
	...

80001303 <_Putfld+0x2c3>:
80001303:	072457                                    	blt	a4, a5, 8000130e <_Putfld+0x2ce>
80001306:	472c                                    	movi.n	a7, 36
80001308:	90034268738e                           	{ s32i	a7, a3, 8; movi	a2, 36 }

8000130e <_Putfld+0x2ce>:
8000130e:	0358                                    	l32i.n	a5, a3, 0

80001310 <_Putfld+0x2d0>:
80001310:	225a                                    	add.n	a2, a2, a5
80001312:	940e3859227e                           	{ addmi	a2, a2, 0xffffff00; movi	a5, 0 }
80001318:	72719100d48e                           	{ j	800013f0 <_Putfld+0x3b0>; l32i	a2, a2, 252 }

8000131e <_Putfld+0x2de>:
	...

80001320 <_Putfld+0x2e0>:
80001320:	93f7b451558e                           	{ addi	a5, a5, 7; movi	a6, -8 }
80001326:	105560                                    	and	a5, a5, a6
80001329:	258b                                    	addi.n	a2, a5, 8
8000132b:	9002c069238e                           	{ s32i	a2, a3, 8; movi	a6, 16 }
80001331:	042657                                    	blt	a6, a5, 80001339 <_Putfld+0x2f9>
80001334:	1358                                    	l32i.n	a5, a3, 4
80001336:	000306                                    	j	80001346 <_Putfld+0x306>

80001339 <_Putfld+0x2f9>:
80001339:	072457                                    	blt	a4, a5, 80001344 <_Putfld+0x304>
8000133c:	872c                                    	movi.n	a7, 40
8000133e:	90034468738e                           	{ s32i	a7, a3, 8; movi	a2, 40 }

80001344 <_Putfld+0x304>:
80001344:	0358                                    	l32i.n	a5, a3, 0

80001346 <_Putfld+0x306>:
80001346:	225a                                    	add.n	a2, a2, a5
80001348:	ffd222                                    	addmi	a2, a2, 0xffffff00
8000134b:	3f2252                                    	l32i	a5, a2, 252
8000134e:	727111009e8e                           	{ j	800013f0 <_Putfld+0x3b0>; l32i	a2, a2, 248 }

80001354 <_Putfld+0x314>:
80001354:	93f7b451558e                           	{ addi	a5, a5, 7; movi	a6, -8 }
8000135a:	105560                                    	and	a5, a5, a6
8000135d:	258b                                    	addi.n	a2, a5, 8
8000135f:	9002c069238e                           	{ s32i	a2, a3, 8; movi	a6, 16 }
80001365:	042657                                    	blt	a6, a5, 8000136d <_Putfld+0x32d>
80001368:	1358                                    	l32i.n	a5, a3, 4
8000136a:	000306                                    	j	8000137a <_Putfld+0x33a>

8000136d <_Putfld+0x32d>:
8000136d:	072457                                    	blt	a4, a5, 80001378 <_Putfld+0x338>
80001370:	872c                                    	movi.n	a7, 40
80001372:	90034468738e                           	{ s32i	a7, a3, 8; movi	a2, 40 }

80001378 <_Putfld+0x338>:
80001378:	0358                                    	l32i.n	a5, a3, 0

8000137a <_Putfld+0x33a>:
8000137a:	225a                                    	add.n	a2, a2, a5
8000137c:	ffd222                                    	addmi	a2, a2, 0xffffff00
8000137f:	3f2252                                    	l32i	a5, a2, 252
80001382:	727111006a8e                           	{ j	800013f0 <_Putfld+0x3b0>; l32i	a2, a2, 248 }

80001388 <_Putfld+0x348>:
80001388:	254b                                    	addi.n	a2, a5, 4
8000138a:	2329                                    	s32i.n	a2, a3, 8
8000138c:	052057                                    	blt	a0, a5, 80001395 <_Putfld+0x355>
8000138f:	1358                                    	l32i.n	a5, a3, 4
80001391:	000346                                    	j	800013a2 <_Putfld+0x362>

80001394 <_Putfld+0x354>:
	...

80001395 <_Putfld+0x355>:
80001395:	072457                                    	blt	a4, a5, 800013a0 <_Putfld+0x360>
80001398:	452c                                    	movi.n	a5, 36
8000139a:	90034268538e                           	{ s32i	a5, a3, 8; movi	a2, 36 }

800013a0 <_Putfld+0x360>:
800013a0:	0358                                    	l32i.n	a5, a3, 0

800013a2 <_Putfld+0x362>:
800013a2:	225a                                    	add.n	a2, a2, a5
800013a4:	940e3859227e                           	{ addmi	a2, a2, 0xffffff00; movi	a5, 0 }
800013aa:	72719100428e                           	{ j	800013f0 <_Putfld+0x3b0>; l32i	a2, a2, 252 }

800013b0 <_Putfld+0x370>:
800013b0:	254b                                    	addi.n	a2, a5, 4
800013b2:	2329                                    	s32i.n	a2, a3, 8
800013b4:	042057                                    	blt	a0, a5, 800013bc <_Putfld+0x37c>
800013b7:	1358                                    	l32i.n	a5, a3, 4
800013b9:	000306                                    	j	800013c9 <_Putfld+0x389>

800013bc <_Putfld+0x37c>:
800013bc:	072457                                    	blt	a4, a5, 800013c7 <_Putfld+0x387>
800013bf:	452c                                    	movi.n	a5, 36
800013c1:	90034268538e                           	{ s32i	a5, a3, 8; movi	a2, 36 }

800013c7 <_Putfld+0x387>:
800013c7:	0358                                    	l32i.n	a5, a3, 0

800013c9 <_Putfld+0x389>:
800013c9:	225a                                    	add.n	a2, a2, a5
800013cb:	940e3859227e                           	{ addmi	a2, a2, 0xffffff00; movi	a5, 0 }
800013d1:	727191001b8e                           	{ j	800013f0 <_Putfld+0x3b0>; l32i	a2, a2, 252 }

800013d7 <_Putfld+0x397>:
	...

800013d8 <_Putfld+0x398>:
800013d8:	072457                                    	blt	a4, a5, 800013e3 <_Putfld+0x3a3>
800013db:	452c                                    	movi.n	a5, 36
800013dd:	90034268538e                           	{ s32i	a5, a3, 8; movi	a2, 36 }

800013e3 <_Putfld+0x3a3>:
800013e3:	0358                                    	l32i.n	a5, a3, 0

800013e5 <_Putfld+0x3a5>:
800013e5:	225a                                    	add.n	a2, a2, a5
800013e7:	ffd222                                    	addmi	a2, a2, 0xffffff00
800013ea:	940e4051225e                           	{ l32i	a2, a2, 252; movi	a5, 0 }

800013f0 <_Putfld+0x3b0>:
800013f0:	bc68                                    	l32i.n	a6, a12, 44
800013f2:	1c59                                    	s32i.n	a5, a12, 4
800013f4:	53f1c3692c8e                           	{ s32i	a2, a12, 0; addi	a6, a6, -1 }
800013fa:	bc69                                    	s32i.n	a6, a12, 44
800013fc:	eca6d6                                    	bgez	a6, 800012ca <_Putfld+0x28a>
800013ff:	0055c6                                    	j	8000155a <_Putfld+0x51a>

80001402 <_Putfld+0x3c2>:
	...

80001403 <_Putfld+0x3c3>:
80001403:	940f42818c5e                           	{ s8i	a8, a12, 62; movi	a5, 36 }
80001409:	ba011402070e                           	{ j	80001414 <_Putfld+0x3d4>; or	a2, a8, a8 }

8000140f <_Putfld+0x3cf>:
8000140f:	3e0c22                                    	l8ui	a2, a12, 62
80001412:	452c                                    	movi.n	a5, 36

80001414 <_Putfld+0x3d4>:
80001414:	bc98                                    	l32i.n	a9, a12, 44
80001416:	e3c4020c90828f                               	{ beq.w15	a2, a8, 800017fd <_Putfld+0x7bd>; nop }
8000141d:	3aa996                                    	bltz	a9, 800017cb <_Putfld+0x78b>

80001420 <_Putfld+0x3e0>:
80001420:	2388                                    	l32i.n	a8, a3, 8
80001422:	284b                                    	addi.n	a2, a8, 4
80001424:	2329                                    	s32i.n	a2, a3, 8
80001426:	700ab1dd80ce                           	{ blt	a0, a8, 80001435 <_Putfld+0x3f5>; l32i	a7, a3, 4 }
8000142c:	000406                                    	j	80001440 <_Putfld+0x400>

8000142f <_Putfld+0x3ef>:
8000142f:	00000000 24870000                                ......

80001435 <_Putfld+0x3f5>:
80001435:	052487                                    	blt	a4, a8, 8000143e <_Putfld+0x3fe>
80001438:	90034268538e                           	{ s32i	a5, a3, 8; movi	a2, 36 }

8000143e <_Putfld+0x3fe>:
8000143e:	0378                                    	l32i.n	a7, a3, 0

80001440 <_Putfld+0x400>:
80001440:	7029de22723e                           	{ add	a2, a2, a7; l32i	a8, a12, 44 }
80001446:	ffd222                                    	addmi	a2, a2, 0xffffff00
80001449:	3f2222                                    	l32i	a2, a2, 252
8000144c:	53f5c46a2c0e                           	{ s32i	a2, a12, 16; addi	a8, a8, -1 }
80001452:	bc89                                    	s32i.n	a8, a12, 44
80001454:	fc88d6                                    	bgez	a8, 80001420 <_Putfld+0x3e0>
80001457:	375216                                    	beqz	a2, 800017d0 <_Putfld+0x790>

8000145a <_Putfld+0x41a>:
8000145a:	cc48                                    	l32i.n	a4, a12, 48
8000145c:	3d3496                                    	bltz	a4, 80001833 <_Putfld+0x7f3>
8000145f:	90001058dcee                           	{ call0	80006bd0 <memchr>; movi	a3, 0 }
80001465:	72cc                                    	bnez.n	a2, 80001470 <_Putfld+0x430>
80001467:	703016000a8e                           	{ j	80001475 <_Putfld+0x435>; l32i	a2, a12, 48 }

8000146d <_Putfld+0x42d>:
8000146d:	000000                                        ...

80001470 <_Putfld+0x430>:
80001470:	4c38                                    	l32i.n	a3, a12, 16
80001472:	c02230                                    	sub	a2, a2, a3

80001475 <_Putfld+0x435>:
80001475:	1e1c02                                    	l16ui	a0, a12, 60
80001478:	7c29                                    	s32i.n	a2, a12, 28
8000147a:	703e3611401e                           	{ bbci	a0, 4, 800014ad <_Putfld+0x46d>; l32i	a4, a12, 48 }
80001480:	e244025cb0428f                               	{ bge.w15	a2, a4, 800016fb <_Putfld+0x6bb>; nop }
80001487:	31d8                                    	l32i.n	a13, a1, 12
80001489:	ba90c250018e                           	{ l32i	a0, a1, 4; sub	a5, a4, a2 }
8000148f:	7410500720ae                           	{ movi	a2, 0; l32i	a14, a1, 16 }
80001495:	7007406f5c0e                           	{ s32i	a5, a12, 24; l32i	a12, a1, 8 }
8000149b:	54427044505e                           	{ ret; addi	a1, a1, 32 }

800014a1 <_Putfld+0x461>:
	...

800014a2 <_Putfld+0x462>:
800014a2:	0c2d                                    	mov.n	a2, a12
800014a4:	ba0193252aee                           	{ call0	80001d50 <_Putstr>; or	a3, a7, a7 }
800014aa:	420296                                    	bltz	a2, 800018ce <_Putfld+0x88e>

800014ad <_Putfld+0x46d>:
800014ad:	1108                                    	l32i.n	a0, a1, 4
800014af:	90024040c18e                           	{ l32i	a12, a1, 8; movi	a2, 0 }
800014b5:	70124057d18e                           	{ l32i	a13, a1, 12; l32i	a14, a1, 16 }
800014bb:	54427044505e                           	{ ret; addi	a1, a1, 32 }

800014c1 <_Putfld+0x481>:
800014c1:	000000                                        ...

800014c4 <_Putfld+0x484>:
800014c4:	bc68                                    	l32i.n	a6, a12, 44
800014c6:	940154eaa65e                           	{ bltz	a6, 800015c4 <_Putfld+0x584>; movi	a9, 40 }
800014cc:	c84c                                    	movi.n	a8, 76

800014ce <_Putfld+0x48e>:
800014ce:	2308                                    	l32i.n	a0, a3, 8
800014d0:	3e0c72                                    	l8ui	a7, a12, 62
800014d3:	9006b051008e                           	{ addi	a0, a0, 7; movi	a6, 16 }
800014d9:	b10e30a1874e                           	{ beq	a7, a8, 800014eb <_Putfld+0x4ab>; and	a0, a0, a5 }
800014df:	208b                                    	addi.n	a2, a0, 8
800014e1:	2329                                    	s32i.n	a2, a3, 8
800014e3:	292607                                    	blt	a6, a0, 80001510 <_Putfld+0x4d0>
800014e6:	1308                                    	l32i.n	a0, a3, 4
800014e8:	000bc6                                    	j	8000151b <_Putfld+0x4db>

800014eb <_Putfld+0x4ab>:
800014eb:	208b                                    	addi.n	a2, a0, 8
800014ed:	9002c06923ce                           	{ s32i	a2, a3, 8; movi	a7, 16 }
800014f3:	042707                                    	blt	a7, a0, 800014fb <_Putfld+0x4bb>
800014f6:	1308                                    	l32i.n	a0, a3, 4
800014f8:	000286                                    	j	80001506 <_Putfld+0x4c6>

800014fb <_Putfld+0x4bb>:
800014fb:	052407                                    	blt	a4, a0, 80001504 <_Putfld+0x4c4>
800014fe:	90034468938e                           	{ s32i	a9, a3, 8; movi	a2, 40 }

80001504 <_Putfld+0x4c4>:
80001504:	0308                                    	l32i.n	a0, a3, 0

80001506 <_Putfld+0x4c6>:
80001506:	a20a                                    	add.n	a10, a2, a0
80001508:	29c0150317ce                           	{ j	80001523 <_Putfld+0x4e3>; pdx_ls_64_i	v0, a10, -8 }

8000150e <_Putfld+0x4ce>:
	...

80001510 <_Putfld+0x4d0>:
80001510:	052407                                    	blt	a4, a0, 80001519 <_Putfld+0x4d9>
80001513:	90034468938e                           	{ s32i	a9, a3, 8; movi	a2, 40 }

80001519 <_Putfld+0x4d9>:
80001519:	0308                                    	l32i.n	a0, a3, 0

8000151b <_Putfld+0x4db>:
8000151b:	b20a                                    	add.n	a11, a2, a0
8000151d:	c4cea000fb5e                           	{ pdx_ls_64_i	v0, a11, -8; nop }

80001523 <_Putfld+0x4e3>:
80001523:	bc08                                    	l32i.n	a0, a12, 44
80001525:	53f1a8000c0e                           	{ pdx_ss_64_i	v0, a12, 0; addi	a0, a0, -1 }
8000152b:	bc09                                    	s32i.n	a0, a12, 44
8000152d:	f9d0d6                                    	bgez	a0, 800014ce <_Putfld+0x48e>
80001530:	002406                                    	j	800015c4 <_Putfld+0x584>

80001533 <_Putfld+0x4f3>:
	...

80001534 <_Putfld+0x4f4>:
80001534:	5c38                                    	l32i.n	a3, a12, 20
80001536:	7001c057014e                           	{ l32i	a0, a1, 4; l32i	a13, a1, 12 }
8000153c:	90013254438e                           	{ addi	a4, a3, 1; movi	a2, 37 }
80001542:	b085c147e18e                           	{ l32i	a14, a1, 16; add	a3, a3, a14 }
80001548:	7005407f4c0e                           	{ s32i	a4, a12, 20; l32i	a12, a1, 8 }
8000154e:	90004080238e                           	{ s8i	a2, a3, 0; movi	a2, 0 }
80001554:	54427044505e                           	{ ret; addi	a1, a1, 32 }

8000155a <_Putfld+0x51a>:
8000155a:	3e0c22                                    	l8ui	a2, a12, 62
8000155d:	68a052                                    	movi	a5, 104
80001560:	e384005490528f                               	{ beq.w15	a2, a5, 800018f9 <_Putfld+0x8b9>; nop }
80001567:	62a062                                    	movi	a6, 98
8000156a:	e384027490628f                               	{ beq.w15	a2, a6, 8000192b <_Putfld+0x8eb>; nop }

80001571 <_Putfld+0x531>:
80001571:	1e1c72                                    	l16ui	a7, a12, 60
80001574:	256737                                    	bbci	a7, 3, 8000159d <_Putfld+0x55d>
80001577:	7000c6428c4e                           	{ l32i	a8, a12, 0; l32i	a9, a12, 4 }
8000157d:	1a0c                                    	movi.n	a10, 1
8000157f:	bc245d8a9a3e                           	{ movnez	a9, a10, a9; movnez	a8, a10, a8 }
80001585:	208890                                    	or	a8, a8, a9
80001588:	189c                                    	beqz.n	a8, 8000159d <_Putfld+0x55d>
8000158a:	78a0b2                                    	movi	a11, 120
8000158d:	e384021c90bd8f                               	{ beq.w15	a13, a11, 80001938 <_Putfld+0x8f8>; nop }
80001594:	805c                                    	movi.n	a0, 88
80001596:	e384007c800d8f                               	{ beq.w15	a13, a0, 80001938 <_Putfld+0x8f8>; nop }

8000159d <_Putfld+0x55d>:
8000159d:	052c22                                    	l32i	a2, a12, 20
800015a0:	8022e0                                    	add	a2, a2, a14
800015a3:	ba05c66f2c4e                           	{ s32i	a2, a12, 16; or	a3, a13, a13 }
800015a9:	ba0116832d2e                           	{ call0	80003660 <_Litob>; or	a2, a12, a12 }
800015af:	012102                                    	l32i	a0, a1, 4
800015b2:	90024040c18e                           	{ l32i	a12, a1, 8; movi	a2, 0 }
800015b8:	70124057d18e                           	{ l32i	a13, a1, 12; l32i	a14, a1, 16 }
800015be:	54427044505e                           	{ ret; addi	a1, a1, 32 }

800015c4 <_Putfld+0x584>:
800015c4:	0020f0                                    	nop
800015c7:	ba011663642e                           	{ call0	80002f58 <_LPmsw>; or	a2, a12, a12 }
800015cd:	009232                                    	l16si	a3, a2, 0
800015d0:	335396                                    	bltz	a3, 80001909 <_Putfld+0x8c9>
800015d3:	1e1c02                                    	l16ui	a0, a12, 60
800015d6:	e1c4005c00108f                               	{ bbci.w15	a0, 1, 800017b0 <_Putfld+0x770>; nop }
800015dd:	5c58                                    	l32i.n	a5, a12, 20
800015df:	90013555650e                           	{ addi	a6, a5, 1; movi	a4, 43 }
800015e5:	b094c27f6c8e                           	{ s32i	a6, a12, 20; add	a5, a5, a14 }
800015eb:	004542                                    	s8i	a4, a5, 0

800015ee <_Putfld+0x5ae>:
800015ee:	052c72                                    	l32i	a7, a12, 20
800015f1:	8077e0                                    	add	a7, a7, a14
800015f4:	ba05466b7c0e                           	{ s32i	a7, a12, 16; or	a2, a12, a12 }
800015fa:	ba019667596e                           	{ call0	80002f60 <_Ldtob>; or	a3, a13, a13 }
80001600:	012102                                    	l32i	a0, a1, 4
80001603:	90024040c18e                           	{ l32i	a12, a1, 8; movi	a2, 0 }
80001609:	70124057d18e                           	{ l32i	a13, a1, 12; l32i	a14, a1, 16 }
8000160f:	54427044505e                           	{ ret; addi	a1, a1, 32 }

80001615 <_Putfld+0x5d5>:
80001615:	000000                                        ...

80001618 <_Putfld+0x5d8>:
80001618:	3e0c22                                    	l8ui	a2, a12, 62
8000161b:	a2c000308002cf                               	{ beq.w15	a2, a0, 800018eb <_Putfld+0x8ab>; movi	a3, 0 }
80001622:	62a082                                    	movi	a8, 98
80001625:	e2c4025480828f                               	{ beq.w15	a2, a8, 8000191d <_Putfld+0x8dd>; nop }
8000162c:	74a092                                    	movi	a9, 116
8000162f:	e204021c90928f                               	{ beq.w15	a2, a9, 8000185a <_Putfld+0x81a>; nop }
80001636:	7aa0a2                                    	movi	a10, 122
80001639:	e204007490a28f                               	{ beq.w15	a2, a10, 8000185a <_Putfld+0x81a>; nop }

80001640 <_Putfld+0x600>:
80001640:	aa80007808350f                               	{ blti.w15	a5, 1, 800018e2 <_Putfld+0x8a2>; movi	a0, 0 }

80001647 <_Putfld+0x607>:
80001647:	1f1016                                    	beqz	a0, 8000183c <_Putfld+0x7fc>
8000164a:	5c08                                    	l32i.n	a0, a12, 20
8000164c:	9001365620ce                           	{ addi	a2, a0, 1; movi	a11, 45 }
80001652:	b084407b2c8e                           	{ s32i	a2, a12, 20; add	a0, a0, a14 }
80001658:	0040b2                                    	s8i	a11, a0, 0

8000165b <_Putfld+0x61b>:
8000165b:	5c38                                    	l32i.n	a3, a12, 20
8000165d:	0c2d                                    	mov.n	a2, a12
8000165f:	b085c147e18e                           	{ l32i	a14, a1, 16; add	a3, a3, a14 }
80001665:	7005406f3c0e                           	{ s32i	a3, a12, 16; l32i	a12, a1, 8 }
8000166b:	ba01966ffd6e                           	{ call0	80003660 <_Litob>; or	a3, a13, a13 }
80001671:	1108                                    	l32i.n	a0, a1, 4
80001673:	90024050d18e                           	{ l32i	a13, a1, 12; movi	a2, 0 }
80001679:	54427044505e                           	{ ret; addi	a1, a1, 32 }

8000167f <_Putfld+0x63f>:
8000167f:	000000                                        ...

80001682 <_Putfld+0x642>:
	...

80001684 <_Putfld+0x644>:
80001684:	9000406d2c4e                           	{ s32i	a2, a12, 0; movi	a5, 1 }
8000168a:	94045821253e                           	{ movnez	a2, a5, a2; movi	a4, 0 }
80001690:	bc105205502e                           	{ movi	a5, 0; movnez	a4, a5, a4 }
80001696:	ba1041795c0e                           	{ s32i	a5, a12, 4; or	a4, a2, a4 }
8000169c:	04ac                                    	beqz.n	a4, 800016c0 <_Putfld+0x680>
8000169e:	5ca8                                    	l32i.n	a10, a12, 20
800016a0:	9001b052ba4e                           	{ addi	a11, a10, 1; movi	a9, 48 }
800016a6:	b0a5457bbc8e                           	{ s32i	a11, a12, 20; add	a10, a10, a14 }
800016ac:	004a92                                    	s8i	a9, a10, 0
800016af:	5c78                                    	l32i.n	a7, a12, 20
800016b1:	9011b451878e                           	{ addi	a8, a7, 1; movi	a6, 120 }
800016b7:	b095c37f8c8e                           	{ s32i	a8, a12, 20; add	a7, a7, a14 }
800016bd:	004762                                    	s8i	a6, a7, 0

800016c0 <_Putfld+0x680>:
800016c0:	6a354650dc0e                           	{ l32i	a13, a12, 20; l16ui	a0, a12, 60 }
800016c6:	9400550820ee                           	{ movi	a2, 16; movi	a3, 10 }
800016cc:	901fc4683cce                           	{ s32i	a3, a12, 56; movi	a3, 120 }
800016d2:	b4bade0720be                           	{ or	a0, a0, a2; add	a13, a13, a14 }
800016d8:	ba05466bdc0e                           	{ s32i	a13, a12, 16; or	a2, a12, a12 }
800016de:	740fc0670c4e                           	{ s16i	a0, a12, 60; l32i	a13, a1, 12 }
800016e4:	7001106fde2e                           	{ call0	80003660 <_Litob>; l32i	a12, a1, 8 }
800016ea:	1108                                    	l32i.n	a0, a1, 4
800016ec:	90044040e18e                           	{ l32i	a14, a1, 16; movi	a2, 0 }
800016f2:	54427044505e                           	{ ret; addi	a1, a1, 32 }

800016f8 <_Putfld+0x6b8>:
800016f8:	000000                                        ...

800016fb <_Putfld+0x6bb>:
800016fb:	dae4d6                                    	bgez	a4, 800014ad <_Putfld+0x46d>
800016fe:	461c                                    	movi.n	a6, 20
80001700:	106060                                    	and	a6, a0, a6
80001703:	edb40e1ca8568f                               	{ bnei.w15	a6, 16, 800014ad <_Putfld+0x46d>; nop }
8000170a:	703546504c0e                           	{ l32i	a4, a12, 20; l32i	a0, a12, 56 }
80001710:	6c38                                    	l32i.n	a3, a12, 24
80001712:	c00040                                    	sub	a0, a0, a4
80001715:	c00030                                    	sub	a0, a0, a3
80001718:	c00020                                    	sub	a0, a0, a2
8000171b:	edb40c3c08308f                               	{ blti.w15	a0, 1, 800014ad <_Putfld+0x46d>; nop }
80001722:	7006c06c0c0e                           	{ s32i	a0, a12, 24; l32i	a0, a1, 4 }
80001728:	90024050d18e                           	{ l32i	a13, a1, 12; movi	a2, 0 }
8000172e:	70054047e10e                           	{ l32i	a14, a1, 16; l32i	a12, a1, 8 }
80001734:	54427044505e                           	{ ret; addi	a1, a1, 32 }

8000173a <_Putfld+0x6fa>:
8000173a:	3e0c52                                    	l8ui	a5, a12, 62
8000173d:	62a062                                    	movi	a6, 98
80001740:	820823c680658f                               	{ beq.w15	a5, a6, 80001974 <_Putfld+0x934>; l32i	a2, a12, 44 }
80001747:	e244025c90958f                               	{ beq.w15	a5, a9, 800019c2 <_Putfld+0x982>; nop }
8000174e:	e2c4002c90a58f                               	{ beq.w15	a5, a10, 80001a1d <_Putfld+0x9dd>; nop }
80001755:	e304027c90b58f                               	{ beq.w15	a5, a11, 80001a98 <_Putfld+0xa58>; nop }
8000175c:	7aa072                                    	movi	a7, 122
8000175f:	e384004c90758f                               	{ beq.w15	a5, a7, 80001af6 <_Putfld+0xab6>; nop }
80001766:	68a092                                    	movi	a9, 104
80001769:	e3c4005c90958f                               	{ beq.w15	a5, a9, 80001b44 <_Putfld+0xb04>; nop }
80001770:	e004061c80858f                               	{ beq.w15	a5, a8, 80001b9a <_Putfld+0xb5a>; nop }
80001777:	4a9296                                    	bltz	a2, 80001c24 <_Putfld+0xbe4>

8000177a <_Putfld+0x73a>:
8000177a:	2358                                    	l32i.n	a5, a3, 8
8000177c:	254b                                    	addi.n	a2, a5, 4
8000177e:	2329                                    	s32i.n	a2, a3, 8
80001780:	052057                                    	blt	a0, a5, 80001789 <_Putfld+0x749>
80001783:	700091050f4e                           	{ j	80001796 <_Putfld+0x756>; l32i	a5, a3, 4 }

80001789 <_Putfld+0x749>:
80001789:	072457                                    	blt	a4, a5, 80001794 <_Putfld+0x754>
8000178c:	4a2c                                    	movi.n	a10, 36
8000178e:	90034268a38e                           	{ s32i	a10, a3, 8; movi	a2, 36 }

80001794 <_Putfld+0x754>:
80001794:	0358                                    	l32i.n	a5, a3, 0

80001796 <_Putfld+0x756>:
80001796:	bcb8                                    	l32i.n	a11, a12, 44
80001798:	225a                                    	add.n	a2, a2, a5
8000179a:	ffd222                                    	addmi	a2, a2, 0xffffff00
8000179d:	57ffc55622de                           	{ l32i	a2, a2, 252; addi	a11, a11, -1 }
800017a3:	bcb9                                    	s32i.n	a11, a12, 44
800017a5:	fd1bd6                                    	bgez	a11, 8000177a <_Putfld+0x73a>
800017a8:	478216                                    	beqz	a2, 80001c24 <_Putfld+0xbe4>
800017ab:	002d86                                    	j	80001865 <_Putfld+0x825>

800017ae <_Putfld+0x76e>:
	...

800017b0 <_Putfld+0x770>:
800017b0:	e6340e6c00008f                               	{ bbci.w15	a0, 0, 800015ee <_Putfld+0x5ae>; nop }
800017b7:	5c48                                    	l32i.n	a4, a12, 20
800017b9:	9001305054ce                           	{ addi	a5, a4, 1; movi	a3, 32 }
800017bf:	b094427b5c8e                           	{ s32i	a5, a12, 20; add	a4, a4, a14 }
800017c5:	004432                                    	s8i	a3, a4, 0
800017c8:	ff8886                                    	j	800015ee <_Putfld+0x5ae>

800017cb <_Putfld+0x78b>:
800017cb:	4c28                                    	l32i.n	a2, a12, 16
800017cd:	c89256                                    	bnez	a2, 8000145a <_Putfld+0x41a>

800017d0 <_Putfld+0x790>:
800017d0:	3f0c62                                    	l8ui	a6, a12, 63
800017d3:	3bb616                                    	beqz	a6, 80001b92 <_Putfld+0xb52>

800017d6 <_Putfld+0x796>:
800017d6:	c80256                                    	bnez	a2, 8000145a <_Putfld+0x41a>
800017d9:	fbda21                                    	l32r	a2, 80000744 (800005f0 <_Zero+0x40>)
800017dc:	900095288dee                           	{ call0	80002614 <_Fail_s>; movi	a3, 26 }
800017e2:	7002c044c10e                           	{ l32i	a12, a1, 8; l32i	a0, a1, 4 }
800017e8:	740fd0ff7f6e                           	{ movi	a7, -1; l32i	a13, a1, 12 }
800017ee:	741e583727be                           	{ sub	a2, a7, a2; l32i	a14, a1, 16 }
800017f4:	54427044505e                           	{ ret; addi	a1, a1, 32 }

800017fa <_Putfld+0x7ba>:
800017fa:	000000                                        ...

800017fd <_Putfld+0x7bd>:
800017fd:	3f3996                                    	bltz	a9, 80001bf4 <_Putfld+0xbb4>

80001800 <_Putfld+0x7c0>:
80001800:	2388                                    	l32i.n	a8, a3, 8
80001802:	284b                                    	addi.n	a2, a8, 4
80001804:	2329                                    	s32i.n	a2, a3, 8
80001806:	7006b1cd80ce                           	{ blt	a0, a8, 80001810 <_Putfld+0x7d0>; l32i	a7, a3, 4 }
8000180c:	0002c6                                    	j	8000181b <_Putfld+0x7db>

8000180f <_Putfld+0x7cf>:
	...

80001810 <_Putfld+0x7d0>:
80001810:	052487                                    	blt	a4, a8, 80001819 <_Putfld+0x7d9>
80001813:	90034268538e                           	{ s32i	a5, a3, 8; movi	a2, 36 }

80001819 <_Putfld+0x7d9>:
80001819:	0378                                    	l32i.n	a7, a3, 0

8000181b <_Putfld+0x7db>:
8000181b:	bc88                                    	l32i.n	a8, a12, 44
8000181d:	727a                                    	add.n	a7, a2, a7
8000181f:	ffd772                                    	addmi	a7, a7, 0xffffff00
80001822:	57ffc452771e                           	{ l32i	a7, a7, 252; addi	a8, a8, -1 }
80001828:	bc89                                    	s32i.n	a8, a12, 44
8000182a:	fd28d6                                    	bgez	a8, 80001800 <_Putfld+0x7c0>
8000182d:	3c3716                                    	beqz	a7, 80001bf4 <_Putfld+0xbb4>
80001830:	ff1b86                                    	j	800014a2 <_Putfld+0x462>

80001833 <_Putfld+0x7f3>:
80001833:	0152c5                                    	call0	80002d60 <strlen>
80001836:	ff0ec6                                    	j	80001475 <_Putfld+0x435>

80001839 <_Putfld+0x7f9>:
80001839:	000000                                        ...

8000183c <_Putfld+0x7fc>:
8000183c:	1e1c02                                    	l16ui	a0, a12, 60
8000183f:	e104005c00108f                               	{ bbci.w15	a0, 1, 80001959 <_Putfld+0x919>; nop }
80001846:	5c98                                    	l32i.n	a9, a12, 20
80001848:	90013556a90e                           	{ addi	a10, a9, 1; movi	a8, 43 }
8000184e:	b0a4c47fac8e                           	{ s32i	a10, a12, 20; add	a9, a9, a14 }
80001854:	004982                                    	s8i	a8, a9, 0
80001857:	ff8006                                    	j	8000165b <_Putfld+0x61b>

8000185a <_Putfld+0x81a>:
8000185a:	b250c76ebcce                           	{ s32i	a11, a12, 0; srai	a5, a11, 31 }
80001860:	1c59                                    	s32i.n	a5, a12, 4
80001862:	ff7686                                    	j	80001640 <_Putfld+0x600>

80001865 <_Putfld+0x825>:
80001865:	31d8                                    	l32i.n	a13, a1, 12
80001867:	700cc054bc0e                           	{ l32i	a11, a12, 52; l32i	a0, a1, 4 }
8000186d:	70054047e10e                           	{ l32i	a14, a1, 16; l32i	a12, a1, 8 }
80001873:	90004068b28e                           	{ s32i	a11, a2, 0; movi	a2, 0 }
80001879:	54427044505e                           	{ ret; addi	a1, a1, 32 }

8000187f <_Putfld+0x83f>:
	...

80001880 <_Putfld+0x840>:
80001880:	394296                                    	bltz	a2, 80001c18 <_Putfld+0xbd8>

80001883 <_Putfld+0x843>:
80001883:	2388                                    	l32i.n	a8, a3, 8
80001885:	284b                                    	addi.n	a2, a8, 4
80001887:	2329                                    	s32i.n	a2, a3, 8
80001889:	7006b1cd80ce                           	{ blt	a0, a8, 80001893 <_Putfld+0x853>; l32i	a7, a3, 4 }
8000188f:	0002c6                                    	j	8000189e <_Putfld+0x85e>

80001892 <_Putfld+0x852>:
	...

80001893 <_Putfld+0x853>:
80001893:	052487                                    	blt	a4, a8, 8000189c <_Putfld+0x85c>
80001896:	90034268538e                           	{ s32i	a5, a3, 8; movi	a2, 36 }

8000189c <_Putfld+0x85c>:
8000189c:	0378                                    	l32i.n	a7, a3, 0

8000189e <_Putfld+0x85e>:
8000189e:	0b2cd2                                    	l32i	a13, a12, 44
800018a1:	802270                                    	add	a2, a2, a7
800018a4:	ffd222                                    	addmi	a2, a2, 0xffffff00
800018a7:	57ffc657225e                           	{ l32i	a2, a2, 252; addi	a13, a13, -1 }
800018ad:	0b6cd2                                    	s32i	a13, a12, 44
800018b0:	fcfdd6                                    	bgez	a13, 80001883 <_Putfld+0x843>

800018b3 <_Putfld+0x873>:
800018b3:	90004061210e                           	{ s16i	a2, a1, 0; movi	a4, 0 }
800018b9:	93f1c77441ce                           	{ s16i	a4, a1, 2; movi	a3, -1 }
800018bf:	ba0d466b3c0e                           	{ s32i	a3, a12, 48; or	a2, a12, a12 }
800018c5:	ba01900c226e                           	{ call0	80001d50 <_Putstr>; or	a3, a1, a1 }
800018cb:	bde2d6                                    	bgez	a2, 800014ad <_Putfld+0x46d>

800018ce <_Putfld+0x88e>:
800018ce:	1108                                    	l32i.n	a0, a1, 4
800018d0:	93f3c744c18e                           	{ l32i	a12, a1, 8; movi	a2, -1 }
800018d6:	70124057d18e                           	{ l32i	a13, a1, 12; l32i	a14, a1, 16 }
800018dc:	54427044505e                           	{ ret; addi	a1, a1, 32 }

800018e2 <_Putfld+0x8a2>:
800018e2:	302516                                    	beqz	a5, 80001be8 <_Putfld+0xba8>

800018e5 <_Putfld+0x8a5>:
800018e5:	940e10dc5e1e                           	{ j	80001647 <_Putfld+0x607>; movi	a0, 1 }

800018eb <_Putfld+0x8ab>:
800018eb:	23bb80                                    	sext	a11, a11, 15
800018ee:	b250c76ebcce                           	{ s32i	a11, a12, 0; srai	a5, a11, 31 }
800018f4:	1c59                                    	s32i.n	a5, a12, 4
800018f6:	ff5186                                    	j	80001640 <_Putfld+0x600>

800018f9 <_Putfld+0x8b9>:
800018f9:	009c52                                    	l16si	a5, a12, 0
800018fc:	060c                                    	movi.n	a6, 0
800018fe:	49d0c0796c4e                           	{ s32i	a6, a12, 4; extui	a5, a5, 0, 16 }
80001904:	0c59                                    	s32i.n	a5, a12, 0
80001906:	ff19c6                                    	j	80001571 <_Putfld+0x531>

80001909 <_Putfld+0x8c9>:
80001909:	5c88                                    	l32i.n	a8, a12, 20
8000190b:	9001365598ce                           	{ addi	a9, a8, 1; movi	a7, 45 }
80001911:	b0a4447b9c8e                           	{ s32i	a9, a12, 20; add	a8, a8, a14 }
80001917:	004872                                    	s8i	a7, a8, 0
8000191a:	ff3406                                    	j	800015ee <_Putfld+0x5ae>

8000191d <_Putfld+0x8dd>:
8000191d:	23bb00                                    	sext	a11, a11, 7
80001920:	b250c76ebcce                           	{ s32i	a11, a12, 0; srai	a5, a11, 31 }
80001926:	1c59                                    	s32i.n	a5, a12, 4
80001928:	ff4506                                    	j	80001640 <_Putfld+0x600>

8000192b <_Putfld+0x8eb>:
8000192b:	0b0c                                    	movi.n	a11, 0
8000192d:	7800467abc8e                           	{ s32i	a11, a12, 4; l8ui	a10, a12, 0 }
80001933:	0ca9                                    	s32i.n	a10, a12, 0
80001935:	ff0e06                                    	j	80001571 <_Putfld+0x531>

80001938 <_Putfld+0x8f8>:
80001938:	5c48                                    	l32i.n	a4, a12, 20
8000193a:	9001b05054ce                           	{ addi	a5, a4, 1; movi	a3, 48 }
80001940:	b094427b5c8e                           	{ s32i	a5, a12, 20; add	a4, a4, a14 }
80001946:	004432                                    	s8i	a3, a4, 0
80001949:	5c08                                    	l32i.n	a0, a12, 20
8000194b:	201b                                    	addi.n	a2, a0, 1
8000194d:	b084407b2c8e                           	{ s32i	a2, a12, 20; add	a0, a0, a14 }
80001953:	0040d2                                    	s8i	a13, a0, 0
80001956:	ff10c6                                    	j	8000159d <_Putfld+0x55d>

80001959 <_Putfld+0x919>:
80001959:	e4f40e7c00008f                               	{ bbci.w15	a0, 0, 8000165b <_Putfld+0x61b>; nop }
80001960:	5c78                                    	l32i.n	a7, a12, 20
80001962:	90013051878e                           	{ addi	a8, a7, 1; movi	a6, 32 }
80001968:	b095c37f8c8e                           	{ s32i	a8, a12, 20; add	a7, a7, a14 }
8000196e:	004762                                    	s8i	a6, a7, 0
80001971:	ff3986                                    	j	8000165b <_Putfld+0x61b>

80001974 <_Putfld+0x934>:
80001974:	2d0296                                    	bltz	a2, 80001c48 <_Putfld+0xc08>

80001977 <_Putfld+0x937>:
80001977:	2358                                    	l32i.n	a5, a3, 8
80001979:	254b                                    	addi.n	a2, a5, 4
8000197b:	2329                                    	s32i.n	a2, a3, 8
8000197d:	052057                                    	blt	a0, a5, 80001986 <_Putfld+0x946>
80001980:	700091050f4e                           	{ j	80001993 <_Putfld+0x953>; l32i	a5, a3, 4 }

80001986 <_Putfld+0x946>:
80001986:	072457                                    	blt	a4, a5, 80001991 <_Putfld+0x951>
80001989:	492c                                    	movi.n	a9, 36
8000198b:	90034268938e                           	{ s32i	a9, a3, 8; movi	a2, 36 }

80001991 <_Putfld+0x951>:
80001991:	0358                                    	l32i.n	a5, a3, 0

80001993 <_Putfld+0x953>:
80001993:	bca8                                    	l32i.n	a10, a12, 44
80001995:	225a                                    	add.n	a2, a2, a5
80001997:	ffd222                                    	addmi	a2, a2, 0xffffff00
8000199a:	57ffc552229e                           	{ l32i	a2, a2, 252; addi	a10, a10, -1 }
800019a0:	bca9                                    	s32i.n	a10, a12, 44
800019a2:	fd1ad6                                    	bgez	a10, 80001977 <_Putfld+0x937>
800019a5:	29f216                                    	beqz	a2, 80001c48 <_Putfld+0xc08>
800019a8:	31d8                                    	l32i.n	a13, a1, 12
800019aa:	700cc0543c0e                           	{ l32i	a3, a12, 52; l32i	a0, a1, 4 }
800019b0:	70054047e10e                           	{ l32i	a14, a1, 16; l32i	a12, a1, 8 }
800019b6:	90004080328e                           	{ s8i	a3, a2, 0; movi	a2, 0 }
800019bc:	54427044505e                           	{ ret; addi	a1, a1, 32 }

800019c2 <_Putfld+0x982>:
800019c2:	2a6296                                    	bltz	a2, 80001c6c <_Putfld+0xc2c>

800019c5 <_Putfld+0x985>:
800019c5:	2358                                    	l32i.n	a5, a3, 8
800019c7:	254b                                    	addi.n	a2, a5, 4
800019c9:	2329                                    	s32i.n	a2, a3, 8
800019cb:	062057                                    	blt	a0, a5, 800019d5 <_Putfld+0x995>
800019ce:	70009105104e                           	{ j	800019e2 <_Putfld+0x9a2>; l32i	a5, a3, 4 }

800019d4 <_Putfld+0x994>:
	...

800019d5 <_Putfld+0x995>:
800019d5:	072457                                    	blt	a4, a5, 800019e0 <_Putfld+0x9a0>
800019d8:	452c                                    	movi.n	a5, 36
800019da:	90034268538e                           	{ s32i	a5, a3, 8; movi	a2, 36 }

800019e0 <_Putfld+0x9a0>:
800019e0:	0358                                    	l32i.n	a5, a3, 0

800019e2 <_Putfld+0x9a2>:
800019e2:	bc68                                    	l32i.n	a6, a12, 44
800019e4:	225a                                    	add.n	a2, a2, a5
800019e6:	ffd222                                    	addmi	a2, a2, 0xffffff00
800019e9:	57ffc351229e                           	{ l32i	a2, a2, 252; addi	a6, a6, -1 }
800019ef:	bc69                                    	s32i.n	a6, a12, 44
800019f1:	fd06d6                                    	bgez	a6, 800019c5 <_Putfld+0x985>
800019f4:	274216                                    	beqz	a2, 80001c6c <_Putfld+0xc2c>
800019f7:	dc38                                    	l32i.n	a3, a12, 52
800019f9:	7001c057014e                           	{ l32i	a0, a1, 4; l32i	a13, a1, 12 }
800019ff:	70054047e10e                           	{ l32i	a14, a1, 16; l32i	a12, a1, 8 }
80001a05:	b241c76c32ce                           	{ s32i	a3, a2, 0; srai	a3, a3, 31 }
80001a0b:	5040407c324e                           	{ s32i	a3, a2, 4; addi	a1, a1, 32 }
80001a11:	94027040509e                           	{ ret; movi	a2, 0 }

80001a17 <_Putfld+0x9d7>:
80001a17:	940e10d0699e                           	{ j	80001684 <_Putfld+0x644>; movi	a2, 0 }

80001a1d <_Putfld+0x9dd>:
80001a1d:	273296                                    	bltz	a2, 80001c94 <_Putfld+0xc54>

80001a20 <_Putfld+0x9e0>:
80001a20:	2358                                    	l32i.n	a5, a3, 8
80001a22:	254b                                    	addi.n	a2, a5, 4
80001a24:	2329                                    	s32i.n	a2, a3, 8
80001a26:	062057                                    	blt	a0, a5, 80001a30 <_Putfld+0x9f0>
80001a29:	70009105104e                           	{ j	80001a3d <_Putfld+0x9fd>; l32i	a5, a3, 4 }

80001a2f <_Putfld+0x9ef>:
	...

80001a30 <_Putfld+0x9f0>:
80001a30:	072457                                    	blt	a4, a5, 80001a3b <_Putfld+0x9fb>
80001a33:	452c                                    	movi.n	a5, 36
80001a35:	90034268538e                           	{ s32i	a5, a3, 8; movi	a2, 36 }

80001a3b <_Putfld+0x9fb>:
80001a3b:	0358                                    	l32i.n	a5, a3, 0

80001a3d <_Putfld+0x9fd>:
80001a3d:	bc68                                    	l32i.n	a6, a12, 44
80001a3f:	225a                                    	add.n	a2, a2, a5
80001a41:	ffd222                                    	addmi	a2, a2, 0xffffff00
80001a44:	57ffc351229e                           	{ l32i	a2, a2, 252; addi	a6, a6, -1 }
80001a4a:	bc69                                    	s32i.n	a6, a12, 44
80001a4c:	fd06d6                                    	bgez	a6, 80001a20 <_Putfld+0x9e0>
80001a4f:	241216                                    	beqz	a2, 80001c94 <_Putfld+0xc54>
80001a52:	dc38                                    	l32i.n	a3, a12, 52
80001a54:	7001c057014e                           	{ l32i	a0, a1, 4; l32i	a13, a1, 12 }
80001a5a:	70054047e10e                           	{ l32i	a14, a1, 16; l32i	a12, a1, 8 }
80001a60:	b241c76c32ce                           	{ s32i	a3, a2, 0; srai	a3, a3, 31 }
80001a66:	5040407c324e                           	{ s32i	a3, a2, 4; addi	a1, a1, 32 }
80001a6c:	94027040509e                           	{ ret; movi	a2, 0 }

80001a72 <_Putfld+0xa32>:
80001a72:	5c48                                    	l32i.n	a4, a12, 20
80001a74:	7001c057014e                           	{ l32i	a0, a1, 4; l32i	a13, a1, 12 }
80001a7a:	90003050548e                           	{ addi	a5, a4, 1; movi	a2, 0 }
80001a80:	b0944243e18e                           	{ l32i	a14, a1, 16; add	a4, a4, a14 }
80001a86:	7005407f5c0e                           	{ s32i	a5, a12, 20; l32i	a12, a1, 8 }
80001a8c:	90004080248e                           	{ s8i	a2, a4, 0; movi	a2, 0 }
80001a92:	54427044505e                           	{ ret; addi	a1, a1, 32 }

80001a98 <_Putfld+0xa58>:
80001a98:	21c296                                    	bltz	a2, 80001cb8 <_Putfld+0xc78>

80001a9b <_Putfld+0xa5b>:
80001a9b:	2358                                    	l32i.n	a5, a3, 8
80001a9d:	254b                                    	addi.n	a2, a5, 4
80001a9f:	2329                                    	s32i.n	a2, a3, 8
80001aa1:	052057                                    	blt	a0, a5, 80001aaa <_Putfld+0xa6a>
80001aa4:	700091050f4e                           	{ j	80001ab7 <_Putfld+0xa77>; l32i	a5, a3, 4 }

80001aaa <_Putfld+0xa6a>:
80001aaa:	072457                                    	blt	a4, a5, 80001ab5 <_Putfld+0xa75>
80001aad:	452c                                    	movi.n	a5, 36
80001aaf:	90034268538e                           	{ s32i	a5, a3, 8; movi	a2, 36 }

80001ab5 <_Putfld+0xa75>:
80001ab5:	0358                                    	l32i.n	a5, a3, 0

80001ab7 <_Putfld+0xa77>:
80001ab7:	bc68                                    	l32i.n	a6, a12, 44
80001ab9:	225a                                    	add.n	a2, a2, a5
80001abb:	ffd222                                    	addmi	a2, a2, 0xffffff00
80001abe:	57ffc351229e                           	{ l32i	a2, a2, 252; addi	a6, a6, -1 }
80001ac4:	bc69                                    	s32i.n	a6, a12, 44
80001ac6:	fd16d6                                    	bgez	a6, 80001a9b <_Putfld+0xa5b>
80001ac9:	1eb216                                    	beqz	a2, 80001cb8 <_Putfld+0xc78>
80001acc:	000306                                    	j	80001adc <_Putfld+0xa9c>

80001acf <_Putfld+0xa8f>:
	...

80001ad0 <_Putfld+0xa90>:
80001ad0:	901144505c0e                           	{ l32i	a5, a12, 4; movi	a0, 104 }
80001ad6:	740e16ba3ede                           	{ j	80001618 <_Putfld+0x5d8>; l32i	a11, a12, 0 }

80001adc <_Putfld+0xa9c>:
80001adc:	31d8                                    	l32i.n	a13, a1, 12
80001ade:	700cc0543c0e                           	{ l32i	a3, a12, 52; l32i	a0, a1, 4 }
80001ae4:	70054047e10e                           	{ l32i	a14, a1, 16; l32i	a12, a1, 8 }
80001aea:	90004068328e                           	{ s32i	a3, a2, 0; movi	a2, 0 }
80001af0:	54427044505e                           	{ ret; addi	a1, a1, 32 }

80001af6 <_Putfld+0xab6>:
80001af6:	1e2296                                    	bltz	a2, 80001cdc <_Putfld+0xc9c>

80001af9 <_Putfld+0xab9>:
80001af9:	2358                                    	l32i.n	a5, a3, 8
80001afb:	254b                                    	addi.n	a2, a5, 4
80001afd:	2329                                    	s32i.n	a2, a3, 8
80001aff:	052057                                    	blt	a0, a5, 80001b08 <_Putfld+0xac8>
80001b02:	700091050f4e                           	{ j	80001b15 <_Putfld+0xad5>; l32i	a5, a3, 4 }

80001b08 <_Putfld+0xac8>:
80001b08:	072457                                    	blt	a4, a5, 80001b13 <_Putfld+0xad3>
80001b0b:	452c                                    	movi.n	a5, 36
80001b0d:	90034268538e                           	{ s32i	a5, a3, 8; movi	a2, 36 }

80001b13 <_Putfld+0xad3>:
80001b13:	0358                                    	l32i.n	a5, a3, 0

80001b15 <_Putfld+0xad5>:
80001b15:	bc68                                    	l32i.n	a6, a12, 44
80001b17:	225a                                    	add.n	a2, a2, a5
80001b19:	ffd222                                    	addmi	a2, a2, 0xffffff00
80001b1c:	57ffc351229e                           	{ l32i	a2, a2, 252; addi	a6, a6, -1 }
80001b22:	bc69                                    	s32i.n	a6, a12, 44
80001b24:	fd16d6                                    	bgez	a6, 80001af9 <_Putfld+0xab9>
80001b27:	1b1216                                    	beqz	a2, 80001cdc <_Putfld+0xc9c>
80001b2a:	31d8                                    	l32i.n	a13, a1, 12
80001b2c:	700cc0543c0e                           	{ l32i	a3, a12, 52; l32i	a0, a1, 4 }
80001b32:	70054047e10e                           	{ l32i	a14, a1, 16; l32i	a12, a1, 8 }
80001b38:	90004068328e                           	{ s32i	a3, a2, 0; movi	a2, 0 }
80001b3e:	54427044505e                           	{ ret; addi	a1, a1, 32 }

80001b44 <_Putfld+0xb04>:
80001b44:	1bc296                                    	bltz	a2, 80001d04 <_Putfld+0xcc4>

80001b47 <_Putfld+0xb07>:
80001b47:	2358                                    	l32i.n	a5, a3, 8
80001b49:	254b                                    	addi.n	a2, a5, 4
80001b4b:	2329                                    	s32i.n	a2, a3, 8
80001b4d:	052057                                    	blt	a0, a5, 80001b56 <_Putfld+0xb16>
80001b50:	700091050f4e                           	{ j	80001b63 <_Putfld+0xb23>; l32i	a5, a3, 4 }

80001b56 <_Putfld+0xb16>:
80001b56:	072457                                    	blt	a4, a5, 80001b61 <_Putfld+0xb21>
80001b59:	452c                                    	movi.n	a5, 36
80001b5b:	90034268538e                           	{ s32i	a5, a3, 8; movi	a2, 36 }

80001b61 <_Putfld+0xb21>:
80001b61:	0358                                    	l32i.n	a5, a3, 0

80001b63 <_Putfld+0xb23>:
80001b63:	bc68                                    	l32i.n	a6, a12, 44
80001b65:	225a                                    	add.n	a2, a2, a5
80001b67:	ffd222                                    	addmi	a2, a2, 0xffffff00
80001b6a:	57ffc351229e                           	{ l32i	a2, a2, 252; addi	a6, a6, -1 }
80001b70:	bc69                                    	s32i.n	a6, a12, 44
80001b72:	fd16d6                                    	bgez	a6, 80001b47 <_Putfld+0xb07>
80001b75:	18b216                                    	beqz	a2, 80001d04 <_Putfld+0xcc4>
80001b78:	31d8                                    	l32i.n	a13, a1, 12
80001b7a:	700cc0543c0e                           	{ l32i	a3, a12, 52; l32i	a0, a1, 4 }
80001b80:	70054047e10e                           	{ l32i	a14, a1, 16; l32i	a12, a1, 8 }
80001b86:	90004060328e                           	{ s16i	a3, a2, 0; movi	a2, 0 }
80001b8c:	54427044505e                           	{ ret; addi	a1, a1, 32 }

80001b92 <_Putfld+0xb52>:
80001b92:	faed21                                    	l32r	a2, 80000748 (8000067c <_Zero+0xcc>)
80001b95:	4c29                                    	s32i.n	a2, a12, 16
80001b97:	ff0ec6                                    	j	800017d6 <_Putfld+0x796>

80001b9a <_Putfld+0xb5a>:
80001b9a:	18a296                                    	bltz	a2, 80001d28 <_Putfld+0xce8>

80001b9d <_Putfld+0xb5d>:
80001b9d:	2358                                    	l32i.n	a5, a3, 8
80001b9f:	254b                                    	addi.n	a2, a5, 4
80001ba1:	2329                                    	s32i.n	a2, a3, 8
80001ba3:	052057                                    	blt	a0, a5, 80001bac <_Putfld+0xb6c>
80001ba6:	700091050f4e                           	{ j	80001bb9 <_Putfld+0xb79>; l32i	a5, a3, 4 }

80001bac <_Putfld+0xb6c>:
80001bac:	072457                                    	blt	a4, a5, 80001bb7 <_Putfld+0xb77>
80001baf:	452c                                    	movi.n	a5, 36
80001bb1:	90034268538e                           	{ s32i	a5, a3, 8; movi	a2, 36 }

80001bb7 <_Putfld+0xb77>:
80001bb7:	0358                                    	l32i.n	a5, a3, 0

80001bb9 <_Putfld+0xb79>:
80001bb9:	bc68                                    	l32i.n	a6, a12, 44
80001bbb:	225a                                    	add.n	a2, a2, a5
80001bbd:	ffd222                                    	addmi	a2, a2, 0xffffff00
80001bc0:	57ffc351229e                           	{ l32i	a2, a2, 252; addi	a6, a6, -1 }
80001bc6:	bc69                                    	s32i.n	a6, a12, 44
80001bc8:	fd16d6                                    	bgez	a6, 80001b9d <_Putfld+0xb5d>
80001bcb:	159216                                    	beqz	a2, 80001d28 <_Putfld+0xce8>
80001bce:	31d8                                    	l32i.n	a13, a1, 12
80001bd0:	700cc0543c0e                           	{ l32i	a3, a12, 52; l32i	a0, a1, 4 }
80001bd6:	70054047e10e                           	{ l32i	a14, a1, 16; l32i	a12, a1, 8 }
80001bdc:	90004068328e                           	{ s32i	a3, a2, 0; movi	a2, 0 }
80001be2:	54427044505e                           	{ ret; addi	a1, a1, 32 }

80001be8 <_Putfld+0xba8>:
80001be8:	e674086c983b8f                               	{ bgeu.w15	a11, a3, 80001647 <_Putfld+0x607>; nop }
80001bef:	ff3c86                                    	j	800018e5 <_Putfld+0x8a5>

80001bf2 <_Putfld+0xbb2>:
	...

80001bf4 <_Putfld+0xbb4>:
80001bf4:	fad621                                    	l32r	a2, 8000074c (8000060c <_Zero+0x5c>)
80001bf7:	9000952487ee                           	{ call0	80002614 <_Fail_s>; movi	a3, 27 }
80001bfd:	7002c044c10e                           	{ l32i	a12, a1, 8; l32i	a0, a1, 4 }
80001c03:	740fd0ff4f6e                           	{ movi	a4, -1; l32i	a13, a1, 12 }
80001c09:	741e583724be                           	{ sub	a2, a4, a2; l32i	a14, a1, 16 }
80001c0f:	54427044505e                           	{ ret; addi	a1, a1, 32 }

80001c15 <_Putfld+0xbd5>:
80001c15:	000000                                        ...

80001c18 <_Putfld+0xbd8>:
80001c18:	940e10d0979e                           	{ j	800018b3 <_Putfld+0x873>; movi	a2, 0 }

80001c1e <_Putfld+0xbde>:
80001c1e:	00000000 cb210000                                ......

80001c24 <_Putfld+0xbe4>:
80001c24:	facb21                                    	l32r	a2, 80000750 (800005d8 <_Zero+0x28>)
80001c27:	900094207bee                           	{ call0	80002614 <_Fail_s>; movi	a3, 24 }
80001c2d:	7002c044c10e                           	{ l32i	a12, a1, 8; l32i	a0, a1, 4 }
80001c33:	740fd0ff5f6e                           	{ movi	a5, -1; l32i	a13, a1, 12 }
80001c39:	741e583725be                           	{ sub	a2, a5, a2; l32i	a14, a1, 16 }
80001c3f:	54427044505e                           	{ ret; addi	a1, a1, 32 }

80001c45 <_Putfld+0xc05>:
80001c45:	000000                                        ...

80001c48 <_Putfld+0xc08>:
80001c48:	fac221                                    	l32r	a2, 80000750 (800005d8 <_Zero+0x28>)
80001c4b:	9000942072ee                           	{ call0	80002614 <_Fail_s>; movi	a3, 24 }
80001c51:	7002c044c10e                           	{ l32i	a12, a1, 8; l32i	a0, a1, 4 }
80001c57:	740fd0ff6f6e                           	{ movi	a6, -1; l32i	a13, a1, 12 }
80001c5d:	741e583726be                           	{ sub	a2, a6, a2; l32i	a14, a1, 16 }
80001c63:	54427044505e                           	{ ret; addi	a1, a1, 32 }

80001c69 <_Putfld+0xc29>:
80001c69:	000000                                        ...

80001c6c <_Putfld+0xc2c>:
80001c6c:	fab921                                    	l32r	a2, 80000750 (800005d8 <_Zero+0x28>)
80001c6f:	9000942069ee                           	{ call0	80002614 <_Fail_s>; movi	a3, 24 }
80001c75:	7002c044c10e                           	{ l32i	a12, a1, 8; l32i	a0, a1, 4 }
80001c7b:	740fd0ff7f6e                           	{ movi	a7, -1; l32i	a13, a1, 12 }
80001c81:	741e583727be                           	{ sub	a2, a7, a2; l32i	a14, a1, 16 }
80001c87:	54427044505e                           	{ ret; addi	a1, a1, 32 }

80001c8d <_Putfld+0xc4d>:
80001c8d:	000000                                        ...

80001c90 <_Putfld+0xc50>:
80001c90:	00000000                                ....

80001c94 <_Putfld+0xc54>:
80001c94:	faaf21                                    	l32r	a2, 80000750 (800005d8 <_Zero+0x28>)
80001c97:	900094205fee                           	{ call0	80002614 <_Fail_s>; movi	a3, 24 }
80001c9d:	7002c044c10e                           	{ l32i	a12, a1, 8; l32i	a0, a1, 4 }
80001ca3:	740fd0ff8f6e                           	{ movi	a8, -1; l32i	a13, a1, 12 }
80001ca9:	741e583728be                           	{ sub	a2, a8, a2; l32i	a14, a1, 16 }
80001caf:	54427044505e                           	{ ret; addi	a1, a1, 32 }

80001cb5 <_Putfld+0xc75>:
80001cb5:	000000                                        ...

80001cb8 <_Putfld+0xc78>:
80001cb8:	faa621                                    	l32r	a2, 80000750 (800005d8 <_Zero+0x28>)
80001cbb:	9000942056ee                           	{ call0	80002614 <_Fail_s>; movi	a3, 24 }
80001cc1:	7002c044c10e                           	{ l32i	a12, a1, 8; l32i	a0, a1, 4 }
80001cc7:	740fd0ff9f6e                           	{ movi	a9, -1; l32i	a13, a1, 12 }
80001ccd:	741e583729be                           	{ sub	a2, a9, a2; l32i	a14, a1, 16 }
80001cd3:	54427044505e                           	{ ret; addi	a1, a1, 32 }

80001cd9 <_Putfld+0xc99>:
80001cd9:	000000                                        ...

80001cdc <_Putfld+0xc9c>:
80001cdc:	fa9d21                                    	l32r	a2, 80000750 (800005d8 <_Zero+0x28>)
80001cdf:	900094204dee                           	{ call0	80002614 <_Fail_s>; movi	a3, 24 }
80001ce5:	7002c044c10e                           	{ l32i	a12, a1, 8; l32i	a0, a1, 4 }
80001ceb:	740fd0ffaf6e                           	{ movi	a10, -1; l32i	a13, a1, 12 }
80001cf1:	741e58372abe                           	{ sub	a2, a10, a2; l32i	a14, a1, 16 }
80001cf7:	54427044505e                           	{ ret; addi	a1, a1, 32 }

80001cfd <_Putfld+0xcbd>:
80001cfd:	000000                                        ...

80001d00 <_Putfld+0xcc0>:
80001d00:	00000000                                ....

80001d04 <_Putfld+0xcc4>:
80001d04:	fa9321                                    	l32r	a2, 80000750 (800005d8 <_Zero+0x28>)
80001d07:	9000942043ee                           	{ call0	80002614 <_Fail_s>; movi	a3, 24 }
80001d0d:	7002c044c10e                           	{ l32i	a12, a1, 8; l32i	a0, a1, 4 }
80001d13:	740fd0ffbf6e                           	{ movi	a11, -1; l32i	a13, a1, 12 }
80001d19:	741e58372bbe                           	{ sub	a2, a11, a2; l32i	a14, a1, 16 }
80001d1f:	54427044505e                           	{ ret; addi	a1, a1, 32 }

80001d25 <_Putfld+0xce5>:
80001d25:	000000                                        ...

80001d28 <_Putfld+0xce8>:
80001d28:	fa8a21                                    	l32r	a2, 80000750 (800005d8 <_Zero+0x28>)
80001d2b:	0020f0                                    	nop
80001d2e:	9000942039ee                           	{ call0	80002614 <_Fail_s>; movi	a3, 24 }
80001d34:	7002c054d10e                           	{ l32i	a13, a1, 12; l32i	a0, a1, 4 }
80001d3a:	741e50ffcfae                           	{ movi	a12, -1; l32i	a14, a1, 16 }
80001d40:	ba834640c18e                           	{ l32i	a12, a1, 8; sub	a2, a12, a2 }
80001d46:	54427044505e                           	{ ret; addi	a1, a1, 32 }

80001d4c <_Putfld+0xd0c>:
80001d4c:	00000000                                ....

80001d50 <_Putstr>:
80001d50:	80c112                                    	addi	a1, a1, -128
80001d53:	1861c2                                    	s32i	a12, a1, 96
80001d56:	1a61e2                                    	s32i	a14, a1, 104
80001d59:	1b61f2                                    	s32i	a15, a1, 108
80001d5c:	7436417b01ce                           	{ s32i	a0, a1, 92; l32i	a15, a2, 48 }
80001d62:	fa7201                                    	l32r	a0, 8000072c (7fffffff <_memmap_cacheattr_bp_allvalid+0x3bbbbbbb>)
80001d65:	1961d2                                    	s32i	a13, a1, 100
80001d68:	be3b59c833be                           	{ or	a13, a3, a3; or	a14, a2, a2 }
80001d6e:	b7f5c09b30ce                           	{ nop; movltz	a15, a0, a15 }
80001d74:	0020f0                                    	nop
80001d77:	003485                                    	call0	800020c0 <_Getmbcurmax>
80001d7a:	fa7651                                    	l32r	a5, 80000754 (800001a4 <vpsize$34934_13_91+0x4>)
80001d7d:	74315701602e                           	{ movi	a6, 0; l32i	a4, a14, 56 }
80001d83:	0169                                    	s32i.n	a6, a1, 0
80001d85:	6803c22d654e                           	{ l16ui	a6, a5, 4; l16ui	a5, a5, 6 }
80001d8b:	035152                                    	s16i	a5, a1, 6
80001d8e:	025162                                    	s16i	a6, a1, 4
80001d91:	1e1e32                                    	l16ui	a3, a14, 60
80001d94:	5208584624be                           	{ add	a4, a4, a2; addi	a10, a1, 16 }
80001d9a:	941c406a414e                           	{ s32i	a4, a1, 112; movi	a9, 64 }
80001da0:	9018303123ce                           	{ bbsi	a3, 2, 80001dad <_Putstr+0x5d>; movi	a7, 64 }
80001da6:	e0c4005ca8478f                               	{ bltu.w15	a7, a4, 80001e80 <_Putstr+0x130>; nop }

80001dad <_Putstr+0x5d>:
80001dad:	1d61a2                                    	s32i	a10, a1, 116
80001db0:	1c6192                                    	s32i	a9, a1, 112

80001db3 <_Putstr+0x63>:
80001db3:	a8c002480a3fcf                               	{ blti.w15	a15, 1, 80001ea9 <_Putstr+0x159>; movi	a11, 0 }
80001dba:	1661b2                                    	s32i	a11, a1, 88

80001dbd <_Putstr+0x6d>:
80001dbd:	5280402c3d8e                           	{ l16ui	a3, a13, 0; addi	a2, a1, 80 }
80001dc3:	ba10100cd26e                           	{ call0	8000250c <_Wctomb>; or	a4, a1, a1 }
80001dc9:	be3051a0829e                           	{ bltz	a2, 80001e75 <_Putstr+0x125>; or	a12, a2, a2 }
80001dcf:	001d02                                    	l16ui	a0, a13, 0
80001dd2:	05b016                                    	beqz	a0, 80001e31 <_Putstr+0xe1>

80001dd5 <_Putstr+0x85>:
80001dd5:	723230dccfbe                           	{ blt	a15, a12, 80001e3c <_Putstr+0xec>; l32i	a2, a1, 112 }
80001ddb:	052e02                                    	l32i	a0, a14, 20
80001dde:	8030c0                                    	add	a3, a0, a12
80001de1:	1fb237                                    	bgeu	a2, a3, 80001e04 <_Putstr+0xb4>
80001de4:	00a042                                    	movi	a4, 0
80001de7:	ba0f476b4e8e                           	{ s32i	a4, a14, 56; or	a2, a14, a14 }
80001ded:	0020f0                                    	nop
80001df0:	7230900437ee                           	{ call0	80001ed0 <_Puttxt>; l32i	a3, a1, 116 }
80001df6:	94064069214e                           	{ s32i	a2, a1, 88; movi	a5, 0 }
80001dfc:	94005028c21e                           	{ bltz	a2, 80001e3c <_Putstr+0xec>; movi	a0, 0 }
80001e02:	5e59                                    	s32i.n	a5, a14, 20

80001e04 <_Putstr+0xb4>:
80001e04:	1d2122                                    	l32i	a2, a1, 116
80001e07:	568a5844ccfe                           	{ or	a4, a12, a12; addi	a3, a1, 80 }
80001e0d:	b4854098308e                           	{ nop; add	a2, a0, a2 }
80001e13:	0020f0                                    	nop
80001e16:	04ca85                                    	call0	80006ac0 <memcpy>
80001e19:	5e48                                    	l32i.n	a4, a14, 20
80001e1b:	44ca                                    	add.n	a4, a4, a12
80001e1d:	5e49                                    	s32i.n	a4, a14, 20
80001e1f:	001d32                                    	l16ui	a3, a13, 0
80001e22:	c0ffc0                                    	sub	a15, a15, a12
80001e25:	5401560f334e                           	{ beqz	a3, 80001e3c <_Putstr+0xec>; addi	a13, a13, 2 }
80001e2b:	8e1fe6                                    	bgei	a15, 1, 80001dbd <_Putstr+0x6d>
80001e2e:	000286                                    	j	80001e3c <_Putstr+0xec>

80001e31 <_Putstr+0xe1>:
80001e31:	c20b                                    	addi.n	a12, a2, -1
80001e33:	f9ecd6                                    	bgez	a12, 80001dd5 <_Putstr+0x85>
80001e36:	000ec6                                    	j	80001e75 <_Putstr+0x125>

80001e39 <_Putstr+0xe9>:
80001e39:	000000                                        ...

80001e3c <_Putstr+0xec>:
80001e3c:	162152                                    	l32i	a5, a1, 88
80001e3f:	066516                                    	beqz	a5, 80001ea9 <_Putstr+0x159>

80001e42 <_Putstr+0xf2>:
80001e42:	1d2162                                    	l32i	a6, a1, 116
80001e45:	7628c047c14e                           	{ l32i	a12, a1, 96; l32i	a13, a1, 100 }
80001e4b:	76213047718e                           	{ addi	a7, a1, 16; l32i	a14, a1, 104 }
80001e51:	722bb0b776ce                           	{ beq	a6, a7, 80001e60 <_Putstr+0x110>; l32i	a15, a1, 108 }
80001e57:	0020f0                                    	nop
80001e5a:	ba011321a5ae                           	{ call0	800028f0 <free>; or	a2, a6, a6 }

80001e60 <_Putstr+0x110>:
80001e60:	76174054810e                           	{ l32i	a8, a1, 92; l32i	a0, a1, 88 }
80001e66:	80a032                                    	movi	a3, 128
80001e69:	be0a5c22003e                           	{ or	a2, a0, a0; or	a0, a8, a8 }
80001e6f:	b482f04450de                           	{ ret; add	a1, a1, a3 }

80001e75 <_Putstr+0x125>:
80001e75:	f97c                                    	movi.n	a9, -1
80001e77:	166192                                    	s32i	a9, a1, 88
80001e7a:	fff106                                    	j	80001e42 <_Putstr+0xf2>

80001e7d <_Putstr+0x12d>:
80001e7d:	000000                                        ...

80001e80 <_Putstr+0x130>:
80001e80:	ba011229332e                           	{ call0	80002b50 <malloc>; or	a2, a4, a4 }
80001e86:	1d6122                                    	s32i	a2, a1, 116
80001e89:	f26256                                    	bnez	a2, 80001db3 <_Putstr+0x63>
80001e8c:	f27c                                    	movi.n	a2, -1
80001e8e:	7619c044c10e                           	{ l32i	a12, a1, 96; l32i	a0, a1, 92 }
80001e94:	76294057d18e                           	{ l32i	a13, a1, 100; l32i	a14, a1, 104 }
80001e9a:	7621d08730ee                           	{ movi	a3, 128; l32i	a15, a1, 108 }
80001ea0:	b482f04450de                           	{ ret; add	a1, a1, a3 }

80001ea6 <_Putstr+0x156>:
80001ea6:	000000                                        ...

80001ea9 <_Putstr+0x159>:
80001ea9:	202ee0                                    	or	a2, a14, a14
80001eac:	7230900408ee                           	{ call0	80001ed0 <_Puttxt>; l32i	a3, a1, 116 }
80001eb2:	166122                                    	s32i	a2, a1, 88
80001eb5:	f89256                                    	bnez	a2, 80001e42 <_Putstr+0xf2>
80001eb8:	00a0a2                                    	movi	a10, 0
80001ebb:	0e6ea2                                    	s32i	a10, a14, 56
80001ebe:	5ea9                                    	s32i.n	a10, a14, 20
80001ec0:	ffdf86                                    	j	80001e42 <_Putstr+0xf2>

80001ec3 <_Putstr+0x173>:
	...

80001ed0 <_Puttxt>:
80001ed0:	e0c112                                    	addi	a1, a1, -32
80001ed3:	31d9                                    	s32i.n	a13, a1, 12
80001ed5:	21c9                                    	s32i.n	a12, a1, 8
80001ed7:	be0b59c422fe                           	{ or	a12, a2, a2; or	a2, a3, a3 }
80001edd:	703546504cce                           	{ l32i	a4, a12, 20; l32i	a3, a12, 56 }
80001ee3:	70154679f14e                           	{ s32i	a15, a1, 20; l32i	a5, a12, 24 }
80001ee9:	7015c66ae10e                           	{ s32i	a14, a1, 16; l32i	a8, a12, 28 }
80001eef:	742e5e3943fe                           	{ sub	a3, a3, a4; l32i	a7, a12, 32 }
80001ef5:	742ede3953be                           	{ sub	a3, a3, a5; l32i	a6, a12, 36 }
80001efb:	742f5e39837e                           	{ sub	a3, a3, a8; l32i	a5, a12, 40 }
80001f01:	ba81c17d01ce                           	{ s32i	a0, a1, 4; sub	a3, a3, a7 }
80001f07:	6e3f5e38633e                           	{ sub	a3, a3, a6; l16ui	a0, a12, 60 }
80001f0d:	ba81c16d214e                           	{ s32i	a2, a1, 0; sub	a3, a3, a5 }
80001f13:	6139                                    	s32i.n	a3, a1, 24
80001f15:	900d3033208e                           	{ bbsi	a0, 2, 80001f26 <_Puttxt+0x56>; movi	a14, 32 }
80001f1b:	ba36e11c33ce                           	{ blti	a3, 1, 80001f26 <_Puttxt+0x56>; or	a13, a3, a3 }
80001f21:	0025c6                                    	j	80001fbc <_Puttxt+0xec>

80001f24 <_Puttxt+0x54>:
80001f24:	5c48                                    	l32i.n	a4, a12, 20
80001f26:	1814a6                                    	blti	a4, 1, 80001f42 <_Puttxt+0x72>
80001f29:	2c08                                    	l32i.n	a0, a12, 8
80001f2b:	0138                                    	l32i.n	a3, a1, 0
80001f2d:	7403f640209e                           	{ callx0	a0; l32i	a2, a12, 12 }
80001f33:	3c29                                    	s32i.n	a2, a12, 12
80001f35:	097216                                    	beqz	a2, 80001fd0 <_Puttxt+0x100>
80001f38:	701cc6503c8e                           	{ l32i	a3, a12, 52; l32i	a2, a12, 20 }
80001f3e:	223a                                    	add.n	a2, a2, a3
80001f40:	dc29                                    	s32i.n	a2, a12, 52

80001f42 <_Puttxt+0x72>:
80001f42:	6cd8                                    	l32i.n	a13, a12, 24
80001f44:	201de6                                    	bgei	a13, 1, 80001f68 <_Puttxt+0x98>
80001f47:	000a46                                    	j	80001f74 <_Puttxt+0xa4>

80001f4a <_Puttxt+0x7a>:
80001f4a:	2c08                                    	l32i.n	a0, a12, 8
80001f4c:	3c28                                    	l32i.n	a2, a12, 12
80001f4e:	fa0231                                    	l32r	a3, 80000758 (800001e0 <zeroes_144>)
80001f51:	be12774720de                           	{ callx0	a0; or	a4, a15, a15 }
80001f57:	3c29                                    	s32i.n	a2, a12, 12
80001f59:	beb0d66f32ce                           	{ beqz	a2, 80001fd0 <_Puttxt+0x100>; sub	a13, a13, a15 }
80001f5f:	dc28                                    	l32i.n	a2, a12, 52
80001f61:	22fa                                    	add.n	a2, a2, a15
80001f63:	dc29                                    	s32i.n	a2, a12, 52
80001f65:	0b1da6                                    	blti	a13, 1, 80001f74 <_Puttxt+0xa4>

80001f68 <_Puttxt+0x98>:
80001f68:	63fde0                                    	minu	a15, a13, a14
80001f6b:	db1fe6                                    	bgei	a15, 1, 80001f4a <_Puttxt+0x7a>
80001f6e:	c0ddf0                                    	sub	a13, a13, a15
80001f71:	f31de6                                    	bgei	a13, 1, 80001f68 <_Puttxt+0x98>
80001f74:	7c48                                    	l32i.n	a4, a12, 28
80001f76:	1814a6                                    	blti	a4, 1, 80001f92 <_Puttxt+0xc2>
80001f79:	2c08                                    	l32i.n	a0, a12, 8
80001f7b:	3c28                                    	l32i.n	a2, a12, 12
80001f7d:	7412764020de                           	{ callx0	a0; l32i	a3, a12, 16 }
80001f83:	3c29                                    	s32i.n	a2, a12, 12
80001f85:	047216                                    	beqz	a2, 80001fd0 <_Puttxt+0x100>
80001f88:	7036c6503c8e                           	{ l32i	a3, a12, 28; l32i	a2, a12, 52 }
80001f8e:	223a                                    	add.n	a2, a2, a3
80001f90:	dc29                                    	s32i.n	a2, a12, 52

80001f92 <_Puttxt+0xc2>:
80001f92:	8cd8                                    	l32i.n	a13, a12, 32
80001f94:	6e1de6                                    	bgei	a13, 1, 80002006 <_Puttxt+0x136>
80001f97:	001dc6                                    	j	80002012 <_Puttxt+0x142>

80001f9a <_Puttxt+0xca>:
80001f9a:	2c08                                    	l32i.n	a0, a12, 8
80001f9c:	3c28                                    	l32i.n	a2, a12, 12
80001f9e:	f9ef31                                    	l32r	a3, 8000075c (800001b0 <spaces_143>)
80001fa1:	be12774720de                           	{ callx0	a0; or	a4, a15, a15 }
80001fa7:	3c29                                    	s32i.n	a2, a12, 12
80001fa9:	beb0d62732ce                           	{ beqz	a2, 80001fd0 <_Puttxt+0x100>; sub	a13, a13, a15 }
80001faf:	dc28                                    	l32i.n	a2, a12, 52
80001fb1:	22fa                                    	add.n	a2, a2, a15
80001fb3:	dc29                                    	s32i.n	a2, a12, 52
80001fb5:	ef740e2c183d8f                               	{ blti.w15	a13, 1, 80001f24 <_Puttxt+0x54>; nop }

80001fbc <_Puttxt+0xec>:
80001fbc:	63fde0                                    	minu	a15, a13, a14
80001fbf:	d71fe6                                    	bgei	a15, 1, 80001f9a <_Puttxt+0xca>
80001fc2:	c0ddf0                                    	sub	a13, a13, a15
80001fc5:	f31de6                                    	bgei	a13, 1, 80001fbc <_Puttxt+0xec>
80001fc8:	ffd606                                    	j	80001f24 <_Puttxt+0x54>

80001fcb <_Puttxt+0xfb>:
80001fcb:	00000000 54018e00                                .....

80001fd0 <_Puttxt+0x100>:
80001fd0:	93f1c754018e                           	{ l32i	a0, a1, 4; movi	a2, -1 }
80001fd6:	7003c047c14e                           	{ l32i	a12, a1, 8; l32i	a13, a1, 12 }
80001fdc:	7014c047e1ce                           	{ l32i	a14, a1, 16; l32i	a15, a1, 20 }
80001fe2:	54427044505e                           	{ ret; addi	a1, a1, 32 }

80001fe8 <_Puttxt+0x118>:
80001fe8:	2c08                                    	l32i.n	a0, a12, 8
80001fea:	3c28                                    	l32i.n	a2, a12, 12
80001fec:	f9db31                                    	l32r	a3, 80000758 (800001e0 <zeroes_144>)
80001fef:	be12774720de                           	{ callx0	a0; or	a4, a15, a15 }
80001ff5:	3c29                                    	s32i.n	a2, a12, 12
80001ff7:	bebed6df52ce                           	{ beqz	a2, 80001fd0 <_Puttxt+0x100>; sub	a13, a13, a15 }
80001ffd:	dc28                                    	l32i.n	a2, a12, 52
80001fff:	22fa                                    	add.n	a2, a2, a15
80002001:	dc29                                    	s32i.n	a2, a12, 52
80002003:	0b1da6                                    	blti	a13, 1, 80002012 <_Puttxt+0x142>

80002006 <_Puttxt+0x136>:
80002006:	63fde0                                    	minu	a15, a13, a14
80002009:	db1fe6                                    	bgei	a15, 1, 80001fe8 <_Puttxt+0x118>
8000200c:	c0ddf0                                    	sub	a13, a13, a15
8000200f:	f31de6                                    	bgei	a13, 1, 80002006 <_Puttxt+0x136>
80002012:	9c48                                    	l32i.n	a4, a12, 36
80002014:	1e14a6                                    	blti	a4, 1, 80002036 <_Puttxt+0x166>
80002017:	2c08                                    	l32i.n	a0, a12, 8
80002019:	701646505cce                           	{ l32i	a5, a12, 28; l32i	a3, a12, 16 }
8000201f:	3c28                                    	l32i.n	a2, a12, 12
80002021:	b483f145205e                           	{ callx0	a0; add	a3, a3, a5 }
80002027:	3c29                                    	s32i.n	a2, a12, 12
80002029:	fa3216                                    	beqz	a2, 80001fd0 <_Puttxt+0x100>
8000202c:	702cc6517c8e                           	{ l32i	a7, a12, 52; l32i	a6, a12, 36 }
80002032:	667a                                    	add.n	a6, a6, a7
80002034:	dc69                                    	s32i.n	a6, a12, 52

80002036 <_Puttxt+0x166>:
80002036:	acd8                                    	l32i.n	a13, a12, 40
80002038:	201de6                                    	bgei	a13, 1, 8000205c <_Puttxt+0x18c>
8000203b:	000a46                                    	j	80002068 <_Puttxt+0x198>

8000203e <_Puttxt+0x16e>:
8000203e:	2c08                                    	l32i.n	a0, a12, 8
80002040:	3c28                                    	l32i.n	a2, a12, 12
80002042:	f9c531                                    	l32r	a3, 80000758 (800001e0 <zeroes_144>)
80002045:	be12774720de                           	{ callx0	a0; or	a4, a15, a15 }
8000204b:	3c29                                    	s32i.n	a2, a12, 12
8000204d:	bebed67ff2ce                           	{ beqz	a2, 80001fd0 <_Puttxt+0x100>; sub	a13, a13, a15 }
80002053:	dc28                                    	l32i.n	a2, a12, 52
80002055:	22fa                                    	add.n	a2, a2, a15
80002057:	dc29                                    	s32i.n	a2, a12, 52
80002059:	0b1da6                                    	blti	a13, 1, 80002068 <_Puttxt+0x198>

8000205c <_Puttxt+0x18c>:
8000205c:	63fde0                                    	minu	a15, a13, a14
8000205f:	db1fe6                                    	bgei	a15, 1, 8000203e <_Puttxt+0x16e>
80002062:	c0ddf0                                    	sub	a13, a13, a15
80002065:	f31de6                                    	bgei	a13, 1, 8000205c <_Puttxt+0x18c>
80002068:	1e1c32                                    	l16ui	a3, a12, 60
8000206b:	6148                                    	l32i.n	a4, a1, 24
8000206d:	326327                                    	bbci	a3, 2, 800020a3 <_Puttxt+0x1d3>
80002070:	2f14a6                                    	blti	a4, 1, 800020a3 <_Puttxt+0x1d3>
80002073:	ba309201200e                           	{ j	80002097 <_Puttxt+0x1c7>; or	a13, a4, a4 }

80002079 <_Puttxt+0x1a9>:
80002079:	2c08                                    	l32i.n	a0, a12, 8
8000207b:	3c28                                    	l32i.n	a2, a12, 12
8000207d:	f9b731                                    	l32r	a3, 8000075c (800001b0 <spaces_143>)
80002080:	be12774720de                           	{ callx0	a0; or	a4, a15, a15 }
80002086:	3c29                                    	s32i.n	a2, a12, 12
80002088:	bebed65742ce                           	{ beqz	a2, 80001fd0 <_Puttxt+0x100>; sub	a13, a13, a15 }
8000208e:	dc28                                    	l32i.n	a2, a12, 52
80002090:	22fa                                    	add.n	a2, a2, a15
80002092:	dc29                                    	s32i.n	a2, a12, 52
80002094:	0b1da6                                    	blti	a13, 1, 800020a3 <_Puttxt+0x1d3>

80002097 <_Puttxt+0x1c7>:
80002097:	63fde0                                    	minu	a15, a13, a14
8000209a:	db1fe6                                    	bgei	a15, 1, 80002079 <_Puttxt+0x1a9>
8000209d:	c0ddf0                                    	sub	a13, a13, a15
800020a0:	f31de6                                    	bgei	a13, 1, 80002097 <_Puttxt+0x1c7>
800020a3:	90004050018e                           	{ l32i	a0, a1, 4; movi	a2, 0 }
800020a9:	7003c047c14e                           	{ l32i	a12, a1, 8; l32i	a13, a1, 12 }
800020af:	7014c047e1ce                           	{ l32i	a14, a1, 16; l32i	a15, a1, 20 }
800020b5:	54427044505e                           	{ ret; addi	a1, a1, 32 }

800020bb <_Puttxt+0x1eb>:
800020bb:	00000000 f9a82100                                .....

800020c0 <_Getmbcurmax>:
800020c0:	f9a821                                    	l32r	a2, 80000760 (80007880 <_Tls_setup__Mbcurmax>)
800020c3:	0228                                    	l32i.n	a2, a2, 0
800020c5:	f0c112                                    	addi	a1, a1, -16
800020c8:	0109                                    	s32i.n	a0, a1, 0
800020ca:	002216                                    	beqz	a2, 800020d0 <_Getmbcurmax+0x10>
800020cd:	0002c0                                    	callx0	a2
800020d0:	f9a521                                    	l32r	a2, 80000764 (800074b0 <_Mbcurmax>)
800020d3:	0108                                    	l32i.n	a0, a1, 0
800020d5:	10c112                                    	addi	a1, a1, 16
800020d8:	7c027140509e                           	{ ret; l8ui	a2, a2, 0 }

800020de <_Getmbcurmax+0x1e>:
	...

800020e0 <_Getpmbstate>:
800020e0:	f9a021                                    	l32r	a2, 80000760 (80007880 <_Tls_setup__Mbcurmax>)
800020e3:	1228                                    	l32i.n	a2, a2, 4
800020e5:	f0c112                                    	addi	a1, a1, -16
800020e8:	0109                                    	s32i.n	a0, a1, 0
800020ea:	002216                                    	beqz	a2, 800020f0 <_Getpmbstate+0x10>
800020ed:	0002c0                                    	callx0	a2
800020f0:	0108                                    	l32i.n	a0, a1, 0
800020f2:	f99d21                                    	l32r	a2, 80000768 (80007888 <_Mbstate>)
800020f5:	56027044505e                           	{ ret; addi	a1, a1, 16 }

800020fb <_Getpmbstate+0x1b>:
800020fb:	00000000 f0c11200                                .....

80002100 <_Clearlocks>:
80002100:	f0c112                                    	addi	a1, a1, -16
80002103:	0109                                    	s32i.n	a0, a1, 0
80002105:	f99901                                    	l32r	a0, 8000076c (80007adc <_xclib_use_mt>)
80002108:	21d9                                    	s32i.n	a13, a1, 8
8000210a:	f999d1                                    	l32r	a13, 80000770 (80007930 <mtx_148>)
8000210d:	0008                                    	l32i.n	a0, a0, 0
8000210f:	020c                                    	movi.n	a2, 0
80002111:	5140467cc1ce                           	{ s32i	a12, a1, 4; addi	a3, a13, -96 }
80002117:	57405627900e                           	{ beqz	a0, 80002144 <_Clearlocks+0x44>; addi	a12, a13, -80 }
8000211d:	006322                                    	s32i	a2, a3, 0

80002120 <_Clearlocks+0x20>:
80002120:	0020f0                                    	nop
80002123:	ba011633ec2e                           	{ call0	80006cd4 <_Mtxdst>; or	a2, a12, a12 }
80002129:	cc4b                                    	addi.n	a12, a12, 4
8000212b:	f19cd7                                    	bne	a12, a13, 80002120 <_Clearlocks+0x20>
8000212e:	f99151                                    	l32r	a5, 80000774 (800078d0 <max_flock_144>)
80002131:	040c                                    	movi.n	a4, 0
80002133:	52c0427f450e                           	{ s32i	a4, a5, 4; addi	a12, a5, 112 }

80002139 <_Clearlocks+0x39>:
80002139:	ba011637e66e                           	{ call0	80006cd4 <_Mtxdst>; or	a2, a13, a13 }
8000213f:	dd4b                                    	addi.n	a13, a13, 4
80002141:	f49dc7                                    	bne	a13, a12, 80002139 <_Clearlocks+0x39>

80002144 <_Clearlocks+0x44>:
80002144:	0108                                    	l32i.n	a0, a1, 0
80002146:	70014057c14e                           	{ l32i	a12, a1, 4; l32i	a13, a1, 8 }
8000214c:	56027044505e                           	{ ret; addi	a1, a1, 16 }

80002152 <_Clearlocks+0x52>:
80002152:	000000                                        ...

80002155 <_Clearlocks+0x55>:
80002155:	000000                                        ...

80002158 <_Initlocks>:
80002158:	f0c112                                    	addi	a1, a1, -16
8000215b:	0109                                    	s32i.n	a0, a1, 0
8000215d:	f98301                                    	l32r	a0, 8000076c (80007adc <_xclib_use_mt>)
80002160:	21d9                                    	s32i.n	a13, a1, 8
80002162:	f983d1                                    	l32r	a13, 80000770 (80007930 <mtx_148>)
80002165:	0008                                    	l32i.n	a0, a0, 0
80002167:	0161c2                                    	s32i	a12, a1, 4
8000216a:	5740562f600e                           	{ beqz	a0, 800021a4 <_Initlocks+0x4c>; addi	a12, a13, -80 }

80002170 <_Initlocks+0x18>:
80002170:	0020f0                                    	nop
80002173:	ba011633d72e                           	{ call0	80006cd0 <_Mtxinit>; or	a2, a12, a12 }
80002179:	cc4b                                    	addi.n	a12, a12, 4
8000217b:	f19cd7                                    	bne	a12, a13, 80002170 <_Initlocks+0x18>
8000217e:	f97dc1                                    	l32r	a12, 80000774 (800078d0 <max_flock_144>)
80002181:	401c                                    	movi.n	a0, 20
80002183:	52c0466b0c0e                           	{ s32i	a0, a12, 0; addi	a12, a12, 112 }

80002189 <_Initlocks+0x31>:
80002189:	ba011637d16e                           	{ call0	80006cd0 <_Mtxinit>; or	a2, a13, a13 }
8000218f:	04cdd2                                    	addi	a13, a13, 4
80002192:	f39dc7                                    	bne	a13, a12, 80002189 <_Initlocks+0x31>
80002195:	f97731                                    	l32r	a3, 80000774 (800078d0 <max_flock_144>)
80002198:	04a022                                    	movi	a2, 4
8000219b:	016322                                    	s32i	a2, a3, 4
8000219e:	f97621                                    	l32r	a2, 80000778 (80002100 <_Clearlocks>)
800021a1:	003bc5                                    	call0	80002560 <_Atexit>

800021a4 <_Initlocks+0x4c>:
800021a4:	0108                                    	l32i.n	a0, a1, 0
800021a6:	70014057c14e                           	{ l32i	a12, a1, 4; l32i	a13, a1, 8 }
800021ac:	56027044505e                           	{ ret; addi	a1, a1, 16 }

800021b2 <_Initlocks+0x5a>:
800021b2:	000000                                        ...

800021b5 <_Initlocks+0x5d>:
800021b5:	000000                                        ...

800021b8 <_Lockfilelock>:
800021b8:	f0c112                                    	addi	a1, a1, -16
800021bb:	0109                                    	s32i.n	a0, a1, 0
800021bd:	f96d01                                    	l32r	a0, 80000774 (800078d0 <max_flock_144>)
800021c0:	080032                                    	l8ui	a3, a0, 8
800021c3:	93ac                                    	beqz.n	a3, 800021f0 <_Lockfilelock+0x38>

800021c5 <_Lockfilelock+0xd>:
800021c5:	74005001820e                           	{ beqz	a2, 800021d1 <_Lockfilelock+0x19>; l32i	a4, a0, 0 }
800021cb:	020202                                    	l8ui	a0, a2, 2
800021ce:	072047                                    	blt	a0, a4, 800021d9 <_Lockfilelock+0x21>
800021d1:	0108                                    	l32i.n	a0, a1, 0
800021d3:	56027044505e                           	{ ret; addi	a1, a1, 16 }

800021d9 <_Lockfilelock+0x21>:
800021d9:	f96821                                    	l32r	a2, 8000077c (800078e0 <file_mtx_146>)
800021dc:	b4c54098308e                           	{ nop; addx4	a2, a0, a2 }
800021e2:	0020f0                                    	nop
800021e5:	04af05                                    	call0	80006cd8 <_Mtxlock>
800021e8:	0108                                    	l32i.n	a0, a1, 0
800021ea:	56027044505e                           	{ ret; addi	a1, a1, 16 }

800021f0 <_Lockfilelock+0x38>:
800021f0:	1129                                    	s32i.n	a2, a1, 4
800021f2:	fff645                                    	call0	80002158 <_Initlocks>
800021f5:	f95f01                                    	l32r	a0, 80000774 (800078d0 <max_flock_144>)
800021f8:	230c                                    	movi.n	a3, 2
800021fa:	7008c084308e                           	{ s8i	a3, a0, 8; l32i	a2, a1, 4 }
80002200:	fff046                                    	j	800021c5 <_Lockfilelock+0xd>

80002203 <_Lockfilelock+0x4b>:
	...

80002204 <_Unlockfilelock>:
80002204:	57c8085c5c7e                           	{ l32r	a5, 80000774 (800078d0 <max_flock_144>); addi	a1, a1, -16 }
8000220a:	0109                                    	s32i.n	a0, a1, 0
8000220c:	728c                                    	beqz.n	a2, 80002217 <_Unlockfilelock+0x13>
8000220e:	7002424c02ce                           	{ l8ui	a0, a2, 2; l32i	a3, a5, 0 }
80002214:	092037                                    	blt	a0, a3, 80002221 <_Unlockfilelock+0x1d>
80002217:	0108                                    	l32i.n	a0, a1, 0
80002219:	56027044505e                           	{ ret; addi	a1, a1, 16 }

8000221f <_Unlockfilelock+0x1b>:
	...

80002221 <_Unlockfilelock+0x1d>:
80002221:	10c522                                    	addi	a2, a5, 16
80002224:	b4c54098308e                           	{ nop; addx4	a2, a0, a2 }
8000222a:	0020f0                                    	nop
8000222d:	04aac5                                    	call0	80006cdc <_Mtxunlock>
80002230:	0108                                    	l32i.n	a0, a1, 0
80002232:	56027044505e                           	{ ret; addi	a1, a1, 16 }

80002238 <_Locksyslock>:
80002238:	f0c112                                    	addi	a1, a1, -16
8000223b:	0109                                    	s32i.n	a0, a1, 0
8000223d:	f94d01                                    	l32r	a0, 80000774 (800078d0 <max_flock_144>)
80002240:	11c9                                    	s32i.n	a12, a1, 4
80002242:	ba384148208e                           	{ l8ui	a2, a0, 8; or	a12, a2, a2 }
80002248:	42ac                                    	beqz.n	a2, 80002270 <_Locksyslock+0x38>

8000224a <_Locksyslock+0x12>:
8000224a:	1038                                    	l32i.n	a3, a0, 4
8000224c:	700a30cc3c0e                           	{ blt	a12, a3, 8000225a <_Locksyslock+0x22>; l32i	a0, a1, 0 }
80002252:	11c8                                    	l32i.n	a12, a1, 4
80002254:	56027044505e                           	{ ret; addi	a1, a1, 16 }

8000225a <_Locksyslock+0x22>:
8000225a:	f94521                                    	l32r	a2, 80000770 (80007930 <mtx_148>)
8000225d:	b0c116309eae                           	{ call0	80006cd8 <_Mtxlock>; addx4	a2, a12, a2 }
80002263:	0108                                    	l32i.n	a0, a1, 0
80002265:	11c8                                    	l32i.n	a12, a1, 4
80002267:	56027044505e                           	{ ret; addi	a1, a1, 16 }

8000226d <_Locksyslock+0x35>:
8000226d:	000000                                        ...

80002270 <_Locksyslock+0x38>:
80002270:	ffee45                                    	call0	80002158 <_Initlocks>
80002273:	f94001                                    	l32r	a0, 80000774 (800078d0 <max_flock_144>)
80002276:	230c                                    	movi.n	a3, 2
80002278:	084032                                    	s8i	a3, a0, 8
8000227b:	fff2c6                                    	j	8000224a <_Locksyslock+0x12>

8000227e <_Locksyslock+0x46>:
	...

80002280 <_Unlocksyslock>:
80002280:	f0c112                                    	addi	a1, a1, -16
80002283:	0109                                    	s32i.n	a0, a1, 0
80002285:	f93b01                                    	l32r	a0, 80000774 (800078d0 <max_flock_144>)
80002288:	1038                                    	l32i.n	a3, a0, 4
8000228a:	072237                                    	blt	a2, a3, 80002295 <_Unlocksyslock+0x15>
8000228d:	0108                                    	l32i.n	a0, a1, 0
8000228f:	56027044505e                           	{ ret; addi	a1, a1, 16 }

80002295 <_Unlocksyslock+0x15>:
80002295:	60c042                                    	addi	a4, a0, 96
80002298:	b0c11131902e                           	{ call0	80006cdc <_Mtxunlock>; addx4	a2, a2, a4 }
8000229e:	0108                                    	l32i.n	a0, a1, 0
800022a0:	56027044505e                           	{ ret; addi	a1, a1, 16 }

800022a6 <_Unlocksyslock+0x26>:
	...

800022b0 <_Vacopy>:
800022b0:	e0c112                                    	addi	a1, a1, -32
800022b3:	7159                                    	s32i.n	a5, a1, 28
800022b5:	066142                                    	s32i	a4, a1, 24
800022b8:	90044679310e                           	{ s32i	a3, a1, 20; movi	a4, 12 }
800022be:	5210406c010e                           	{ s32i	a0, a1, 0; addi	a0, a1, 20 }
800022c4:	be05c098300e                           	{ nop; or	a3, a0, a0 }
800022ca:	0020f0                                    	nop
800022cd:	047f05                                    	call0	80006ac0 <memcpy>
800022d0:	0108                                    	l32i.n	a0, a1, 0
800022d2:	54427044505e                           	{ ret; addi	a1, a1, 32 }

800022d8 <_Vacopy+0x28>:
	...

800022e0 <_Wctombx>:
800022e0:	d0c112                                    	addi	a1, a1, -48
800022e3:	31c9                                    	s32i.n	a12, a1, 12
800022e5:	51e9                                    	s32i.n	a14, a1, 20
800022e7:	be38093436fe                           	{ l32r	a3, 80000780 (80007940 <initial$8860_1_6>); or	a12, a3, a3 }
800022ed:	7002426c010e                           	{ s32i	a0, a1, 8; l32i	a0, a5, 0 }
800022f3:	41d9                                    	s32i.n	a13, a1, 16
800022f5:	ba36c168f18e                           	{ s32i	a15, a1, 24; or	a13, a2, a2 }
800022fb:	ba31d3a910ae                           	{ bnez	a0, 800023b0 <_Wctombx+0xd0>; or	a15, a6, a6 }
80002301:	182216                                    	beqz	a2, 80002487 <_Wctombx+0x1a7>
80002304:	5400ae25c7ee                           	{ extui	a2, a12, 7, 9; addi	a7, a13, 1 }
8000230a:	4501d5bf420e                           	{ beqz	a2, 800024c2 <_Wctombx+0x1e2>; extui	a3, a12, 11, 5 }
80002310:	bd90569bc30e                           	{ beqz	a3, 800024b0 <_Wctombx+0x1d0>; srli	a4, a12, 12 }
80002316:	900041804d8e                           	{ s8i	a4, a13, 0; movi	a2, 2 }

8000231c <_Wctombx+0x3c>:
8000231c:	b4405180b0ae                           	{ movi	a11, 128; srai	a0, a2, 2 }
80002322:	b292a96020ae                           	{ extui	a6, a2, 0, 2; addx2	a5, a2, a2 }
80002328:	f03d                                    	nop.n
8000232a:	aed6c29f16ce                           	{ loopgtz	a6, 80002345 <_Wctombx+0x65>; slli	a5, a5, 1 }
80002330:	fac552                                    	addi	a5, a5, -6
80002333:	400500                                    	ssr	a5
80002336:	be157596c2de                           	{ sra	a8, a12; or	a6, a11, a11 }
8000233c:	0a5860                                    	depbits	a6, a8, 0, 6
8000233f:	5000c38567ce                           	{ s8i	a6, a7, 0; addi	a7, a7, 1 }

80002345 <_Wctombx+0x65>:
80002345:	0020f0                                    	nop
80002348:	f03d                                    	nop.n
8000234a:	701cc09f10ae                           	{ loopgtz	a0, 8000239b <_Wctombx+0xbb>; l32i	a14, a1, 20 }
80002350:	57eb5a05bb3e                           	{ or	a0, a11, a11; addi	a4, a5, -6 }
80002356:	55f53a46857e                           	{ addi	a8, a5, -12; addi	a9, a5, -18 }
8000235c:	be0bd820003e                           	{ or	a2, a0, a0; or	a3, a0, a0 }

80002362 <_Wctombx+0x82>:
80002362:	c48ada40007e                           	{ or	a4, a0, a0; ssr	a4 }
80002368:	55e47275c25e                           	{ sra	a6, a12; addi	a5, a5, -24 }
8000236e:	c08a9c00067e                           	{ depbits	a0, a6, 0, 6; ssr	a8 }
80002374:	c8004183070e                           	{ s8i	a0, a7, 0; sra	a0, a12 }
8000237a:	c08a9c04207e                           	{ depbits	a2, a0, 0, 6; ssr	a9 }
80002380:	c8004193270e                           	{ s8i	a2, a7, 1; sra	a0, a12 }
80002386:	c08a9a04307e                           	{ depbits	a3, a0, 0, 6; ssr	a5 }
8000238c:	c8024183370e                           	{ s8i	a3, a7, 2; sra	a0, a12 }
80002392:	0a5040                                    	depbits	a4, a0, 0, 6
80002395:	5012439547ce                           	{ s8i	a4, a7, 3; addi	a7, a7, 4 }

8000239b <_Wctombx+0xbb>:
8000239b:	2108                                    	l32i.n	a0, a1, 8
8000239d:	741f5837d7fe                           	{ sub	a2, a7, a13; l32i	a15, a1, 24 }
800023a3:	70124057c14e                           	{ l32i	a12, a1, 12; l32i	a13, a1, 16 }
800023a9:	56427044505e                           	{ ret; addi	a1, a1, 48 }

800023af <_Wctombx+0xcf>:
	...

800023b0 <_Wctombx+0xd0>:
800023b0:	78114268410e                           	{ s32i	a4, a1, 0; l8ui	a0, a4, 6 }
800023b6:	94005032028e                           	{ beqz	a2, 800024da <_Wctombx+0x1fa>; movi	a10, 0 }
800023bc:	9008406ba18e                           	{ s32i	a10, a1, 32; movi	a14, 0 }
800023c2:	9006407be18e                           	{ s32i	a14, a1, 28; movi	a14, 0 }

800023c8 <_Wctombx+0xe8>:
800023c8:	488b4160ab20cf                               	{ bgeui.w15	a0, 16, 80002464 <_Wctombx+0x184>; addx4	a2, a0, a15 }
800023cf:	002222                                    	l32i	a2, a2, 0
800023d2:	016122                                    	s32i	a2, a1, 4
800023d5:	08b216                                    	beqz	a2, 80002464 <_Wctombx+0x184>
800023d8:	ffce45                                    	call0	800020c0 <_Getmbcurmax>
800023db:	072132                                    	l32i	a3, a1, 28
800023de:	54088fe349be                           	{ l32r	a4, 80000784 (fef <XtosCoreStateSize+0x6cf>); addi	a14, a14, 1 }
800023e4:	a04f12f1a423cf                               	{ bge.w15	a3, a2, 80002464 <_Wctombx+0x184>; or	a5, a3, a3 }
800023eb:	45c5b0dbe43e                           	{ blt	a4, a14, 80002464 <_Wctombx+0x184>; extui	a3, a12, 0, 8 }
800023f1:	1148                                    	l32i.n	a4, a1, 4
800023f3:	903340                                    	addx2	a3, a3, a4
800023f6:	001332                                    	l16ui	a3, a3, 0
800023f9:	44c0546073ce                           	{ beqz	a3, 80002464 <_Wctombx+0x184>; extui	a0, a3, 8, 4 }
800023ff:	4015b610f3ce                           	{ bbci	a3, 15, 80002408 <_Wctombx+0x128>; extui	a7, a3, 12, 1 }
80002405:	0a73c0                                    	depbits	a12, a3, 0, 8

80002408 <_Wctombx+0x128>:
80002408:	41df2c23302e                           	{ extui	a2, a3, 0, 8; extui	a6, a12, 8, 8 }
8000240e:	540e9a866cbe                           	{ depbits	a6, a12, 8, 16; addi	a10, a5, 1 }
80002414:	b8383301d3de                           	{ bbci	a3, 13, 80002440 <_Wctombx+0x160>; movnez	a12, a6, a7 }
8000241a:	702858e6d53e                           	{ add	a14, a5, a13; l32i	a8, a1, 32 }
80002420:	ba27c67ba10e                           	{ s32i	a10, a1, 28; or	a11, a12, a12 }
80002426:	b4a55dab227e                           	{ movnez	a11, a2, a2; add	a10, a10, a13 }
8000242c:	5bf1c582be8e                           	{ s8i	a11, a14, 0; addmi	a10, a10, 0xffffff00 }
80002432:	ff0aa2                                    	l8ui	a10, a10, 255
80002435:	190c                                    	movi.n	a9, 1
80002437:	8389a0                                    	moveqz	a8, a9, a10
8000243a:	9008406b818e                           	{ s32i	a8, a1, 32; movi	a14, 0 }

80002440 <_Wctombx+0x160>:
80002440:	04e3e7                                    	bbsi	a3, 14, 80002448 <_Wctombx+0x168>
80002443:	8138                                    	l32i.n	a3, a1, 32
80002445:	f7f316                                    	beqz	a3, 800023c8 <_Wctombx+0xe8>

80002448 <_Wctombx+0x168>:
80002448:	0148                                    	l32i.n	a4, a1, 0
8000244a:	7128                                    	l32i.n	a2, a1, 28
8000244c:	70034074040e                           	{ s16i	a0, a4, 6; l32i	a0, a1, 8 }
80002452:	70124057c14e                           	{ l32i	a12, a1, 12; l32i	a13, a1, 16 }
80002458:	70154057e1ce                           	{ l32i	a14, a1, 20; l32i	a15, a1, 24 }
8000245e:	56427044505e                           	{ ret; addi	a1, a1, 48 }

80002464 <_Wctombx+0x184>:
80002464:	f8c961                                    	l32r	a6, 80000788 (800074b4 <_reent_ptr>)
80002467:	f27c                                    	movi.n	a2, -1
80002469:	70024351c18e                           	{ l32i	a12, a1, 12; l32i	a6, a6, 0 }
8000246f:	70054044d10e                           	{ l32i	a13, a1, 16; l32i	a0, a1, 8 }
80002475:	7410d0275aae                           	{ movi	a5, 42; l32i	a14, a1, 20 }
8000247b:	7011406f56ce                           	{ s32i	a5, a6, 0; l32i	a15, a1, 24 }
80002481:	56427044505e                           	{ ret; addi	a1, a1, 48 }

80002487 <_Wctombx+0x1a7>:
80002487:	020c                                    	movi.n	a2, 0
80002489:	7003c047010e                           	{ l32i	a0, a1, 8; l32i	a12, a1, 12 }
8000248f:	70044146d18e                           	{ l32i	a13, a1, 16; l32i	a10, a3, 0 }
80002495:	6801416ea44e                           	{ s32i	a10, a4, 0; l16ui	a9, a3, 4 }
8000249b:	6803c16594ce                           	{ s16i	a9, a4, 4; l16ui	a7, a3, 6 }
800024a1:	7013407774ce                           	{ s16i	a7, a4, 6; l32i	a15, a1, 24 }
800024a7:	56427044505e                           	{ ret; addi	a1, a1, 48 }

800024ad <_Wctombx+0x1cd>:
800024ad:	000000                                        ...

800024b0 <_Wctombx+0x1d0>:
800024b0:	bda1d3c3e02e                           	{ movi	a14, 192; srli	a11, a12, 6 }
800024b6:	20bbe0                                    	or	a11, a11, a14
800024b9:	004db2                                    	s8i	a11, a13, 0
800024bc:	940e10f45c9e                           	{ j	8000231c <_Wctombx+0x3c>; movi	a2, 1 }

800024c2 <_Wctombx+0x1e2>:
800024c2:	70074044f10e                           	{ l32i	a15, a1, 24; l32i	a0, a1, 8 }
800024c8:	ba814387cd4e                           	{ s8i	a12, a13, 0; sub	a2, a7, a13 }
800024ce:	70124057c14e                           	{ l32i	a12, a1, 12; l32i	a13, a1, 16 }
800024d4:	56427044505e                           	{ ret; addi	a1, a1, 48 }

800024da <_Wctombx+0x1fa>:
800024da:	ba134239830e                           	{ l16ui	a8, a3, 6; or	a6, a4, a4 }
800024e0:	6803417584ce                           	{ s16i	a8, a4, 6; l16ui	a7, a3, 4 }
800024e6:	70024165740e                           	{ s16i	a7, a4, 4; l32i	a4, a3, 0 }
800024ec:	0649                                    	s32i.n	a4, a6, 0
800024ee:	0528                                    	l32i.n	a2, a5, 0
800024f0:	f8a741                                    	l32r	a4, 8000078c (f00 <XtosCoreStateSize+0x5e0>)
800024f3:	7001402c220e                           	{ l16ui	a2, a2, 0; l32i	a0, a1, 8 }
800024f9:	70124057c14e                           	{ l32i	a12, a1, 12; l32i	a13, a1, 16 }
800024ff:	7411304711de                           	{ addi	a1, a1, 48; l32i	a15, a1, 24 }
80002505:	b5037141501e                           	{ ret; and	a2, a2, a4 }

8000250b <_Wctombx+0x22b>:
	...

8000250c <_Wctomb>:
8000250c:	f0c112                                    	addi	a1, a1, -16
8000250f:	31c9                                    	s32i.n	a12, a1, 12
80002511:	be3809882fbe                           	{ l32r	a2, 80000790 (80007884 <_Tls_setup__Mbstate>); or	a12, a2, a2 }
80002517:	70024168018e                           	{ s32i	a0, a1, 8; l32i	a2, a2, 0 }
8000251d:	0139                                    	s32i.n	a3, a1, 0
8000251f:	1149                                    	s32i.n	a4, a1, 4
80002521:	128c                                    	beqz.n	a2, 80002526 <_Wctomb+0x1a>
80002523:	0002c0                                    	callx0	a2
80002526:	f89001                                    	l32r	a0, 80000768 (80007888 <_Mbstate>)
80002529:	030c                                    	movi.n	a3, 0
8000252b:	940630b1308e                           	{ beq	a0, a3, 80002546 <_Wctomb+0x3a>; movi	a6, 0 }
80002531:	1c9c                                    	beqz.n	a12, 80002546 <_Wctomb+0x3a>
80002533:	f89821                                    	l32r	a2, 80000794 (80007ae0 <_Tls_setup__Wcstate>)
80002536:	0228                                    	l32i.n	a2, a2, 0
80002538:	428c                                    	beqz.n	a2, 80002540 <_Wctomb+0x34>
8000253a:	0002c0                                    	callx0	a2
8000253d:	f88a01                                    	l32r	a0, 80000768 (80007888 <_Mbstate>)
80002540:	f89661                                    	l32r	a6, 80000798 (80007ae4 <_Wcstate>)
80002543:	ffffc6                                    	j	80002546 <_Wctomb+0x3a>

80002546 <_Wctomb+0x3a>:
80002546:	7000c045310e                           	{ l32i	a3, a1, 0; l32i	a4, a1, 4 }
8000254c:	be0b5e4b003e                           	{ or	a5, a0, a0; or	a2, a12, a12 }
80002552:	740f90ff633e                           	{ call0	800022e0 <_Wctombx>; l32i	a12, a1, 12 }
80002558:	2108                                    	l32i.n	a0, a1, 8
8000255a:	56027044505e                           	{ ret; addi	a1, a1, 16 }

80002560 <_Atexit>:
80002560:	57c808643e7e                           	{ l32r	a3, 80000718 (80007720 <_Atcount0>); addi	a1, a1, -16 }
80002566:	016102                                    	s32i	a0, a1, 4
80002569:	f88c01                                    	l32r	a0, 8000079c (80007368 <_Atcount>)
8000256c:	f88d81                                    	l32r	a8, 800007a0 (80007364 <_Atfuns>)
8000256f:	70004041334e                           	{ l32i	a3, a3, 0; l32i	a5, a0, 0 }
80002575:	002882                                    	l32i	a8, a8, 0
80002578:	53fdb2e553de                           	{ bltu	a3, a5, 800025a8 <_Atexit+0x48>; addi	a7, a5, -1 }
8000257e:	006122                                    	s32i	a2, a1, 0
80002581:	fe4bc5                                    	call0	80000a40 <_Atrealloc>
80002584:	7400d02c220e                           	{ beqz	a2, 800025ba <_Atexit+0x5a>; l32i	a0, a1, 4 }
8000258a:	f88471                                    	l32r	a7, 8000079c (80007368 <_Atcount>)
8000258d:	f88461                                    	l32r	a6, 800007a0 (80007364 <_Atfuns>)
80002590:	0758                                    	l32i.n	a5, a7, 0
80002592:	0668                                    	l32i.n	a6, a6, 0
80002594:	740e3855553e                           	{ addi	a5, a5, -1; l32i	a4, a1, 0 }
8000259a:	b0d0c26d578e                           	{ s32i	a5, a7, 0; addx4	a5, a5, a6 }
800025a0:	0549                                    	s32i.n	a4, a5, 0
800025a2:	56027044505e                           	{ ret; addi	a1, a1, 16 }

800025a8 <_Atexit+0x48>:
800025a8:	7000c06c700e                           	{ s32i	a7, a0, 0; l32i	a0, a1, 4 }
800025ae:	a07780                                    	addx4	a7, a7, a8
800025b1:	0729                                    	s32i.n	a2, a7, 0
800025b3:	56027044505e                           	{ ret; addi	a1, a1, 16 }

800025b9 <_Atexit+0x59>:
	...

800025ba <_Atexit+0x5a>:
800025ba:	001545                                    	call0	80002710 <abort>

800025bd <_Atexit+0x5d>:
800025bd:	000000                                        ...

800025c0 <set_constraint_handler_s>:
800025c0:	f0c112                                    	addi	a1, a1, -16
800025c3:	016102                                    	s32i	a0, a1, 4
800025c6:	006122                                    	s32i	a2, a1, 0
800025c9:	940e10fc1bbe                           	{ call0	80002238 <_Locksyslock>; movi	a2, 1 }
800025cf:	f87521                                    	l32r	a2, 800007a4 (80007948 <sec_hand_144>)
800025d2:	002232                                    	l32i	a3, a2, 0
800025d5:	7002406c310e                           	{ s32i	a3, a1, 8; l32i	a0, a1, 0 }
800025db:	006202                                    	s32i	a0, a2, 0
800025de:	940e10fc28be                           	{ call0	80002280 <_Unlocksyslock>; movi	a2, 1 }
800025e4:	012102                                    	l32i	a0, a1, 4
800025e7:	022122                                    	l32i	a2, a1, 8
800025ea:	56027044505e                           	{ ret; addi	a1, a1, 16 }

800025f0 <abort_handler_s>:
800025f0:	57c808643e7e                           	{ l32r	a3, 800007a8 (80007400 <_Stderr>); addi	a1, a1, -16 }
800025f6:	0109                                    	s32i.n	a0, a1, 0
800025f8:	0020f0                                    	nop
800025fb:	001d45                                    	call0	800027d0 <fputs>
800025fe:	f86a31                                    	l32r	a3, 800007a8 (80007400 <_Stderr>)
80002601:	0020f0                                    	nop
80002604:	900015004aae                           	{ call0	80002730 <fputc>; movi	a2, 10 }
8000260a:	0020f0                                    	nop
8000260d:	001005                                    	call0	80002710 <abort>

80002610 <ignore_handler_s>:
80002610:	f00d                                    	ret.n

80002612 <ignore_handler_s+0x2>:
	...

80002614 <_Fail_s>:
80002614:	f0c112                                    	addi	a1, a1, -16
80002617:	006102                                    	s32i	a0, a1, 0
8000261a:	0161c2                                    	s32i	a12, a1, 4
8000261d:	be305100c28e                           	{ beqz	a2, 8000262d <_Fail_s+0x19>; or	a12, a2, a2 }
80002623:	046bc5                                    	call0	80006ce0 <strnlen_s>
80002626:	02ca                                    	add.n	a0, a2, a12
80002628:	000002                                    	l8ui	a0, a0, 0
8000262b:	108c                                    	beqz.n	a0, 80002630 <_Fail_s+0x1c>

8000262d <_Fail_s+0x19>:
8000262d:	f85fc1                                    	l32r	a12, 800007ac (80000628 <_Zero+0x78>)

80002630 <_Fail_s+0x1c>:
80002630:	f85d61                                    	l32r	a6, 800007a4 (80007948 <sec_hand_144>)
80002633:	0668                                    	l32i.n	a6, a6, 0
80002635:	c69c                                    	beqz.n	a6, 80002655 <_Fail_s+0x41>
80002637:	94015101302e                           	{ movi	a3, 0; movi	a4, 34 }
8000263d:	be037643261e                           	{ callx0	a6; or	a2, a12, a12 }
80002643:	0108                                    	l32i.n	a0, a1, 0
80002645:	90014150c18e                           	{ l32i	a12, a1, 4; movi	a2, 34 }
8000264b:	56027044505e                           	{ ret; addi	a1, a1, 16 }

80002651 <_Fail_s+0x3d>:
80002651:	000000                                        ...

80002654 <_Fail_s+0x40>:
	...

80002655 <_Fail_s+0x41>:
80002655:	be090e4b343e                           	{ l32r	a3, 800007a8 (80007400 <_Stderr>); or	a2, a12, a12 }
8000265b:	700090075d2e                           	{ call0	800027d0 <fputs>; l32i	a12, a1, 4 }
80002661:	f85131                                    	l32r	a3, 800007a8 (80007400 <_Stderr>)
80002664:	9000150032ae                           	{ call0	80002730 <fputc>; movi	a2, 10 }
8000266a:	0108                                    	l32i.n	a0, a1, 0
8000266c:	222c                                    	movi.n	a2, 34
8000266e:	56027044505e                           	{ ret; addi	a1, a1, 16 }

80002674 <_Fail_s+0x60>:
	...

80002680 <__clibrary_init>:
80002680:	57c808442c7e                           	{ l32r	a2, 800007b0 (8000794c <__progname>); addi	a1, a1, -16 }
80002686:	006102                                    	s32i	a0, a1, 0
80002689:	0161c2                                    	s32i	a12, a1, 4
8000268c:	ba324369d18e                           	{ s32i	a13, a1, 8; or	a12, a6, a6 }
80002692:	be30d205834e                           	{ beqz	a3, 8000269e <__clibrary_init+0x1e>; or	a13, a5, a5 }
80002698:	002302                                    	l32i	a0, a3, 0
8000269b:	006202                                    	s32i	a0, a2, 0

8000269e <__clibrary_init+0x1e>:
8000269e:	f84531                                    	l32r	a3, 800007b4 (800074d8 <environ>)
800026a1:	006342                                    	s32i	a4, a3, 0
800026a4:	000585                                    	call0	80002700 <_init_reent_bss>
800026a7:	002d16                                    	beqz	a13, 800026ad <__clibrary_init+0x2d>
800026aa:	000dc0                                    	callx0	a13

800026ad <__clibrary_init+0x2d>:
800026ad:	740150078c4e                           	{ beqz	a12, 800026b9 <__clibrary_init+0x39>; l32i	a13, a1, 8 }
800026b3:	be0f169b0b3e                           	{ call0	80000ae0 <atexit>; or	a2, a12, a12 }

800026b9 <__clibrary_init+0x39>:
800026b9:	0108                                    	l32i.n	a0, a1, 0
800026bb:	11c8                                    	l32i.n	a12, a1, 4
800026bd:	56027044505e                           	{ ret; addi	a1, a1, 16 }

800026c3 <__clibrary_init+0x43>:
	...

800026d0 <_init_reent>:
800026d0:	f0c112                                    	addi	a1, a1, -16
800026d3:	9000406801ce                           	{ s32i	a0, a1, 0; movi	a3, 0 }
800026d9:	9031c279c10e                           	{ s32i	a12, a1, 4; movi	a4, 244 }
800026df:	0020f0                                    	nop
800026e2:	ba3011184eae                           	{ call0	80006c1c <memset>; or	a12, a2, a2 }
800026e8:	f83401                                    	l32r	a0, 800007b8 (8000067c <_Zero+0xcc>)
800026eb:	7000407c0c0e                           	{ s32i	a0, a12, 4; l32i	a0, a1, 0 }
800026f1:	120c                                    	movi.n	a2, 1
800026f3:	740ac07f2c0e                           	{ s32i	a2, a12, 108; l32i	a12, a1, 4 }
800026f9:	56027044505e                           	{ ret; addi	a1, a1, 16 }

800026ff <_init_reent+0x2f>:
	...

80002700 <_init_reent_bss>:
80002700:	f82f31                                    	l32r	a3, 800007bc (80007950 <g_reent_145>)
80002703:	940808252d3e                           	{ l32r	a2, 800007b8 (8000067c <_Zero+0xcc>); movi	a4, 1 }
80002709:	1b6342                                    	s32i	a4, a3, 108
8000270c:	1329                                    	s32i.n	a2, a3, 4
8000270e:	f00d                                    	ret.n

80002710 <abort>:
80002710:	f0c112                                    	addi	a1, a1, -16
80002713:	0109                                    	s32i.n	a0, a1, 0
80002715:	9000930862ae                           	{ call0	80002ca0 <raise>; movi	a2, 22 }
8000271b:	940e109c49be                           	{ call0	80000c40 <_Exit>; movi	a2, 1 }

80002721 <abort+0x11>:
	...

80002730 <fputc>:
80002730:	f0c112                                    	addi	a1, a1, -16
80002733:	21d9                                    	s32i.n	a13, a1, 8
80002735:	ba34c150238e                           	{ l32i	a2, a3, 20; or	a13, a2, a2 }
8000273b:	7001c16c010e                           	{ s32i	a0, a1, 0; l32i	a0, a3, 12 }
80002741:	11c9                                    	s32i.n	a12, a1, 4
80002743:	be3831d420de                           	{ bgeu	a0, a2, 80002780 <fputc+0x50>; or	a12, a3, a3 }

80002749 <fputc+0x19>:
80002749:	0040d2                                    	s8i	a13, a0, 0
8000274c:	3c38                                    	l32i.n	a3, a12, 12
8000274e:	001c02                                    	l16ui	a0, a12, 0
80002751:	331b                                    	addi.n	a3, a3, 1
80002753:	3c39                                    	s32i.n	a3, a12, 12
80002755:	45c93023b05e                           	{ bbsi	a0, 11, 80002791 <fputc+0x61>; extui	a2, a13, 0, 8 }
8000275b:	0260a7                                    	bbci	a0, 10, 80002761 <fputc+0x31>
8000275e:	2f9226                                    	beqi	a2, 10, 80002791 <fputc+0x61>

80002761 <fputc+0x31>:
80002761:	700328470a6e                           	{ extui	a4, a0, 10, 2; l32i	a13, a1, 8 }
80002767:	74005044a40e                           	{ beqz	a4, 800027b5 <fputc+0x85>; l32i	a0, a1, 0 }
8000276d:	3c58                                    	l32i.n	a5, a12, 12
8000276f:	7004c07f5c0e                           	{ s32i	a5, a12, 20; l32i	a12, a1, 4 }
80002775:	56027044505e                           	{ ret; addi	a1, a1, 16 }

8000277b <fputc+0x4b>:
8000277b:	00000000 0c97ee00                                .....

80002780 <fputc+0x50>:
80002780:	ba01110c97ee                           	{ call0	80002de0 <_Fwprep>; or	a2, a3, a3 }
80002786:	00f296                                    	bltz	a2, 80002799 <fputc+0x69>
80002789:	3c08                                    	l32i.n	a0, a12, 12
8000278b:	ffee86                                    	j	80002749 <fputc+0x19>

8000278e <fputc+0x5e>:
8000278e:	000000                                        ...

80002791 <fputc+0x61>:
80002791:	ba0116638f2e                           	{ call0	800041d0 <fflush>; or	a2, a12, a12 }
80002797:	129c                                    	beqz.n	a2, 800027ac <fputc+0x7c>

80002799 <fputc+0x69>:
80002799:	0108                                    	l32i.n	a0, a1, 0
8000279b:	f27c                                    	movi.n	a2, -1
8000279d:	70014057c14e                           	{ l32i	a12, a1, 4; l32i	a13, a1, 8 }
800027a3:	56027044505e                           	{ ret; addi	a1, a1, 16 }

800027a9 <fputc+0x79>:
800027a9:	000000                                        ...

800027ac <fputc+0x7c>:
800027ac:	001c02                                    	l16ui	a0, a12, 0
800027af:	45cf10fbae5e                           	{ j	80002761 <fputc+0x31>; extui	a2, a13, 0, 8 }

800027b5 <fputc+0x85>:
800027b5:	0108                                    	l32i.n	a0, a1, 0
800027b7:	70014057c14e                           	{ l32i	a12, a1, 4; l32i	a13, a1, 8 }
800027bd:	56027044505e                           	{ ret; addi	a1, a1, 16 }

800027c3 <fputc+0x93>:
	...

800027d0 <fputs>:
800027d0:	e0c112                                    	addi	a1, a1, -32
800027d3:	31e9                                    	s32i.n	a14, a1, 12
800027d5:	41f9                                    	s32i.n	a15, a1, 16
800027d7:	78004168010e                           	{ s32i	a0, a1, 0; l8ui	a0, a2, 0 }
800027dd:	21d9                                    	s32i.n	a13, a1, 8
800027df:	ba30c17cc1ce                           	{ s32i	a12, a1, 4; or	a13, a3, a3 }
800027e5:	be3051a8108e                           	{ beqz	a0, 8000289a <fputs+0xca>; or	a12, a2, a2 }

800027eb <fputs+0x1b>:
800027eb:	7005c6543d8e                           	{ l32i	a3, a13, 20; l32i	a2, a13, 12 }
800027f1:	680236c5321e                           	{ bgeu	a2, a3, 80002817 <fputs+0x47>; l16ui	a4, a13, 0 }
800027f7:	940a3003a4de                           	{ bbci	a4, 10, 80002835 <fputs+0x65>; movi	a15, 0 }

800027fd <fputs+0x2d>:
800027fd:	0c2d                                    	mov.n	a2, a12
800027ff:	900015182cee                           	{ call0	80006cb0 <strrchr>; movi	a3, 10 }
80002805:	02fd                                    	mov.n	a15, a2

80002807 <fputs+0x37>:
80002807:	beb15727af0e                           	{ beqz	a15, 80002835 <fputs+0x65>; sub	a14, a15, a12 }
8000280d:	500097032f8e                           	{ j	80002840 <fputs+0x70>; addi	a14, a14, 1 }

80002813 <fputs+0x43>:
80002813:	000000                                        ...

80002816 <fputs+0x46>:
	...

80002817 <fputs+0x47>:
80002817:	ba01160f726e                           	{ call0	80002de0 <_Fwprep>; or	a2, a13, a13 }
8000281d:	05f296                                    	bltz	a2, 80002880 <fputs+0xb0>
80002820:	001df2                                    	l16ui	a15, a13, 0
80002823:	d6efa7                                    	bbsi	a15, 10, 800027fd <fputs+0x2d>
80002826:	940e10fbddde                           	{ j	80002807 <fputs+0x37>; movi	a15, 0 }

8000282c <fputs+0x5c>:
8000282c:	000000                                        ...

8000282f <fputs+0x5f>:
8000282f:	00000000 20f00000                                ......

80002835 <fputs+0x65>:
80002835:	0020f0                                    	nop
80002838:	ba01160b492e                           	{ call0	80002d60 <strlen>; or	a2, a12, a12 }
8000283e:	02ed                                    	mov.n	a14, a2

80002840 <fputs+0x70>:
80002840:	7012c6542d0e                           	{ l32i	a2, a13, 12; l32i	a0, a13, 20 }
80002846:	c00020                                    	sub	a0, a0, a2
80002849:	05b0e7                                    	bgeu	a0, a14, 80002852 <fputs+0x82>
8000284c:	940a58e300fe                           	{ or	a14, a0, a0; movi	a15, 0 }

80002852 <fputs+0x82>:
80002852:	203cc0                                    	or	a3, a12, a12
80002855:	ba1017139aae                           	{ call0	80006ac0 <memcpy>; or	a4, a14, a14 }
8000285b:	032d22                                    	l32i	a2, a13, 12
8000285e:	8022e0                                    	add	a2, a2, a14
80002861:	3d29                                    	s32i.n	a2, a13, 12
80002863:	b4b05603af8e                           	{ beqz	a15, 80002871 <fputs+0xa1>; add	a12, a12, a14 }
80002869:	ba011667596e                           	{ call0	800041d0 <fflush>; or	a2, a13, a13 }
8000286f:	d2cc                                    	bnez.n	a2, 80002880 <fputs+0xb0>
80002871:	000c32                                    	l8ui	a3, a12, 0
80002874:	f73356                                    	bnez	a3, 800027eb <fputs+0x1b>
80002877:	0007c6                                    	j	8000289a <fputs+0xca>

8000287a <fputs+0xaa>:
8000287a:	000000                                        ...

8000287d <fputs+0xad>:
8000287d:	000000                                        ...

80002880 <fputs+0xb0>:
80002880:	93f1c744018e                           	{ l32i	a0, a1, 0; movi	a2, -1 }
80002886:	70014057c14e                           	{ l32i	a12, a1, 4; l32i	a13, a1, 8 }
8000288c:	70124057e1ce                           	{ l32i	a14, a1, 12; l32i	a15, a1, 16 }
80002892:	54427044505e                           	{ ret; addi	a1, a1, 32 }

80002898 <fputs+0xc8>:
	...

8000289a <fputs+0xca>:
8000289a:	001d02                                    	l16ui	a0, a13, 0
8000289d:	23e0b7                                    	bbsi	a0, 11, 800028c4 <fputs+0xf4>

800028a0 <fputs+0xd0>:
800028a0:	900228400aae                           	{ extui	a4, a0, 10, 2; movi	a2, 0 }
800028a6:	7400d027c40e                           	{ beqz	a4, 800028d6 <fputs+0x106>; l32i	a12, a1, 4 }
800028ac:	70044044f10e                           	{ l32i	a15, a1, 16; l32i	a0, a1, 0 }
800028b2:	7003c655e14e                           	{ l32i	a14, a1, 12; l32i	a5, a13, 12 }
800028b8:	7005407f5d4e                           	{ s32i	a5, a13, 20; l32i	a13, a1, 8 }
800028be:	54427044505e                           	{ ret; addi	a1, a1, 32 }

800028c4 <fputs+0xf4>:
800028c4:	ba011667426e                           	{ call0	800041d0 <fflush>; or	a2, a13, a13 }
800028ca:	fb2256                                    	bnez	a2, 80002880 <fputs+0xb0>
800028cd:	001d02                                    	l16ui	a0, a13, 0
800028d0:	fff306                                    	j	800028a0 <fputs+0xd0>

800028d3 <fputs+0x103>:
800028d3:	000000                                        ...

800028d6 <fputs+0x106>:
800028d6:	90004040018e                           	{ l32i	a0, a1, 0; movi	a2, 0 }
800028dc:	70014057c14e                           	{ l32i	a12, a1, 4; l32i	a13, a1, 8 }
800028e2:	70124057e1ce                           	{ l32i	a14, a1, 12; l32i	a15, a1, 16 }
800028e8:	54427044505e                           	{ ret; addi	a1, a1, 32 }

800028ee <fputs+0x11e>:
	...

800028f0 <free>:
800028f0:	f0c112                                    	addi	a1, a1, -16
800028f3:	006102                                    	s32i	a0, a1, 0
800028f6:	5bf1c179c14e                           	{ s32i	a12, a1, 4; addmi	a5, a2, 0xffffff00 }
800028fc:	57c0514b920e                           	{ beqz	a2, 80002959 <free+0x69>; addi	a12, a2, -16 }
80002902:	3c2552                                    	l32i	a5, a5, 240
80002905:	940067ad45ae                           	{ bltui	a5, 16, 80002959 <free+0x69>; movi	a6, 15 }
8000290b:	0261c2                                    	s32i	a12, a1, 8
8000290e:	478657                                    	bany	a6, a5, 80002959 <free+0x69>
80002911:	940e10f449be                           	{ call0	80002238 <_Locksyslock>; movi	a2, 1 }
80002917:	f7aa61                                    	l32r	a6, 800007c0 (80007a44 <_Aldata>)
8000291a:	012652                                    	l32i	a5, a6, 4
8000291d:	74015004550e                           	{ beqz	a5, 80002926 <free+0x36>; l32i	a0, a1, 8 }
80002923:	3cbc57                                    	bgeu	a12, a5, 80002963 <free+0x73>

80002926 <free+0x36>:
80002926:	016c52                                    	s32i	a5, a12, 4
80002929:	0166c2                                    	s32i	a12, a6, 4

8000292c <free+0x3c>:
8000292c:	7000405120ce                           	{ l32i	a2, a0, 4; l32i	a7, a0, 0 }
80002932:	b491d30cd20e                           	{ beqz	a2, 80002953 <free+0x63>; add	a7, a7, a0 }
80002938:	9406401272ce                           	{ bne	a2, a7, 80002953 <free+0x63>; movi	a11, 0 }
8000293e:	0066b2                                    	s32i	a11, a6, 0
80002941:	1088                                    	l32i.n	a8, a0, 4
80002943:	70004442a04e                           	{ l32i	a10, a0, 0; l32i	a9, a8, 0 }
80002949:	99aa                                    	add.n	a9, a9, a10
8000294b:	0099                                    	s32i.n	a9, a0, 0
8000294d:	012882                                    	l32i	a8, a8, 4
80002950:	016082                                    	s32i	a8, a0, 4
80002953:	940e10f44bbe                           	{ call0	80002280 <_Unlocksyslock>; movi	a2, 1 }

80002959 <free+0x69>:
80002959:	0108                                    	l32i.n	a0, a1, 0
8000295b:	11c8                                    	l32i.n	a12, a1, 4
8000295d:	56027044505e                           	{ ret; addi	a1, a1, 16 }

80002963 <free+0x73>:
80002963:	1528                                    	l32i.n	a2, a5, 4
80002965:	c28c                                    	beqz.n	a2, 80002975 <free+0x85>
80002967:	0ab2c7                                    	bgeu	a2, a12, 80002975 <free+0x85>

8000296a <free+0x7a>:
8000296a:	ba10c150228e                           	{ l32i	a2, a2, 4; or	a5, a2, a2 }
80002970:	128c                                    	beqz.n	a2, 80002975 <free+0x85>
80002972:	f432c7                                    	bltu	a2, a12, 8000296a <free+0x7a>
80002975:	0578                                    	l32i.n	a7, a5, 0
80002977:	275a                                    	add.n	a2, a7, a5
80002979:	233c27                                    	bltu	a12, a2, 800029a0 <free+0xb0>
8000297c:	0b9c27                                    	bne	a12, a2, 8000298b <free+0x9b>
8000297f:	0c08                                    	l32i.n	a0, a12, 0
80002981:	007a                                    	add.n	a0, a0, a7
80002983:	0509                                    	s32i.n	a0, a5, 0
80002985:	be0e12fda35e                           	{ j	8000292c <free+0x3c>; or	a0, a5, a5 }

8000298b <free+0x9b>:
8000298b:	1528                                    	l32i.n	a2, a5, 4
8000298d:	528c                                    	beqz.n	a2, 80002996 <free+0xa6>
8000298f:	0c38                                    	l32i.n	a3, a12, 0
80002991:	33ca                                    	add.n	a3, a3, a12
80002993:	1c3237                                    	bltu	a2, a3, 800029b3 <free+0xc3>
80002996:	1c29                                    	s32i.n	a2, a12, 4
80002998:	15c9                                    	s32i.n	a12, a5, 4
8000299a:	ffe386                                    	j	8000292c <free+0x3c>

8000299d <free+0xad>:
8000299d:	000000                                        ...

800029a0 <free+0xb0>:
800029a0:	940e10f437be                           	{ call0	80002280 <_Unlocksyslock>; movi	a2, 1 }
800029a6:	0108                                    	l32i.n	a0, a1, 0
800029a8:	11c8                                    	l32i.n	a12, a1, 4
800029aa:	56027044505e                           	{ ret; addi	a1, a1, 16 }

800029b0 <free+0xc0>:
800029b0:	000000                                        ...

800029b3 <free+0xc3>:
800029b3:	940e10f433be                           	{ call0	80002280 <_Unlocksyslock>; movi	a2, 1 }
800029b9:	0108                                    	l32i.n	a0, a1, 0
800029bb:	11c8                                    	l32i.n	a12, a1, 4
800029bd:	56027044505e                           	{ ret; addi	a1, a1, 16 }

800029c3 <free+0xd3>:
	...

800029d0 <fwrite>:
800029d0:	e0c112                                    	addi	a1, a1, -32
800029d3:	0661f2                                    	s32i	a15, a1, 24
800029d6:	0561e2                                    	s32i	a14, a1, 20
800029d9:	026102                                    	s32i	a0, a1, 8
800029dc:	41d9                                    	s32i.n	a13, a1, 16
800029de:	be36da15437e                           	{ mull	a0, a3, a4; or	a13, a5, a5 }
800029e4:	ba334178c18e                           	{ s32i	a12, a1, 12; or	a14, a2, a2 }
800029ea:	be305018700e                           	{ beqz	a0, 80002b05 <fwrite+0x135>; or	a12, a0, a0 }
800029f0:	125316                                    	beqz	a3, 80002b19 <fwrite+0x149>
800029f3:	1109                                    	s32i.n	a0, a1, 4
800029f5:	006132                                    	s32i	a3, a1, 0
800029f8:	0dc016                                    	beqz	a0, 80002ad8 <fwrite+0x108>

800029fb <fwrite+0x2b>:
800029fb:	7005c6540d8e                           	{ l32i	a0, a13, 20; l32i	a2, a13, 12 }
80002a01:	001d32                                    	l16ui	a3, a13, 0
80002a04:	6fb207                                    	bgeu	a2, a0, 80002a77 <fwrite+0xa7>
80002a07:	be844098308e                           	{ nop; sub	a0, a0, a2 }
80002a0d:	e044027c10a38f                               	{ bbci.w15	a3, 10, 80002a90 <fwrite+0xc0>; nop }

80002a14 <fwrite+0x44>:
80002a14:	940a5d20eefe                           	{ or	a2, a14, a14; movi	a3, 10 }
80002a1a:	ba1016136d2e                           	{ call0	80006bd0 <memchr>; or	a4, a12, a12 }
80002a20:	024d                                    	mov.n	a4, a2

80002a22 <fwrite+0x52>:
80002a22:	7012c6542d0e                           	{ l32i	a2, a13, 12; l32i	a0, a13, 20 }
80002a28:	c0f4e0                                    	sub	a15, a4, a14
80002a2b:	5006c77f41ce                           	{ s32i	a4, a1, 28; addi	a15, a15, 1 }
80002a31:	be8058f84cbe                           	{ moveqz	a15, a12, a4; sub	a0, a0, a2 }
80002a37:	07b0f7                                    	bgeu	a0, a15, 80002a42 <fwrite+0x72>

80002a3a <fwrite+0x6a>:
80002a3a:	030c                                    	movi.n	a3, 0
80002a3c:	ba37c078310e                           	{ s32i	a3, a1, 28; or	a15, a0, a0 }

80002a42 <fwrite+0x72>:
80002a42:	203ee0                                    	or	a3, a14, a14
80002a45:	ba1017171eee                           	{ call0	80006ac0 <memcpy>; or	a4, a15, a15 }
80002a4b:	032d52                                    	l32i	a5, a13, 12
80002a4e:	072142                                    	l32i	a4, a1, 28
80002a51:	1d68                                    	l32i.n	a6, a13, 4
80002a53:	b098dae7fefe                           	{ add	a14, a14, a15; add	a5, a5, a15 }
80002a59:	bab2467b5dce                           	{ s32i	a5, a13, 12; sub	a12, a12, a15 }
80002a5f:	beb1d205a48e                           	{ beqz	a4, 80002a6d <fwrite+0x9d>; sub	a15, a5, a6 }
80002a65:	ba01164fda6e                           	{ call0	800041d0 <fflush>; or	a2, a13, a13 }
80002a6b:	12fc                                    	bnez.n	a2, 80002aa0 <fwrite+0xd0>
80002a6d:	f8ac56                                    	bnez	a12, 800029fb <fwrite+0x2b>
80002a70:	001906                                    	j	80002ad8 <fwrite+0x108>

80002a73 <fwrite+0xa3>:
80002a73:	000000                                        ...

80002a76 <fwrite+0xa6>:
	...

80002a77 <fwrite+0xa7>:
80002a77:	ba011607da6e                           	{ call0	80002de0 <_Fwprep>; or	a2, a13, a13 }
80002a7d:	01d296                                    	bltz	a2, 80002a9e <fwrite+0xce>
80002a80:	001d62                                    	l16ui	a6, a13, 0
80002a83:	900c3831a60e                           	{ bbsi	a6, 10, 80002a14 <fwrite+0x44>; movi	a4, 0 }
80002a89:	ffe546                                    	j	80002a22 <fwrite+0x52>

80002a8c <fwrite+0xbc>:
80002a8c:	000000                                        ...

80002a8f <fwrite+0xbf>:
	...

80002a90 <fwrite+0xc0>:
80002a90:	ba37bee3c01e                           	{ bltu	a0, a12, 80002a3a <fwrite+0x6a>; or	a15, a12, a12 }
80002a96:	070c                                    	movi.n	a7, 0
80002a98:	7179                                    	s32i.n	a7, a1, 28
80002a9a:	ffe906                                    	j	80002a42 <fwrite+0x72>

80002a9d <fwrite+0xcd>:
	...

80002a9e <fwrite+0xce>:
80002a9e:	0f0c                                    	movi.n	a15, 0

80002aa0 <fwrite+0xd0>:
80002aa0:	001d02                                    	l16ui	a0, a13, 0
80002aa3:	0260b7                                    	bbci	a0, 11, 80002aa9 <fwrite+0xd9>
80002aa6:	086f16                                    	beqz	a15, 80002b30 <fwrite+0x160>

80002aa9 <fwrite+0xd9>:
80002aa9:	b0b22e830aee                           	{ extui	a8, a0, 10, 2; add	a12, a12, a15 }
80002aaf:	7401502c180e                           	{ beqz	a8, 80002ae4 <fwrite+0x114>; l32i	a0, a1, 8 }
80002ab5:	61f8                                    	l32i.n	a15, a1, 24
80002ab7:	7001c65421ce                           	{ l32i	a2, a1, 4; l32i	a3, a13, 12 }
80002abd:	7004407c3dce                           	{ s32i	a3, a13, 20; l32i	a3, a1, 0 }
80002ac3:	70144057e14e                           	{ l32i	a14, a1, 20; l32i	a13, a1, 16 }
80002ac9:	ba834153c10e                           	{ l32i	a12, a1, 12; sub	a2, a2, a12 }
80002acf:	c22230                                    	quou	a2, a2, a3
80002ad2:	54427044505e                           	{ ret; addi	a1, a1, 32 }

80002ad8 <fwrite+0x108>:
80002ad8:	001d02                                    	l16ui	a0, a13, 0
80002adb:	94003033b0ee                           	{ bbsi	a0, 11, 80002b30 <fwrite+0x160>; movi	a15, 0 }
80002ae1:	fff106                                    	j	80002aa9 <fwrite+0xd9>

80002ae4 <fwrite+0x114>:
80002ae4:	7004c044d18e                           	{ l32i	a13, a1, 16; l32i	a2, a1, 4 }
80002aea:	70044054e1ce                           	{ l32i	a14, a1, 20; l32i	a3, a1, 0 }
80002af0:	70074044f10e                           	{ l32i	a15, a1, 24; l32i	a0, a1, 8 }
80002af6:	ba834153c10e                           	{ l32i	a12, a1, 12; sub	a2, a2, a12 }
80002afc:	c22230                                    	quou	a2, a2, a3
80002aff:	54427044505e                           	{ ret; addi	a1, a1, 32 }

80002b05 <fwrite+0x135>:
80002b05:	2108                                    	l32i.n	a0, a1, 8
80002b07:	90024050c18e                           	{ l32i	a12, a1, 12; movi	a2, 0 }
80002b0d:	7014c047d18e                           	{ l32i	a13, a1, 16; l32i	a14, a1, 20 }
80002b13:	54427044505e                           	{ ret; addi	a1, a1, 32 }

80002b19 <fwrite+0x149>:
80002b19:	2108                                    	l32i.n	a0, a1, 8
80002b1b:	ba034251c10e                           	{ l32i	a12, a1, 12; or	a2, a4, a4 }
80002b21:	7014c047d18e                           	{ l32i	a13, a1, 16; l32i	a14, a1, 20 }
80002b27:	54427044505e                           	{ ret; addi	a1, a1, 32 }

80002b2d <fwrite+0x15d>:
80002b2d:	000000                                        ...

80002b30 <fwrite+0x160>:
80002b30:	7001c6570dce                           	{ l32i	a0, a13, 4; l32i	a15, a13, 12 }
80002b36:	0d2d                                    	mov.n	a2, a13
80002b38:	beb5c79c300e                           	{ nop; sub	a15, a15, a0 }
80002b3e:	0020f0                                    	nop
80002b41:	0168c5                                    	call0	800041d0 <fflush>
80002b44:	6c005604302e                           	{ movi	a3, 0; l16ui	a0, a13, 0 }
80002b4a:	b7bf91fc5b9e                           	{ j	80002aa9 <fwrite+0xd9>; moveqz	a15, a3, a2 }

80002b50 <malloc>:
80002b50:	f0c112                                    	addi	a1, a1, -16
80002b53:	0261d2                                    	s32i	a13, a1, 8
80002b56:	0161c2                                    	s32i	a12, a1, 4
80002b59:	ba304168018e                           	{ s32i	a0, a1, 0; or	a12, a2, a2 }
80002b5f:	940e10dcb6be                           	{ call0	80002238 <_Locksyslock>; movi	a2, 1 }
80002b65:	97ffb0500c8e                           	{ addi	a0, a12, 31; movi	a2, -16 }
80002b6b:	100020                                    	and	a0, a0, a2
80002b6e:	e104003c880c8f                               	{ bgeu.w15	a12, a0, 80002c80 <malloc+0x130>; nop }
80002b75:	f71351                                    	l32r	a5, 800007c4 (80007a48 <_Aldata+0x4>)
80002b78:	10a0c2                                    	movi	a12, 16
80002b7b:	53fe5ac40cbe                           	{ maxu	a12, a12, a0; addi	a2, a5, -4 }

80002b81 <malloc+0x31>:
80002b81:	0278                                    	l32i.n	a7, a2, 0
80002b83:	0b6716                                    	beqz	a7, 80002c3d <malloc+0xed>
80002b86:	0788                                    	l32i.n	a8, a7, 0
80002b88:	0a4816                                    	beqz	a8, 80002c30 <malloc+0xe0>
80002b8b:	086d                                    	mov.n	a6, a8
80002b8d:	0d8076                                    	loop	a0, 80002b9e <malloc+0x4e>
80002b90:	0608                                    	l32i.n	a0, a6, 0
80002b92:	1db0c7                                    	bgeu	a0, a12, 80002bb3 <malloc+0x63>
80002b95:	5010435166ce                           	{ l32i	a6, a6, 4; addi	a7, a6, 4 }
80002b9b:	091616                                    	beqz	a6, 80002c30 <malloc+0xe0>

80002b9e <malloc+0x4e>:
80002b9e:	fffac6                                    	j	80002b8d <malloc+0x3d>

80002ba1 <malloc+0x51>:
80002ba1:	5010435166ce                           	{ l32i	a6, a6, 4; addi	a7, a6, 4 }
80002ba7:	e084023c80868f                               	{ beq.w15	a6, a8, 80002c59 <malloc+0x109>; nop }

80002bae <malloc+0x5e>:
80002bae:	0638                                    	l32i.n	a3, a6, 0
80002bb0:	ed33c7                                    	bltu	a3, a12, 80002ba1 <malloc+0x51>

80002bb3 <malloc+0x63>:
80002bb3:	05d716                                    	beqz	a7, 80002c14 <malloc+0xc4>
80002bb6:	07d8                                    	l32i.n	a13, a7, 0
80002bb8:	0d48                                    	l32i.n	a4, a13, 0
80002bba:	f0c442                                    	addi	a4, a4, -16
80002bbd:	06b4c7                                    	bgeu	a4, a12, 80002bc7 <malloc+0x77>
80002bc0:	1d08                                    	l32i.n	a0, a13, 4
80002bc2:	0709                                    	s32i.n	a0, a7, 0
80002bc4:	000506                                    	j	80002bdc <malloc+0x8c>

80002bc7 <malloc+0x77>:
80002bc7:	8cda                                    	add.n	a8, a12, a13
80002bc9:	0789                                    	s32i.n	a8, a7, 0
80002bcb:	1d68                                    	l32i.n	a6, a13, 4
80002bcd:	1869                                    	s32i.n	a6, a8, 4
80002bcf:	0d58                                    	l32i.n	a5, a13, 0
80002bd1:	0768                                    	l32i.n	a6, a7, 0
80002bd3:	c055c0                                    	sub	a5, a5, a12
80002bd6:	0659                                    	s32i.n	a5, a6, 0
80002bd8:	0dc9                                    	s32i.n	a12, a13, 0
80002bda:	0708                                    	l32i.n	a0, a7, 0

80002bdc <malloc+0x8c>:
80002bdc:	085016                                    	beqz	a0, 80002c65 <malloc+0x115>
80002bdf:	1098                                    	l32i.n	a9, a0, 4
80002be1:	080916                                    	beqz	a9, 80002c65 <malloc+0x115>
80002be4:	004b                                    	addi.n	a0, a0, 4

80002be6 <malloc+0x96>:
80002be6:	0209                                    	s32i.n	a0, a2, 0
80002be8:	940e10dca5be                           	{ call0	80002280 <_Unlocksyslock>; movi	a2, 1 }
80002bee:	0108                                    	l32i.n	a0, a1, 0
80002bf0:	10cd22                                    	addi	a2, a13, 16
80002bf3:	70014057c14e                           	{ l32i	a12, a1, 4; l32i	a13, a1, 8 }
80002bf9:	56027044505e                           	{ ret; addi	a1, a1, 16 }

80002bff <malloc+0xaf>:
80002bff:	000000                                        ...

80002c02 <malloc+0xb2>:
80002c02:	41d1d0                                    	srli	a13, a13, 1

80002c05 <malloc+0xb5>:
80002c05:	73dcd0                                    	maxu	a13, a12, a13
80002c08:	ba011607b96e                           	{ call0	80002ef0 <_Getmem>; or	a2, a13, a13 }
80002c0e:	059256                                    	bnez	a2, 80002c6b <malloc+0x11b>
80002c11:	ed9cd7                                    	bne	a12, a13, 80002c02 <malloc+0xb2>

80002c14 <malloc+0xc4>:
80002c14:	940e10dc9abe                           	{ call0	80002280 <_Unlocksyslock>; movi	a2, 1 }
80002c1a:	0108                                    	l32i.n	a0, a1, 0
80002c1c:	020c                                    	movi.n	a2, 0
80002c1e:	70014057c14e                           	{ l32i	a12, a1, 4; l32i	a13, a1, 8 }
80002c24:	56027044505e                           	{ ret; addi	a1, a1, 16 }

80002c2a <malloc+0xda>:
80002c2a:	00000000 12a80000                                ......

80002c30 <malloc+0xe0>:
80002c30:	12a8                                    	l32i.n	a10, a2, 4
80002c32:	ba13b2b58a5e                           	{ beq	a10, a8, 80002c59 <malloc+0x109>; or	a7, a5, a5 }
80002c38:	0568                                    	l32i.n	a6, a5, 0
80002c3a:	ffdc06                                    	j	80002bae <malloc+0x5e>

80002c3d <malloc+0xed>:
80002c3d:	12b8                                    	l32i.n	a11, a2, 4
80002c3f:	be11d20d6b4e                           	{ beqz	a11, 80002c59 <malloc+0x109>; or	a7, a5, a5 }
80002c45:	0568                                    	l32i.n	a6, a5, 0

80002c47 <malloc+0xf7>:
80002c47:	06d8                                    	l32i.n	a13, a6, 0
80002c49:	e7740e1c88cd8f                               	{ bgeu.w15	a13, a12, 80002bb3 <malloc+0x63>; nop }
80002c50:	5010435166ce                           	{ l32i	a6, a6, 4; addi	a7, a6, 4 }
80002c56:	fed656                                    	bnez	a6, 80002c47 <malloc+0xf7>
80002c59:	f6dbd1                                    	l32r	a13, 800007c8 (800074b8 <_Size_block>)
80002c5c:	7002467f514e                           	{ s32i	a5, a1, 12; l32i	a13, a13, 0 }
80002c62:	ffe7c6                                    	j	80002c05 <malloc+0xb5>

80002c65 <malloc+0x115>:
80002c65:	940e10f87d1e                           	{ j	80002be6 <malloc+0x96>; movi	a0, 0 }

80002c6b <malloc+0x11b>:
80002c6b:	02d9                                    	s32i.n	a13, a2, 0
80002c6d:	560e11f820be                           	{ call0	800028f0 <free>; addi	a2, a2, 16 }
80002c73:	f6d321                                    	l32r	a2, 800007c0 (80007a44 <_Aldata>)
80002c76:	740f90fd075e                           	{ j	80002b81 <malloc+0x31>; l32i	a5, a1, 12 }

80002c7c <malloc+0x12c>:
80002c7c:	000000                                        ...

80002c7f <malloc+0x12f>:
	...

80002c80 <malloc+0x130>:
80002c80:	940e10dc7fbe                           	{ call0	80002280 <_Unlocksyslock>; movi	a2, 1 }
80002c86:	0108                                    	l32i.n	a0, a1, 0
80002c88:	020c                                    	movi.n	a2, 0
80002c8a:	70014057c14e                           	{ l32i	a12, a1, 4; l32i	a13, a1, 8 }
80002c90:	56027044505e                           	{ ret; addi	a1, a1, 16 }

80002c96 <malloc+0x146>:
	...

80002ca0 <raise>:
80002ca0:	f0c112                                    	addi	a1, a1, -16
80002ca3:	0161c2                                    	s32i	a12, a1, 4
80002ca6:	006102                                    	s32i	a0, a1, 0
80002ca9:	9002406cd1ce                           	{ s32i	a13, a1, 8; movi	a3, 1 }
80002caf:	ba30910014ae                           	{ call0	80002d00 <signal>; or	a13, a2, a2 }
80002cb5:	ba3e6110029e                           	{ beqi	a2, -1, 80002ce8 <raise+0x48>; or	a12, a2, a2 }
80002cbb:	131226                                    	beqi	a2, 1, 80002cd2 <raise+0x32>
80002cbe:	020216                                    	beqz	a2, 80002ce2 <raise+0x42>
80002cc1:	0d2d                                    	mov.n	a2, a13
80002cc3:	0020f0                                    	nop
80002cc6:	900010000eee                           	{ call0	80002d00 <signal>; movi	a3, 0 }
80002ccc:	be0376472c5e                           	{ callx0	a12; or	a2, a13, a13 }

80002cd2 <raise+0x32>:
80002cd2:	0108                                    	l32i.n	a0, a1, 0
80002cd4:	020c                                    	movi.n	a2, 0
80002cd6:	70014057c14e                           	{ l32i	a12, a1, 4; l32i	a13, a1, 8 }
80002cdc:	56027044505e                           	{ ret; addi	a1, a1, 16 }

80002ce2 <raise+0x42>:
80002ce2:	940e107cd7be                           	{ call0	80000c40 <_Exit>; movi	a2, 1 }

80002ce8 <raise+0x48>:
80002ce8:	0108                                    	l32i.n	a0, a1, 0
80002cea:	f27c                                    	movi.n	a2, -1
80002cec:	70014057c14e                           	{ l32i	a12, a1, 4; l32i	a13, a1, 8 }
80002cf2:	56027044505e                           	{ ret; addi	a1, a1, 16 }

80002cf8 <raise+0x58>:
	...

80002d00 <signal>:
80002d00:	f0c112                                    	addi	a1, a1, -16
80002d03:	21c9                                    	s32i.n	a12, a1, 8
80002d05:	ba304178018e                           	{ s32i	a0, a1, 4; or	a12, a2, a2 }
80002d0b:	700ae00c320e                           	{ blti	a2, 1, 80002d19 <signal+0x19>; l32i	a0, a1, 4 }
80002d11:	04c2e6                                    	bgei	a2, 32, 80002d19 <signal+0x19>
80002d14:	0139                                    	s32i.n	a3, a1, 0
80002d16:	0d0366                                    	bnei	a3, -1, 80002d27 <signal+0x27>
80002d19:	93f3c744c18e                           	{ l32i	a12, a1, 8; movi	a2, -1 }
80002d1f:	56027044505e                           	{ ret; addi	a1, a1, 16 }

80002d25 <signal+0x25>:
	...

80002d27 <signal+0x27>:
80002d27:	0020f0                                    	nop
80002d2a:	940e10dc43be                           	{ call0	80002238 <_Locksyslock>; movi	a2, 1 }
80002d30:	f6a721                                    	l32r	a2, 800007cc (80007a50 <sigtable_144>)
80002d33:	a02c20                                    	addx4	a2, a12, a2
80002d36:	70004143010e                           	{ l32i	a0, a1, 0; l32i	a12, a2, 0 }
80002d3c:	0209                                    	s32i.n	a0, a2, 0
80002d3e:	0020f0                                    	nop
80002d41:	940e10dc4fbe                           	{ call0	80002280 <_Unlocksyslock>; movi	a2, 1 }
80002d47:	1108                                    	l32i.n	a0, a1, 4
80002d49:	ba034643c10e                           	{ l32i	a12, a1, 8; or	a2, a12, a12 }
80002d4f:	56027044505e                           	{ ret; addi	a1, a1, 16 }

80002d55 <signal+0x55>:
	...

80002d60 <strlen>:
80002d60:	94378f8d7e3e                           	{ l32r	a7, 800007d8 (ff000000 <xthals_hw_configid0+0x3e4c2406>); movi	a4, 255 }
80002d66:	57f609886bfe                           	{ l32r	a6, 800007d4 (ff0000 <_DoubleExceptionVector_text_end+0xeefa58>); addi	a3, a2, -4 }
80002d6c:	f69951                                    	l32r	a5, 800007d0 (ff00 <xthals_release_major+0xd020>)
80002d6f:	05e207                                    	bbsi	a2, 0, 80002d78 <strlen+0x18>
80002d72:	0ce217                                    	bbsi	a2, 1, 80002d82 <strlen+0x22>
80002d75:	0006c6                                    	j	80002d94 <strlen+0x34>

80002d78 <strlen+0x18>:
80002d78:	040382                                    	l8ui	a8, a3, 4
80002d7b:	331b                                    	addi.n	a3, a3, 1
80002d7d:	88ac                                    	beqz.n	a8, 80002da9 <strlen+0x49>
80002d7f:	116317                                    	bbci	a3, 1, 80002d94 <strlen+0x34>

80002d82 <strlen+0x22>:
80002d82:	332b                                    	addi.n	a3, a3, 2
80002d84:	0388                                    	l32i.n	a8, a3, 0
80002d86:	2d0867                                    	bnone	a8, a6, 80002db7 <strlen+0x57>
80002d89:	078877                                    	bany	a8, a7, 80002d94 <strlen+0x34>
80002d8c:	333b                                    	addi.n	a3, a3, 3
80002d8e:	c02320                                    	sub	a2, a3, a2
80002d91:	f00d                                    	ret.n

80002d93 <strlen+0x33>:
	...

80002d94 <strlen+0x34>:
80002d94:	080c                                    	movi.n	a8, 0
80002d96:	0f8876                                    	loop	a8, 80002da9 <strlen+0x49>
80002d99:	1388                                    	l32i.n	a8, a3, 4
80002d9b:	334b                                    	addi.n	a3, a3, 4
80002d9d:	0a0847                                    	bnone	a8, a4, 80002dab <strlen+0x4b>
80002da0:	0c0857                                    	bnone	a8, a5, 80002db0 <strlen+0x50>
80002da3:	100867                                    	bnone	a8, a6, 80002db7 <strlen+0x57>
80002da6:	ff0877                                    	bnone	a8, a7, 80002da9 <strlen+0x49>

80002da9 <strlen+0x49>:
80002da9:	333b                                    	addi.n	a3, a3, 3

80002dab <strlen+0x4b>:
80002dab:	c02320                                    	sub	a2, a3, a2
80002dae:	f00d                                    	ret.n

80002db0 <strlen+0x50>:
80002db0:	331b                                    	addi.n	a3, a3, 1
80002db2:	c02320                                    	sub	a2, a3, a2
80002db5:	f00d                                    	ret.n

80002db7 <strlen+0x57>:
80002db7:	332b                                    	addi.n	a3, a3, 2
80002db9:	c02320                                    	sub	a2, a3, a2
80002dbc:	f00d                                    	ret.n

80002dbe <strlen+0x5e>:
	...

80002dc0 <_Getpctype>:
80002dc0:	f68721                                    	l32r	a2, 800007dc (80007ad0 <_Tls_setup__Ctype>)
80002dc3:	0228                                    	l32i.n	a2, a2, 0
80002dc5:	f0c112                                    	addi	a1, a1, -16
80002dc8:	0109                                    	s32i.n	a0, a1, 0
80002dca:	002216                                    	beqz	a2, 80002dd0 <_Getpctype+0x10>
80002dcd:	0002c0                                    	callx0	a2
80002dd0:	f68421                                    	l32r	a2, 800007e0 (800074bc <_Ctype>)
80002dd3:	0108                                    	l32i.n	a0, a1, 0
80002dd5:	10c112                                    	addi	a1, a1, 16
80002dd8:	74027140509e                           	{ ret; l32i	a2, a2, 0 }

80002dde <_Getpctype+0x1e>:
	...

80002de0 <_Fwprep>:
80002de0:	53c24054524e                           	{ l32i	a5, a2, 12; addi	a1, a1, -16 }
80002de6:	7012c168010e                           	{ s32i	a0, a1, 8; l32i	a0, a2, 20 }
80002dec:	f67e31                                    	l32r	a3, 800007e4 (9002 <xthals_release_major+0x6122>)
80002def:	263507                                    	bltu	a5, a0, 80002e19 <_Fwprep+0x39>
80002df2:	001202                                    	l16ui	a0, a2, 0
80002df5:	b50788684cfe                           	{ l32r	a4, 800007e8 (4200 <xthals_release_major+0x1320>); and	a3, a0, a3 }
80002dfb:	bb556022031e                           	{ beqi	a3, 2, 80002e23 <_Fwprep+0x43>; sext	a6, a0, 15 }
80002e01:	00a252                                    	movi	a5, 0x200
80002e04:	a34560                                    	movltz	a4, a5, a6
80002e07:	ba124041010e                           	{ l32i	a0, a1, 8; or	a4, a0, a4 }
80002e0d:	93f1c764428e                           	{ s16i	a4, a2, 0; movi	a2, -1 }
80002e13:	56027044505e                           	{ ret; addi	a1, a1, 16 }

80002e19 <_Fwprep+0x39>:
80002e19:	2108                                    	l32i.n	a0, a1, 8
80002e1b:	020c                                    	movi.n	a2, 0
80002e1d:	56027044505e                           	{ ret; addi	a1, a1, 16 }

80002e23 <_Fwprep+0x43>:
80002e23:	f67261                                    	l32r	a6, 800007ec (6000 <xthals_release_major+0x3120>)
80002e26:	0cc067                                    	bnall	a0, a6, 80002e36 <_Fwprep+0x56>
80002e29:	022272                                    	l32i	a7, a2, 8
80002e2c:	016122                                    	s32i	a2, a1, 4
80002e2f:	e084007498758f                               	{ bgeu.w15	a5, a7, 80002ed0 <_Fwprep+0xf0>; nop }

80002e36 <_Fwprep+0x56>:
80002e36:	740ab121b07e                           	{ bbsi	a0, 11, 80002eb4 <_Fwprep+0xd4>; l32i	a5, a2, 4 }
80002e3c:	5090417a210e                           	{ s32i	a2, a1, 4; addi	a8, a2, 68 }
80002e42:	006182                                    	s32i	a8, a1, 0
80002e45:	6b9587                                    	bne	a5, a8, 80002eb4 <_Fwprep+0xd4>
80002e48:	944e10f841be                           	{ call0	80002b50 <malloc>; movi	a2, 0x200 }
80002e4e:	012192                                    	l32i	a9, a1, 4
80002e51:	016922                                    	s32i	a2, a9, 4
80002e54:	019256                                    	bnez	a2, 80002e71 <_Fwprep+0x91>
80002e57:	45c9a2                                    	addi	a10, a9, 69
80002e5a:	7002406ca90e                           	{ s32i	a10, a9, 8; l32i	a0, a1, 0 }
80002e60:	1909                                    	s32i.n	a0, a9, 4
80002e62:	3909                                    	s32i.n	a0, a9, 12
80002e64:	03eb85                                    	call0	80006d20 <_Closreg>
80002e67:	f66161                                    	l32r	a6, 800007ec (6000 <xthals_release_major+0x3120>)
80002e6a:	1128                                    	l32i.n	a2, a1, 4
80002e6c:	000946                                    	j	80002e95 <_Fwprep+0xb5>

80002e6f <_Fwprep+0x8f>:
	...

80002e71 <_Fwprep+0x91>:
80002e71:	3929                                    	s32i.n	a2, a9, 12
80002e73:	680a446d290e                           	{ s32i	a2, a9, 40; l16ui	a4, a9, 0 }
80002e79:	b929                                    	s32i.n	a2, a9, 44
80002e7b:	5c015141206e                           	{ movi	a2, 64; addmi	a5, a2, 0x200 }
80002e81:	ba034268598e                           	{ s32i	a5, a9, 8; or	a2, a4, a2 }
80002e87:	005922                                    	s16i	a2, a9, 0
80002e8a:	0020f0                                    	nop
80002e8d:	03e905                                    	call0	80006d20 <_Closreg>
80002e90:	1128                                    	l32i.n	a2, a1, 4
80002e92:	f65661                                    	l32r	a6, 800007ec (6000 <xthals_release_major+0x3120>)

80002e95 <_Fwprep+0xb5>:
80002e95:	001202                                    	l16ui	a0, a2, 0
80002e98:	1258                                    	l32i.n	a5, a2, 4
80002e9a:	7005416a520e                           	{ s32i	a5, a2, 16; l32i	a8, a2, 8 }
80002ea0:	ba13c041018e                           	{ l32i	a0, a1, 8; or	a7, a0, a6 }
80002ea6:	5289                                    	s32i.n	a8, a2, 20
80002ea8:	90004060728e                           	{ s16i	a7, a2, 0; movi	a2, 0 }
80002eae:	56027044505e                           	{ ret; addi	a1, a1, 16 }

80002eb4 <_Fwprep+0xd4>:
80002eb4:	4259                                    	s32i.n	a5, a2, 16
80002eb6:	ba13c041018e                           	{ l32i	a0, a1, 8; or	a7, a0, a6 }
80002ebc:	70014162720e                           	{ s16i	a7, a2, 0; l32i	a8, a2, 8 }
80002ec2:	90044078828e                           	{ s32i	a8, a2, 20; movi	a2, 0 }
80002ec8:	56027044505e                           	{ ret; addi	a1, a1, 16 }

80002ece <_Fwprep+0xee>:
	...

80002ed0 <_Fwprep+0xf0>:
80002ed0:	012fc5                                    	call0	800041d0 <fflush>
80002ed3:	00b216                                    	beqz	a2, 80002ee2 <_Fwprep+0x102>
80002ed6:	022102                                    	l32i	a0, a1, 8
80002ed9:	ffaf22                                    	movi	a2, -1
80002edc:	56027044505e                           	{ ret; addi	a1, a1, 16 }

80002ee2 <_Fwprep+0x102>:
80002ee2:	1128                                    	l32i.n	a2, a1, 4
80002ee4:	f64261                                    	l32r	a6, 800007ec (6000 <xthals_release_major+0x3120>)
80002ee7:	001202                                    	l16ui	a0, a2, 0
80002eea:	ffd206                                    	j	80002e36 <_Fwprep+0x56>

80002eed <_Fwprep+0x10d>:
80002eed:	000000                                        ...

80002ef0 <_Getmem>:
80002ef0:	f0c112                                    	addi	a1, a1, -16
80002ef3:	016102                                    	s32i	a0, a1, 4
80002ef6:	2a12a6                                    	blti	a2, 1, 80002f24 <_Getmem+0x34>
80002ef9:	011545                                    	call0	80004050 <sbrk>
80002efc:	93f5e001021e                           	{ beqi	a2, -1, 80002f24 <_Getmem+0x34>; movi	a4, -16 }
80002f02:	0fc232                                    	addi	a3, a2, 15
80002f05:	103340                                    	and	a3, a3, a4
80002f08:	006132                                    	s32i	a3, a1, 0
80002f0b:	7000b0b4231e                           	{ beq	a3, a2, 80002f30 <_Getmem+0x40>; l32i	a0, a1, 4 }
80002f11:	ba8111444fae                           	{ call0	80004050 <sbrk>; sub	a2, a3, a2 }
80002f17:	1108                                    	l32i.n	a0, a1, 4
80002f19:	0128                                    	l32i.n	a2, a1, 0
80002f1b:	56027044505e                           	{ ret; addi	a1, a1, 16 }

80002f21 <_Getmem+0x31>:
80002f21:	000000                                        ...

80002f24 <_Getmem+0x34>:
80002f24:	1108                                    	l32i.n	a0, a1, 4
80002f26:	020c                                    	movi.n	a2, 0
80002f28:	56027044505e                           	{ ret; addi	a1, a1, 16 }

80002f2e <_Getmem+0x3e>:
	...

80002f30 <_Getmem+0x40>:
80002f30:	56027044505e                           	{ ret; addi	a1, a1, 16 }

80002f36 <_Getmem+0x46>:
	...

80002f40 <_LDtest>:
80002f40:	f0c112                                    	addi	a1, a1, -16
80002f43:	0109                                    	s32i.n	a0, a1, 0
80002f45:	013d85                                    	call0	80004320 <_Dtest>
80002f48:	0108                                    	l32i.n	a0, a1, 0
80002f4a:	56027044505e                           	{ ret; addi	a1, a1, 16 }

80002f50 <_LDtest+0x10>:
80002f50:	000000                                        ...

80002f53 <_LDtest+0x13>:
	...

80002f54 <_LPlsw>:
80002f54:	f00d                                    	ret.n

80002f56 <_LPlsw+0x2>:
	...

80002f58 <_LPmsw>:
80002f58:	54137140509e                           	{ ret; addi	a2, a2, 6 }

80002f5e <_LPmsw+0x6>:
	...

80002f60 <_Ldtob>:
80002f60:	20a142                                    	movi	a4, 0x120
80002f63:	c01140                                    	sub	a1, a1, a4
80002f66:	c0c2a8f0015e                           	{ pdx_sv_v_i	v30, a1, 0x100; nop }
80002f6c:	240a4178e11e                           	{ s32i	a14, a1, 236; pdx_ls_64_i	v0, a2, 0 }
80002f72:	be3d4168f19e                           	{ s32i	a15, a1, 240; or	a14, a2, a2 }
80002f78:	9418407fc1de                           	{ s32i	a12, a1, 228; movi	a15, 65 }
80002f7e:	be38416c01de                           	{ s32i	a0, a1, 224; or	a12, a3, a3 }
80002f84:	940a406cd1de                           	{ s32i	a13, a1, 232; movi	a3, 1 }
80002f8a:	90112807014e                           	{ pdx_ss_64_i	v0, a1, 0; movi	a13, 97 }
80002f90:	941333a4dc0e                           	{ beq	a12, a13, 80002fa6 <_Ldtob+0x46>; movi	a0, 103 }
80002f96:	0c1cf7                                    	beq	a12, a15, 80002fa6 <_Ldtob+0x46>
80002f99:	c228                                    	l32i.n	a2, a2, 48
80002f9b:	f03d                                    	nop.n
80002f9d:	0020f0                                    	nop
80002fa0:	135296                                    	bltz	a2, 800030d9 <_Ldtob+0x179>
80002fa3:	121216                                    	beqz	a2, 800030c8 <_Ldtob+0x168>

80002fa6 <_Ldtob+0x46>:
80002fa6:	218b                                    	addi.n	a2, a1, 8
80002fa8:	ba01970ba9ae                           	{ call0	80003650 <_LDunscale>; or	a3, a14, a14 }
80002fae:	9400516406ee                           	{ movi	a0, 102; movi	a3, 3 }
80002fb4:	a8c0111a25020f                               	{ beqi.w15	a2, 2, 8000307e <_Ldtob+0x11e>; movi	a4, 101 }
80002fbb:	4312a6                                    	blti	a2, 1, 80003002 <_Ldtob+0xa2>
80002fbe:	7e39                                    	s32i.n	a3, a14, 28
80002fc0:	371cd7                                    	beq	a12, a13, 80002ffb <_Ldtob+0x9b>
80002fc3:	341c47                                    	beq	a12, a4, 80002ffb <_Ldtob+0x9b>
80002fc6:	311c07                                    	beq	a12, a0, 80002ffb <_Ldtob+0x9b>
80002fc9:	67a002                                    	movi	a0, 103
80002fcc:	2b1c07                                    	beq	a12, a0, 80002ffb <_Ldtob+0x9b>
80002fcf:	f60831                                    	l32r	a3, 800007f0 (80000654 <_Zero+0xa4>)

80002fd2 <_Ldtob+0x72>:
80002fd2:	4e28                                    	l32i.n	a2, a14, 16
80002fd4:	900011e5ba2e                           	{ call0	80006ac0 <memcpy>; movi	a4, 3 }
80002fda:	3921c2                                    	l32i	a12, a1, 228
80002fdd:	766a4044d11e                           	{ l32i	a13, a1, 232; l32i	a0, a1, 224 }
80002fe3:	767a4057e1de                           	{ l32i	a14, a1, 236; l32i	a15, a1, 240 }
80002fe9:	36715034202e                           	{ movi	a2, 0x120; pdx_lv_v_i	v30, a1, 0x100 }
80002fef:	b482f044509e                           	{ ret; add	a1, a1, a2 }

80002ff5 <_Ldtob+0x95>:
80002ff5:	00000000 fe310000                                ......

80002ffb <_Ldtob+0x9b>:
80002ffb:	f5fe31                                    	l32r	a3, 800007f4 (80000650 <_Zero+0xa0>)
80002ffe:	fff406                                    	j	80002fd2 <_Ldtob+0x72>

80003001 <_Ldtob+0xa1>:
	...

80003002 <_Ldtob+0xa2>:
80003002:	e104061c80dc8f                               	{ beq.w15	a12, a13, 8000352c <_Ldtob+0x5cc>; nop }
80003009:	e104047c90fc8f                               	{ beq.w15	a12, a15, 8000352c <_Ldtob+0x5cc>; nop }

80003010 <_Ldtob+0xb0>:
80003010:	5ac216                                    	beqz	a2, 800035c0 <_Ldtob+0x660>
80003013:	e144063c80dc8f                               	{ beq.w15	a12, a13, 80003585 <_Ldtob+0x625>; nop }
8000301a:	e144026490fc8f                               	{ beq.w15	a12, a15, 80003197 <_Ldtob+0x237>; nop }
80003021:	be0f10fccd7e                           	{ call0	80002f58 <_LPmsw>; or	a2, a1, a1 }
80003027:	001252                                    	l16ui	a5, a2, 0
8000302a:	330c                                    	movi.n	a3, 3
8000302c:	be1d294850ae                           	{ extui	a5, a5, 0, 15; or	a6, a2, a2 }
80003032:	50804064568e                           	{ s16i	a5, a6, 0; addi	a2, a1, 64 }
80003038:	2404409c300e                           	{ nop; pdx_ls_64_i	v0, a1, 0 }
8000303e:	009205                                    	call0	80003960 <_LXp_setw>
80003041:	f5ed91                                    	l32r	a9, 800007f8 (7597 <xthals_release_major+0x46b7>)
80003044:	049172                                    	l16si	a7, a1, 8
80003047:	f5ed81                                    	l32r	a8, 800007fc (186a0 <_memmap_cacheattr_wb_base+0x865f>)
8000304a:	d17790                                    	mul16s	a7, a7, a9
8000304d:	d27780                                    	quos	a7, a7, a8
80003050:	fcc772                                    	addi	a7, a7, -4
80003053:	236780                                    	sext	a6, a7, 15
80003056:	045162                                    	s16i	a6, a1, 8
80003059:	a103f58e10f70f                               	{ bbci.w15	a7, 15, 80003560 <_Ldtob+0x600>; movi	a0, -4 }
80003060:	3a0c                                    	movi.n	a10, 3
80003062:	c0aa60                                    	sub	a10, a10, a6
80003065:	10da00                                    	and	a13, a10, a0
80003068:	60b0d0                                    	neg	a11, a13
8000306b:	0451b2                                    	s16i	a11, a1, 8
8000306e:	e084005cf80a8f                               	{ bnone.w15	a10, a0, 80003109 <_Ldtob+0x1a9>; nop }
80003075:	0161c6                                    	j	80003600 <_Ldtob+0x6a0>

80003078 <_Ldtob+0x118>:
80003078:	00000000 7e390000                                ......

8000307e <_Ldtob+0x11e>:
8000307e:	7e39                                    	s32i.n	a3, a14, 28
80003080:	e104003490dc8f                               	{ beq.w15	a12, a13, 80003191 <_Ldtob+0x231>; nop }
80003087:	e104001c804c8f                               	{ beq.w15	a12, a4, 80003191 <_Ldtob+0x231>; nop }
8000308e:	e0c4027c900c8f                               	{ beq.w15	a12, a0, 80003191 <_Ldtob+0x231>; nop }
80003095:	67a0b2                                    	movi	a11, 103
80003098:	e0c4025490bc8f                               	{ beq.w15	a12, a11, 80003191 <_Ldtob+0x231>; nop }
8000309f:	f5d831                                    	l32r	a3, 80000800 (8000064c <_Zero+0x9c>)

800030a2 <_Ldtob+0x142>:
800030a2:	4e28                                    	l32i.n	a2, a14, 16
800030a4:	900011e5862e                           	{ call0	80006ac0 <memcpy>; movi	a4, 3 }
800030aa:	3921c2                                    	l32i	a12, a1, 228
800030ad:	766a4044d11e                           	{ l32i	a13, a1, 232; l32i	a0, a1, 224 }
800030b3:	767a4057e1de                           	{ l32i	a14, a1, 236; l32i	a15, a1, 240 }
800030b9:	36715034202e                           	{ movi	a2, 0x120; pdx_lv_v_i	v30, a1, 0x100 }
800030bf:	b482f044509e                           	{ ret; add	a1, a1, a2 }

800030c5 <_Ldtob+0x165>:
800030c5:	000000                                        ...

800030c8 <_Ldtob+0x168>:
800030c8:	081c07                                    	beq	a12, a0, 800030d4 <_Ldtob+0x174>
800030cb:	704c                                    	movi.n	a0, 71
800030cd:	e6f40c54f00c8f                               	{ bne.w15	a12, a0, 80002fa6 <_Ldtob+0x46>; nop }

800030d4 <_Ldtob+0x174>:
800030d4:	ce39                                    	s32i.n	a3, a14, 48
800030d6:	ffb306                                    	j	80002fa6 <_Ldtob+0x46>

800030d9 <_Ldtob+0x179>:
800030d9:	620c                                    	movi.n	a2, 6
800030db:	ce29                                    	s32i.n	a2, a14, 48
800030dd:	ffb146                                    	j	80002fa6 <_Ldtob+0x46>

800030e0 <_Ldtob+0x180>:
800030e0:	330c                                    	movi.n	a3, 3
800030e2:	52f1b04441be                           	{ addi	a4, a1, 96; addi	a2, a1, 127 }
800030e8:	0020f0                                    	nop
800030eb:	5240912075ae                           	{ call0	80003ac0 <_LXp_movx>; addi	a2, a2, 49 }
800030f1:	60c122                                    	addi	a2, a1, 96
800030f4:	940e315461fe                           	{ addi	a6, a1, 127; movi	a3, 3 }
800030fa:	94003155465e                           	{ addi	a4, a6, 49; movi	a5, 3 }
80003100:	0020f0                                    	nop
80003103:	50009321f3ae                           	{ call0	80003cd0 <_LXp_mulx>; addi	a6, a6, 1 }

80003109 <_Ldtob+0x1a9>:
80003109:	b073b0370d7e                           	{ bbsi	a13, 0, 80003170 <_Ldtob+0x210>; srai	a15, a13, 1 }
8000310f:	ba3ed7d7dfee                           	{ bnez	a15, 800030e0 <_Ldtob+0x180>; or	a13, a15, a15 }

80003115 <_Ldtob+0x1b5>:
80003115:	66a072                                    	movi	a7, 102
80003118:	e044065c807c8f                               	{ beq.w15	a12, a7, 80003592 <_Ldtob+0x632>; nop }
8000311f:	694c                                    	movi.n	a9, 70
80003121:	e0440634909c8f                               	{ beq.w15	a12, a9, 80003592 <_Ldtob+0x632>; nop }
80003128:	700c                                    	movi.n	a0, 7

8000312a <_Ldtob+0x1ca>:
8000312a:	ceb8                                    	l32i.n	a11, a14, 48
8000312c:	5600502fd0ee                           	{ movi	a13, 48; addi	a15, a1, 16 }
80003132:	9000c282df8e                           	{ s8i	a13, a15, 0; movi	a10, 20 }
80003138:	5208d8af0b7e                           	{ add	a11, a11, a0; addi	a13, a1, 17 }
8000313e:	b767456ad1de                           	{ s32i	a13, a1, 216; min	a10, a10, a11 }
80003144:	3761a2                                    	s32i	a10, a1, 220
80003147:	eb04001c083a8f                               	{ blti.w15	a10, 1, 80003451 <_Ldtob+0x4f1>; nop }
8000314e:	f5adf1                                    	l32r	a15, 80000804 (80000418 <ctyp_tab_145+0x208>)
80003151:	2001272c011e                           	{ pdx_ls_64_i	v3, a1, 0; pdx_ls_64_i	v2, a15, 0 }
80003157:	d0c23c046050af                               	{ nop; nop; olt.d	vb0, v2, v3 }
8000315e:	c4caf028005e                           	{ pdx_movbr_b	b0, vb0; nop }
80003164:	021076                                    	bt	b0, 8000316a <_Ldtob+0x20a>
80003167:	00b986                                    	j	80003451 <_Ldtob+0x4f1>
8000316a:	bbf110257b0e                           	{ j	800033e9 <_Ldtob+0x489>; const.d	v30, 1 }

80003170 <_Ldtob+0x210>:
80003170:	40c122                                    	addi	a2, a1, 64
80003173:	9000314441fe                           	{ addi	a4, a1, 96; movi	a3, 3 }
80003179:	940e3155617e                           	{ addi	a6, a1, 127; movi	a5, 3 }
8000317f:	50009321d4ae                           	{ call0	80003cd0 <_LXp_mulx>; addi	a6, a6, 1 }
80003185:	ba3ed75f7fee                           	{ bnez	a15, 800030e0 <_Ldtob+0x180>; or	a13, a15, a15 }
8000318b:	ffe186                                    	j	80003115 <_Ldtob+0x1b5>

8000318e <_Ldtob+0x22e>:
8000318e:	000000                                        ...

80003191 <_Ldtob+0x231>:
80003191:	f59d31                                    	l32r	a3, 80000808 (80000648 <_Zero+0x98>)
80003194:	ffc286                                    	j	800030a2 <_Ldtob+0x142>

80003197 <_Ldtob+0x237>:
80003197:	f59d31                                    	l32r	a3, 8000080c (8000066c <_Zero+0xbc>)

8000319a <_Ldtob+0x23a>:
8000319a:	ce28                                    	l32i.n	a2, a14, 48
8000319c:	c0c0a0480e5e                           	{ pdx_ls_64_i	v5, a14, 0; nop }
800031a2:	90013054f20e                           	{ addi	a15, a2, 1; movi	a0, 33 }
800031a8:	b7f5c068319e                           	{ s32i	a3, a1, 208; movltz	a15, a0, a2 }
800031ae:	bb71af4e010e                           	{ pdx_ss_64_i	v5, a1, 0; sext	a15, a15, 15 }
800031b4:	be05407cf15e                           	{ s32i	a15, a1, 212; or	a2, a1, a1 }
800031ba:	0020f0                                    	nop
800031bd:	540f17ff66fe                           	{ call0	80002f58 <_LPmsw>; addi	a15, a15, 2 }
800031c3:	001282                                    	l16ui	a8, a2, 0
800031c6:	e48080                                    	extui	a8, a8, 0, 15
800031c9:	005282                                    	s16i	a8, a2, 0
800031cc:	6414405531de                           	{ l32i	a3, a1, 212; l16si	a7, a1, 8 }
800031d2:	5600b047614e                           	{ addi	a6, a1, 16; addi	a13, a1, 17 }
800031d8:	94064069d15e                           	{ s32i	a13, a1, 216; movi	a5, 0 }
800031de:	53f0438556ce                           	{ s8i	a5, a6, 0; addi	a7, a7, -4 }
800031e4:	045172                                    	s16i	a7, a1, 8
800031e7:	e884026410338f                               	{ blti.w15	a3, -1, 800032a4 <_Ldtob+0x344>; nop }
800031ee:	f58591                                    	l32r	a9, 80000804 (80000418 <ctyp_tab_145+0x208>)
800031f1:	2011246c011e                           	{ pdx_ls_64_i	v7, a1, 0; pdx_ls_64_i	v6, a9, 0 }
800031f7:	d0c27c246150af                               	{ nop; nop; olt.d	vb1, v6, v7 }
800031fe:	c4caf028115e                           	{ pdx_movbr_b	b1, vb1; nop }
80003204:	021176                                    	bt	b1, 8000320a <_Ldtob+0x2aa>
80003207:	002646                                    	j	800032a4 <_Ldtob+0x344>

8000320a <_Ldtob+0x2aa>:
8000320a:	202110                                    	or	a2, a1, a1
8000320d:	900096685cee                           	{ call0	80004f80 <_LDscale>; movi	a3, 28 }
80003213:	c0c0a008015e                           	{ pdx_ls_64_i	v1, a1, 0; nop }
80003219:	d0c41d0860502f                               	{ nop; nop; trunc.d	v8, v1, 0 }
80003220:	07cdd2                                    	addi	a13, a13, 7
80003223:	57e0f787d0de                           	{ rfr	a0, v8; addi	a15, a15, -7 }
80003229:	9408631d3f0e                           	{ blti	a15, 1, 80003246 <_Ldtob+0x2e6>; movi	a4, 7 }
8000322f:	46a000                                    	wfr	v10, a0
80003232:	d0c4acea60502f                               	{ nop; nop; float.d	v10, v10, 0 }
80003239:	90d2adc560506f                               	{ nop; nop; sub.d	v9, v1, v10 }
80003240:	c0c0a888014e                           	{ pdx_ss_64_i	v9, a1, 0; nop }

80003246 <_Ldtob+0x2e6>:
80003246:	1410a6                                    	blti	a0, 1, 8000325e <_Ldtob+0x2fe>

80003249 <_Ldtob+0x2e9>:
80003249:	44ef3850443e                           	{ addi	a4, a4, -1; extui	a10, a0, 0, 4 }
8000324f:	b4405200b41e                           	{ bltz	a4, 8000325e <_Ldtob+0x2fe>; srai	a0, a0, 4 }
80003255:	ffcdd2                                    	addi	a13, a13, -1
80003258:	004da2                                    	s8i	a10, a13, 0
8000325b:	ea10e6                                    	bgei	a0, 1, 80003249 <_Ldtob+0x2e9>
8000325e:	57ffba50bd3e                           	{ addi	a11, a13, -1; addi	a0, a4, -1 }
80003264:	94005008409e                           	{ bltz	a0, 8000327c <_Ldtob+0x31c>; movi	a2, 0 }
8000326a:	0020f0                                    	nop
8000326d:	05a076                                    	loopgtz	a0, 80003276 <_Ldtob+0x316>
80003270:	53f1c5862bce                           	{ s8i	a2, a11, 0; addi	a11, a11, -1 }

80003276 <_Ldtob+0x316>:
80003276:	ba30c5862bce                           	{ s8i	a2, a11, 0; or	a13, a11, a11 }

8000327c <_Ldtob+0x31c>:
8000327c:	5015e60f3f5e                           	{ blti	a15, 1, 800032a4 <_Ldtob+0x344>; addi	a13, a13, 7 }
80003282:	f56001                                    	l32r	a0, 80000804 (80000418 <ctyp_tab_145+0x208>)
80003285:	c0c0a0c0015e                           	{ pdx_ls_64_i	v12, a1, 0; nop }
8000328b:	c0c0a0a8005e                           	{ pdx_ls_64_i	v11, a0, 0; nop }
80003291:	d0c2cc446250ef                               	{ nop; nop; olt.d	vb2, v11, v12 }
80003298:	c4caf028225e                           	{ pdx_movbr_b	b2, vb2; nop }
8000329e:	020276                                    	bf	b2, 800032a4 <_Ldtob+0x344>
800032a1:	ffd946                                    	j	8000320a <_Ldtob+0x2aa>
800032a4:	7650b044f18e                           	{ addi	a15, a1, 16; l32i	a2, a1, 212 }
800032aa:	c0fdf0                                    	sub	a15, a13, a15
800032ad:	ff0b                                    	addi.n	a15, a15, -1
800032af:	725f58372f7e                           	{ min	a2, a15, a2; l32i	a13, a1, 216 }
800032b5:	bb54b132f23e                           	{ bbsi	a2, 15, 8000331e <_Ldtob+0x3be>; sext	a5, a2, 15 }
800032bb:	b08432bff55e                           	{ bge	a5, a15, 800032e4 <_Ldtob+0x384>; add	a0, a5, a13 }
800032c1:	000022                                    	l8ui	a2, a0, 0
800032c4:	1c82b6                                    	bltui	a2, 8, 800032e4 <_Ldtob+0x384>
800032c7:	ffd032                                    	addmi	a3, a0, 0xffffff00
800032ca:	ff0332                                    	l8ui	a3, a3, 255
800032cd:	940057052f2e                           	{ movi	a2, 15; movi	a4, 15 }
800032d3:	630bf19284430f                               	{ beq.w15	a3, a4, 800035db <_Ldtob+0x67b>; addi	a0, a5, -1 }
800032da:	90001704168e                           	{ j	800032f4 <_Ldtob+0x394>; movi	a2, 15 }

800032e0 <_Ldtob+0x380>:
800032e0:	00000000                                ....

800032e4 <_Ldtob+0x384>:
800032e4:	ffd042                                    	addmi	a4, a0, 0xffffff00
800032e7:	ff0442                                    	l8ui	a4, a4, 255
800032ea:	020c                                    	movi.n	a2, 0
800032ec:	57f3d2e4b40e                           	{ beqz	a4, 800035db <_Ldtob+0x67b>; addi	a0, a5, -1 }
800032f2:	020c                                    	movi.n	a2, 0

800032f4 <_Ldtob+0x394>:
800032f4:	f60c                                    	movi.n	a6, 15
800032f6:	e304020c80628f                               	{ beq.w15	a2, a6, 8000361c <_Ldtob+0x6bc>; nop }
800032fd:	32b096                                    	bltz	a0, 8000362c <_Ldtob+0x6cc>

80003300 <_Ldtob+0x3a0>:
80003300:	765e385405fe                           	{ addi	a0, a5, -1; l32i	a3, a1, 208 }
80003306:	f03d                                    	nop.n
80003308:	f03d                                    	nop.n
8000330a:	b480408b154e                           	{ loopgtz	a5, 8000331e <_Ldtob+0x3be>; add	a0, a0, a13 }
80003310:	53f1c048200e                           	{ l8ui	a2, a0, 0; addi	a0, a0, -1 }
80003316:	223a                                    	add.n	a2, a2, a3
80003318:	000222                                    	l8ui	a2, a2, 0
8000331b:	014022                                    	s8i	a2, a0, 1
8000331e:	ce28                                    	l32i.n	a2, a14, 48
80003320:	267296                                    	bltz	a2, 8000358b <_Ldtob+0x62b>

80003323 <_Ldtob+0x3c3>:
80003323:	049162                                    	l16si	a6, a1, 8

80003326 <_Ldtob+0x3c6>:
80003326:	be0bde43dd3e                           	{ or	a4, a13, a13; or	a3, a12, a12 }
8000332c:	ba011743a0ae                           	{ call0	800045b0 <_Genld>; or	a2, a14, a14 }
80003332:	3921c2                                    	l32i	a12, a1, 228
80003335:	766a4044d11e                           	{ l32i	a13, a1, 232; l32i	a0, a1, 224 }
8000333b:	767a4057e1de                           	{ l32i	a14, a1, 236; l32i	a15, a1, 240 }
80003341:	36715034202e                           	{ movi	a2, 0x120; pdx_lv_v_i	v30, a1, 0x100 }
80003347:	b482f044509e                           	{ ret; add	a1, a1, a2 }

8000334d <_Ldtob+0x3ed>:
8000334d:	000000                                        ...

80003350 <_Ldtob+0x3f0>:
80003350:	372132                                    	l32i	a3, a1, 220
80003353:	f8c332                                    	addi	a3, a3, -8
80003356:	376132                                    	s32i	a3, a1, 220
80003359:	1413a6                                    	blti	a3, 1, 80003371 <_Ldtob+0x411>
8000335c:	f52d41                                    	l32r	a4, 80000810 (80000420 <ctyp_tab_145+0x210>)
8000335f:	5480500433ae                           	{ movi	a3, 3; addi	a2, a1, 64 }
80003365:	24044298300e                           	{ nop; pdx_ls_64_i	v0, a4, 0 }
8000336b:	0020f0                                    	nop
8000336e:	007805                                    	call0	80003af0 <_LXp_mulh>

80003371 <_Ldtob+0x411>:
80003371:	dd8b                                    	addi.n	a13, a13, 8
80003373:	900664083f1e                           	{ blti	a15, 1, 8000339d <_Ldtob+0x43d>; movi	a0, 8 }

80003379 <_Ldtob+0x419>:
80003379:	ffc002                                    	addi	a0, a0, -1
8000337c:	446102                                    	s32i	a0, a1, 0x110
8000337f:	01a096                                    	bltz	a0, 8000339d <_Ldtob+0x43d>
80003382:	202ff0                                    	or	a2, a15, a15
80003385:	900015e06aee                           	{ call0	80006d30 <ldiv>; movi	a3, 10 }
8000338b:	ffcdd2                                    	addi	a13, a13, -1
8000338e:	52444145016e                           	{ l32i	a0, a1, 0x110; addi	a5, a3, 48 }
80003394:	004d52                                    	s8i	a5, a13, 0
80003397:	be3fe90812ae                           	{ bgei	a2, 1, 80003379 <_Ldtob+0x419>; or	a15, a2, a2 }
8000339d:	765fb85500fe                           	{ addi	a0, a0, -1; l32i	a7, a1, 220 }
800033a3:	57f1d60d609e                           	{ bltz	a0, 800033bd <_Ldtob+0x45d>; addi	a6, a13, -1 }
800033a9:	f03d                                    	nop.n
800033ab:	9009c088108e                           	{ loopgtz	a0, 800033b7 <_Ldtob+0x457>; movi	a2, 48 }
800033b1:	53f1c381268e                           	{ s8i	a2, a6, 0; addi	a6, a6, -1 }

800033b7 <_Ldtob+0x457>:
800033b7:	ba30c381268e                           	{ s8i	a2, a6, 0; or	a13, a6, a6 }

800033bd <_Ldtob+0x45d>:
800033bd:	5424469f304e                           	{ nop; addi	a13, a13, 8 }
800033c3:	e884002c08378f                               	{ blti.w15	a7, 1, 80003451 <_Ldtob+0x4f1>; nop }
800033ca:	f50e81                                    	l32r	a8, 80000804 (80000418 <ctyp_tab_145+0x208>)
800033cd:	c0c0a0e0015e                           	{ pdx_ls_64_i	v14, a1, 0; nop }
800033d3:	c0c0a0c8085e                           	{ pdx_ls_64_i	v13, a8, 0; nop }
800033d9:	d0c2ec6463506f                               	{ nop; nop; olt.d	vb3, v13, v14 }
800033e0:	c4caf028335e                           	{ pdx_movbr_b	b3, vb3; nop }
800033e6:	670376                                    	bf	b3, 80003451 <_Ldtob+0x4f1>

800033e9 <_Ldtob+0x489>:
800033e9:	c0c0a008815e                           	{ pdx_ls_64_i	v1, a1, 64; nop }
800033ef:	d0c21c826750af                               	{ nop; nop; ole.d	vb4, v30, v1 }
800033f6:	c4caf028445e                           	{ pdx_movbr_b	b4, vb4; nop }
800033fc:	b25000006364cf                               	{ bt	b4, 80003406 <_Ldtob+0x4a6>; movi	a15, 0 }
80003403:	ffd246                                    	j	80003350 <_Ldtob+0x3f0>
80003406:	0f0c                                    	movi.n	a15, 0

